ARM GAS  C:\Users\Vento\AppData\Local\Temp\ccxXLphG.s 			page 1


   1              		.cpu cortex-m3
   2              		.eabi_attribute 20, 1
   3              		.eabi_attribute 21, 1
   4              		.eabi_attribute 23, 3
   5              		.eabi_attribute 24, 1
   6              		.eabi_attribute 25, 1
   7              		.eabi_attribute 26, 1
   8              		.eabi_attribute 30, 1
   9              		.eabi_attribute 34, 1
  10              		.eabi_attribute 18, 4
  11              		.file	"freertos.c"
  12              		.text
  13              	.Ltext0:
  14              		.cfi_sections	.debug_frame
  15              		.section	.text.PLC_Task,"ax",%progbits
  16              		.align	1
  17              		.global	PLC_Task
  18              		.arch armv7-m
  19              		.syntax unified
  20              		.thumb
  21              		.thumb_func
  22              		.fpu softvfp
  24              	PLC_Task:
  25              	.LFB71:
  26              		.file 1 "Core/Src/freertos.c"
   1:Core/Src/freertos.c **** /* USER CODE BEGIN Header */
   2:Core/Src/freertos.c **** /**
   3:Core/Src/freertos.c ****   ******************************************************************************
   4:Core/Src/freertos.c ****   * File Name          : freertos.c
   5:Core/Src/freertos.c ****   * Description        : Code for freertos applications
   6:Core/Src/freertos.c ****   ******************************************************************************
   7:Core/Src/freertos.c ****   * @attention
   8:Core/Src/freertos.c ****   *
   9:Core/Src/freertos.c ****   * Copyright (c) 2022 STMicroelectronics.
  10:Core/Src/freertos.c ****   * All rights reserved.
  11:Core/Src/freertos.c ****   *
  12:Core/Src/freertos.c ****   * This software is licensed under terms that can be found in the LICENSE file
  13:Core/Src/freertos.c ****   * in the root directory of this software component.
  14:Core/Src/freertos.c ****   * If no LICENSE file comes with this software, it is provided AS-IS.
  15:Core/Src/freertos.c ****   *
  16:Core/Src/freertos.c ****   ******************************************************************************
  17:Core/Src/freertos.c ****   */
  18:Core/Src/freertos.c **** /* USER CODE END Header */
  19:Core/Src/freertos.c **** 
  20:Core/Src/freertos.c **** /* Includes ------------------------------------------------------------------*/
  21:Core/Src/freertos.c **** #include "FreeRTOS.h"
  22:Core/Src/freertos.c **** #include "task.h"
  23:Core/Src/freertos.c **** #include "main.h"
  24:Core/Src/freertos.c **** #include "cmsis_os.h"
  25:Core/Src/freertos.c **** 
  26:Core/Src/freertos.c **** /* Private includes ----------------------------------------------------------*/
  27:Core/Src/freertos.c **** /* USER CODE BEGIN Includes */
  28:Core/Src/freertos.c **** #include "lcd.h"
  29:Core/Src/freertos.c **** #include "math.h"
  30:Core/Src/freertos.c **** 
  31:Core/Src/freertos.c **** /* USER CODE END Includes */
  32:Core/Src/freertos.c **** 
ARM GAS  C:\Users\Vento\AppData\Local\Temp\ccxXLphG.s 			page 2


  33:Core/Src/freertos.c **** /* Private typedef -----------------------------------------------------------*/
  34:Core/Src/freertos.c **** /* USER CODE BEGIN PTD */
  35:Core/Src/freertos.c **** typedef enum
  36:Core/Src/freertos.c **** {
  37:Core/Src/freertos.c ****   SLEEPING = 0,
  38:Core/Src/freertos.c ****   RUNNING = 1,
  39:Core/Src/freertos.c **** } Mode;
  40:Core/Src/freertos.c **** 
  41:Core/Src/freertos.c **** typedef struct
  42:Core/Src/freertos.c **** {
  43:Core/Src/freertos.c ****   uint8_t PWM_percent;
  44:Core/Src/freertos.c ****   double current;
  45:Core/Src/freertos.c ****   uint32_t time;
  46:Core/Src/freertos.c ****   uint8_t history[120];
  47:Core/Src/freertos.c **** } Channel;
  48:Core/Src/freertos.c **** /* USER CODE END PTD */
  49:Core/Src/freertos.c **** 
  50:Core/Src/freertos.c **** /* Private define ------------------------------------------------------------*/
  51:Core/Src/freertos.c **** /* USER CODE BEGIN PD */
  52:Core/Src/freertos.c **** #define ABS(x) ((x) > 0 ? (x) : -(x))
  53:Core/Src/freertos.c **** 
  54:Core/Src/freertos.c **** #define ControlPage   0
  55:Core/Src/freertos.c **** #define SettingPage   1
  56:Core/Src/freertos.c **** #define InfoPage      2
  57:Core/Src/freertos.c **** 
  58:Core/Src/freertos.c **** #define LCD_TimeOut   180000
  59:Core/Src/freertos.c **** /* USER CODE END PD */
  60:Core/Src/freertos.c **** 
  61:Core/Src/freertos.c **** /* Private macro -------------------------------------------------------------*/
  62:Core/Src/freertos.c **** /* USER CODE BEGIN PM */
  63:Core/Src/freertos.c **** 
  64:Core/Src/freertos.c **** /* USER CODE END PM */
  65:Core/Src/freertos.c **** 
  66:Core/Src/freertos.c **** /* Private variables ---------------------------------------------------------*/
  67:Core/Src/freertos.c **** /* USER CODE BEGIN Variables */
  68:Core/Src/freertos.c **** extern SPI_HandleTypeDef hspi2;
  69:Core/Src/freertos.c **** 
  70:Core/Src/freertos.c **** myButton_t Channel_1 = {80, 120, 50, 0, 0, ILI9341_RED, false, NULL};
  71:Core/Src/freertos.c **** myButton_t Channel_2 = {240, 120, 50, 0, 0, ILI9341_RED, false, NULL};
  72:Core/Src/freertos.c **** myButton_t Control_Info = {299, 219, 20, 0, 0, ILI9341_LIGHTBLUE, NULL, NULL};
  73:Core/Src/freertos.c **** myButton_t Info_Control = {20, 219, 20, 0, 0, ILI9341_LIGHTBLUE, NULL, NULL};
  74:Core/Src/freertos.c **** myButton_t Control_Setting = {160, 205, 0, 100, 30, ILI9341_YELLOW, NULL, NULL};
  75:Core/Src/freertos.c **** Mode DeviceState = RUNNING;
  76:Core/Src/freertos.c **** uint8_t currentPage = 0;
  77:Core/Src/freertos.c **** Channel Channel01 = {0, 0.0, 0};
  78:Core/Src/freertos.c **** Channel Channel02 = {0, 0.0, 0};
  79:Core/Src/freertos.c **** 
  80:Core/Src/freertos.c **** 
  81:Core/Src/freertos.c **** /* USER CODE END Variables */
  82:Core/Src/freertos.c **** /* Definitions for myDisplay */
  83:Core/Src/freertos.c **** osThreadId_t myDisplayHandle;
  84:Core/Src/freertos.c **** const osThreadAttr_t myDisplay_attributes = {
  85:Core/Src/freertos.c ****   .name = "myDisplay",
  86:Core/Src/freertos.c ****   .stack_size = 200 * 4,
  87:Core/Src/freertos.c ****   .priority = (osPriority_t) osPriorityNormal,
  88:Core/Src/freertos.c **** };
  89:Core/Src/freertos.c **** /* Definitions for myPLC */
ARM GAS  C:\Users\Vento\AppData\Local\Temp\ccxXLphG.s 			page 3


  90:Core/Src/freertos.c **** osThreadId_t myPLCHandle;
  91:Core/Src/freertos.c **** const osThreadAttr_t myPLC_attributes = {
  92:Core/Src/freertos.c ****   .name = "myPLC",
  93:Core/Src/freertos.c ****   .stack_size = 200 * 4,
  94:Core/Src/freertos.c ****   .priority = (osPriority_t) osPriorityNormal,
  95:Core/Src/freertos.c **** };
  96:Core/Src/freertos.c **** /* Definitions for Button */
  97:Core/Src/freertos.c **** osThreadId_t ButtonHandle;
  98:Core/Src/freertos.c **** const osThreadAttr_t Button_attributes = {
  99:Core/Src/freertos.c ****   .name = "Button",
 100:Core/Src/freertos.c ****   .stack_size = 150 * 4,
 101:Core/Src/freertos.c ****   .priority = (osPriority_t) osPriorityAboveNormal,
 102:Core/Src/freertos.c **** };
 103:Core/Src/freertos.c **** /* Definitions for myTimer */
 104:Core/Src/freertos.c **** osTimerId_t myTimerHandle;
 105:Core/Src/freertos.c **** const osTimerAttr_t myTimer_attributes = {
 106:Core/Src/freertos.c ****   .name = "myTimer"
 107:Core/Src/freertos.c **** };
 108:Core/Src/freertos.c **** /* Definitions for Timeout */
 109:Core/Src/freertos.c **** osTimerId_t TimeoutHandle;
 110:Core/Src/freertos.c **** const osTimerAttr_t Timeout_attributes = {
 111:Core/Src/freertos.c ****   .name = "Timeout"
 112:Core/Src/freertos.c **** };
 113:Core/Src/freertos.c **** /* Definitions for Mutex01 */
 114:Core/Src/freertos.c **** osMutexId_t Mutex01Handle;
 115:Core/Src/freertos.c **** const osMutexAttr_t Mutex01_attributes = {
 116:Core/Src/freertos.c ****   .name = "Mutex01"
 117:Core/Src/freertos.c **** };
 118:Core/Src/freertos.c **** /* Definitions for BinarySem */
 119:Core/Src/freertos.c **** osSemaphoreId_t BinarySemHandle;
 120:Core/Src/freertos.c **** const osSemaphoreAttr_t BinarySem_attributes = {
 121:Core/Src/freertos.c ****   .name = "BinarySem"
 122:Core/Src/freertos.c **** };
 123:Core/Src/freertos.c **** 
 124:Core/Src/freertos.c **** /* Private function prototypes -----------------------------------------------*/
 125:Core/Src/freertos.c **** /* USER CODE BEGIN FunctionPrototypes */
 126:Core/Src/freertos.c **** void ControlPageDisplay(void);
 127:Core/Src/freertos.c **** void SettingPageDisplay(void);
 128:Core/Src/freertos.c **** void InfoPageDisplay(void);
 129:Core/Src/freertos.c **** 
 130:Core/Src/freertos.c **** void ControlPageHandler(uint16_t x, uint16_t y);
 131:Core/Src/freertos.c **** void SettingPageHandler(uint16_t x, uint16_t y);
 132:Core/Src/freertos.c **** void InfoPageHandler(uint16_t x, uint16_t y);
 133:Core/Src/freertos.c **** 
 134:Core/Src/freertos.c **** void reverse(char* str, int len);
 135:Core/Src/freertos.c **** int intToStr(uint8_t x, char str[], int d);
 136:Core/Src/freertos.c **** void ftoa(float n, char* res, int afterpoint);
 137:Core/Src/freertos.c **** 
 138:Core/Src/freertos.c **** void intToTime(uint32_t time, char* str);
 139:Core/Src/freertos.c **** int intToStr0(uint8_t x, char str[], int d);
 140:Core/Src/freertos.c **** /* USER CODE END FunctionPrototypes */
 141:Core/Src/freertos.c **** 
 142:Core/Src/freertos.c **** void Display_Task(void *argument);
 143:Core/Src/freertos.c **** void PLC_Task(void *argument);
 144:Core/Src/freertos.c **** void IRQ_Task(void *argument);
 145:Core/Src/freertos.c **** void LED_Indicator(void *argument);
 146:Core/Src/freertos.c **** void LCD_Timeout(void *argument);
ARM GAS  C:\Users\Vento\AppData\Local\Temp\ccxXLphG.s 			page 4


 147:Core/Src/freertos.c **** 
 148:Core/Src/freertos.c **** void MX_FREERTOS_Init(void); /* (MISRA C 2004 rule 8.1) */
 149:Core/Src/freertos.c **** 
 150:Core/Src/freertos.c **** /**
 151:Core/Src/freertos.c ****   * @brief  FreeRTOS initialization
 152:Core/Src/freertos.c ****   * @param  None
 153:Core/Src/freertos.c ****   * @retval None
 154:Core/Src/freertos.c ****   */
 155:Core/Src/freertos.c **** void MX_FREERTOS_Init(void) {
 156:Core/Src/freertos.c ****   /* USER CODE BEGIN Init */
 157:Core/Src/freertos.c **** 
 158:Core/Src/freertos.c ****   /* USER CODE END Init */
 159:Core/Src/freertos.c ****   /* Create the mutex(es) */
 160:Core/Src/freertos.c ****   /* creation of Mutex01 */
 161:Core/Src/freertos.c ****   Mutex01Handle = osMutexNew(&Mutex01_attributes);
 162:Core/Src/freertos.c **** 
 163:Core/Src/freertos.c ****   /* USER CODE BEGIN RTOS_MUTEX */
 164:Core/Src/freertos.c ****   /* add mutexes, ... */
 165:Core/Src/freertos.c ****   /* USER CODE END RTOS_MUTEX */
 166:Core/Src/freertos.c **** 
 167:Core/Src/freertos.c ****   /* Create the semaphores(s) */
 168:Core/Src/freertos.c ****   /* creation of BinarySem */
 169:Core/Src/freertos.c ****   BinarySemHandle = osSemaphoreNew(1, 1, &BinarySem_attributes);
 170:Core/Src/freertos.c **** 
 171:Core/Src/freertos.c ****   /* USER CODE BEGIN RTOS_SEMAPHORES */
 172:Core/Src/freertos.c ****   /* add semaphores, ... */
 173:Core/Src/freertos.c ****   /* USER CODE END RTOS_SEMAPHORES */
 174:Core/Src/freertos.c **** 
 175:Core/Src/freertos.c ****   /* Create the timer(s) */
 176:Core/Src/freertos.c ****   /* creation of myTimer */
 177:Core/Src/freertos.c ****   myTimerHandle = osTimerNew(LED_Indicator, osTimerPeriodic, NULL, &myTimer_attributes);
 178:Core/Src/freertos.c **** 
 179:Core/Src/freertos.c ****   /* creation of Timeout */
 180:Core/Src/freertos.c ****   TimeoutHandle = osTimerNew(LCD_Timeout, osTimerOnce, NULL, &Timeout_attributes);
 181:Core/Src/freertos.c **** 
 182:Core/Src/freertos.c ****   /* USER CODE BEGIN RTOS_TIMERS */
 183:Core/Src/freertos.c ****   /* start timers, add new ones, ... */
 184:Core/Src/freertos.c ****   /* USER CODE END RTOS_TIMERS */
 185:Core/Src/freertos.c **** 
 186:Core/Src/freertos.c ****   /* USER CODE BEGIN RTOS_QUEUES */
 187:Core/Src/freertos.c ****   /* add queues, ... */
 188:Core/Src/freertos.c ****   /* USER CODE END RTOS_QUEUES */
 189:Core/Src/freertos.c **** 
 190:Core/Src/freertos.c ****   /* Create the thread(s) */
 191:Core/Src/freertos.c ****   /* creation of myDisplay */
 192:Core/Src/freertos.c ****   myDisplayHandle = osThreadNew(Display_Task, NULL, &myDisplay_attributes);
 193:Core/Src/freertos.c **** 
 194:Core/Src/freertos.c ****   /* creation of myPLC */
 195:Core/Src/freertos.c ****   myPLCHandle = osThreadNew(PLC_Task, NULL, &myPLC_attributes);
 196:Core/Src/freertos.c **** 
 197:Core/Src/freertos.c ****   /* creation of Button */
 198:Core/Src/freertos.c ****   ButtonHandle = osThreadNew(IRQ_Task, NULL, &Button_attributes);
 199:Core/Src/freertos.c **** 
 200:Core/Src/freertos.c ****   /* USER CODE BEGIN RTOS_THREADS */
 201:Core/Src/freertos.c ****   /* add threads, ... */
 202:Core/Src/freertos.c ****   /* USER CODE END RTOS_THREADS */
 203:Core/Src/freertos.c **** 
ARM GAS  C:\Users\Vento\AppData\Local\Temp\ccxXLphG.s 			page 5


 204:Core/Src/freertos.c ****   /* USER CODE BEGIN RTOS_EVENTS */
 205:Core/Src/freertos.c ****   /* add events, ... */
 206:Core/Src/freertos.c ****   /* USER CODE END RTOS_EVENTS */
 207:Core/Src/freertos.c **** 
 208:Core/Src/freertos.c **** }
 209:Core/Src/freertos.c **** 
 210:Core/Src/freertos.c **** /* USER CODE BEGIN Header_Display_Task */
 211:Core/Src/freertos.c **** /**
 212:Core/Src/freertos.c ****   * @brief  Function implementing the myDisplay thread.
 213:Core/Src/freertos.c ****   * @param  argument: Not used
 214:Core/Src/freertos.c ****   * @retval None
 215:Core/Src/freertos.c ****   */
 216:Core/Src/freertos.c **** /* USER CODE END Header_Display_Task */
 217:Core/Src/freertos.c **** void Display_Task(void *argument)
 218:Core/Src/freertos.c **** {
 219:Core/Src/freertos.c ****   /* USER CODE BEGIN Display_Task */
 220:Core/Src/freertos.c ****   osTimerStart(myTimerHandle, 1000);
 221:Core/Src/freertos.c ****   osTimerStart(TimeoutHandle, LCD_TimeOut);
 222:Core/Src/freertos.c ****   ILI9341_Unselect();
 223:Core/Src/freertos.c ****   ILI9341_TouchUnselect();
 224:Core/Src/freertos.c ****   ILI9341_Init();
 225:Core/Src/freertos.c **** 
 226:Core/Src/freertos.c ****   /* Infinite loop */
 227:Core/Src/freertos.c ****   for(;;)
 228:Core/Src/freertos.c ****   {
 229:Core/Src/freertos.c ****     osTimerStop(myTimerHandle);
 230:Core/Src/freertos.c ****     switch (currentPage)
 231:Core/Src/freertos.c ****     {
 232:Core/Src/freertos.c ****       case ControlPage:
 233:Core/Src/freertos.c ****         ControlPageDisplay();
 234:Core/Src/freertos.c ****         break;
 235:Core/Src/freertos.c **** 
 236:Core/Src/freertos.c ****       case SettingPage:
 237:Core/Src/freertos.c ****         SettingPageDisplay();
 238:Core/Src/freertos.c ****         break;
 239:Core/Src/freertos.c **** 
 240:Core/Src/freertos.c ****       case InfoPage:
 241:Core/Src/freertos.c ****         InfoPageDisplay();
 242:Core/Src/freertos.c ****         break;
 243:Core/Src/freertos.c **** 
 244:Core/Src/freertos.c ****       default:
 245:Core/Src/freertos.c ****         break;
 246:Core/Src/freertos.c ****     }
 247:Core/Src/freertos.c ****     osTimerStart(myTimerHandle, 1000);
 248:Core/Src/freertos.c ****     vTaskSuspend(myDisplayHandle);
 249:Core/Src/freertos.c ****   }
 250:Core/Src/freertos.c ****   /* USER CODE END Display_Task */
 251:Core/Src/freertos.c **** }
 252:Core/Src/freertos.c **** 
 253:Core/Src/freertos.c **** /* USER CODE BEGIN Header_PLC_Task */
 254:Core/Src/freertos.c **** /**
 255:Core/Src/freertos.c **** * @brief Function implementing the myPLC thread.
 256:Core/Src/freertos.c **** * @param argument: Not used
 257:Core/Src/freertos.c **** * @retval None
 258:Core/Src/freertos.c **** */
 259:Core/Src/freertos.c **** /* USER CODE END Header_PLC_Task */
 260:Core/Src/freertos.c **** void PLC_Task(void *argument)
ARM GAS  C:\Users\Vento\AppData\Local\Temp\ccxXLphG.s 			page 6


 261:Core/Src/freertos.c **** {
  27              		.loc 1 261 1 view -0
  28              		.cfi_startproc
  29              		@ Volatile: function does not return.
  30              		@ args = 0, pretend = 0, frame = 0
  31              		@ frame_needed = 0, uses_anonymous_args = 0
  32              	.LVL0:
  33              		.loc 1 261 1 is_stmt 0 view .LVU1
  34 0000 08B5     		push	{r3, lr}
  35              	.LCFI0:
  36              		.cfi_def_cfa_offset 8
  37              		.cfi_offset 3, -8
  38              		.cfi_offset 14, -4
  39              	.LVL1:
  40              	.L2:
 262:Core/Src/freertos.c ****   /* USER CODE BEGIN PLC_Task */
 263:Core/Src/freertos.c ****   /* Infinite loop */
 264:Core/Src/freertos.c ****   for(;;)
  41              		.loc 1 264 3 is_stmt 1 discriminator 1 view .LVU2
 265:Core/Src/freertos.c ****   {
 266:Core/Src/freertos.c ****     osDelay(1);
  42              		.loc 1 266 5 discriminator 1 view .LVU3
  43 0002 0120     		movs	r0, #1
  44 0004 FFF7FEFF 		bl	osDelay
  45              	.LVL2:
 264:Core/Src/freertos.c ****   {
  46              		.loc 1 264 8 discriminator 1 view .LVU4
  47 0008 FBE7     		b	.L2
  48              		.cfi_endproc
  49              	.LFE71:
  51              		.section	.text.LCD_Timeout,"ax",%progbits
  52              		.align	1
  53              		.global	LCD_Timeout
  54              		.syntax unified
  55              		.thumb
  56              		.thumb_func
  57              		.fpu softvfp
  59              	LCD_Timeout:
  60              	.LVL3:
  61              	.LFB74:
 267:Core/Src/freertos.c ****   }
 268:Core/Src/freertos.c ****   /* USER CODE END PLC_Task */
 269:Core/Src/freertos.c **** }
 270:Core/Src/freertos.c **** 
 271:Core/Src/freertos.c **** /* USER CODE BEGIN Header_IRQ_Task */
 272:Core/Src/freertos.c **** /**
 273:Core/Src/freertos.c **** * @brief Function implementing the Button thread.
 274:Core/Src/freertos.c **** * @param argument: Not used
 275:Core/Src/freertos.c **** * @retval None
 276:Core/Src/freertos.c **** */
 277:Core/Src/freertos.c **** /* USER CODE END Header_IRQ_Task */
 278:Core/Src/freertos.c **** void IRQ_Task(void *argument)
 279:Core/Src/freertos.c **** {
 280:Core/Src/freertos.c ****   /* USER CODE BEGIN IRQ_Task */
 281:Core/Src/freertos.c ****   uint16_t x, y;
 282:Core/Src/freertos.c ****   uint32_t currentTick = 0, lastTick = 0;
 283:Core/Src/freertos.c ****   /* Infinite loop */
ARM GAS  C:\Users\Vento\AppData\Local\Temp\ccxXLphG.s 			page 7


 284:Core/Src/freertos.c ****   for(;;)
 285:Core/Src/freertos.c ****   {
 286:Core/Src/freertos.c ****     osDelay(100);
 287:Core/Src/freertos.c ****     if (osSemaphoreAcquire(BinarySemHandle, portMAX_DELAY) == osOK)
 288:Core/Src/freertos.c ****     {
 289:Core/Src/freertos.c ****       osDelay(100);
 290:Core/Src/freertos.c ****       currentTick = HAL_GetTick();
 291:Core/Src/freertos.c ****       if (HAL_GPIO_ReadPin(TOUCH_IRQ_GPIO_Port, TOUCH_IRQ_Pin) == 0 && ((currentTick - lastTick) >=
 292:Core/Src/freertos.c ****       {
 293:Core/Src/freertos.c ****         lastTick = currentTick;
 294:Core/Src/freertos.c **** 
 295:Core/Src/freertos.c ****         HAL_SPI_DeInit(&hspi2);
 296:Core/Src/freertos.c ****         hspi2.Init.BaudRatePrescaler = SPI_BAUDRATEPRESCALER_128;
 297:Core/Src/freertos.c ****         HAL_SPI_Init(&hspi2);
 298:Core/Src/freertos.c ****         while(ILI9341_TouchGetCoordinates(&x, &y) != true);
 299:Core/Src/freertos.c ****         HAL_SPI_DeInit(&hspi2);
 300:Core/Src/freertos.c ****         hspi2.Init.BaudRatePrescaler = SPI_BAUDRATEPRESCALER_2;
 301:Core/Src/freertos.c ****         HAL_SPI_Init(&hspi2);
 302:Core/Src/freertos.c **** 
 303:Core/Src/freertos.c ****         osTimerDelete(TimeoutHandle);
 304:Core/Src/freertos.c ****         TimeoutHandle = osTimerNew(LCD_Timeout, osTimerOnce, NULL, &Timeout_attributes);
 305:Core/Src/freertos.c **** 
 306:Core/Src/freertos.c ****         if (DeviceState == SLEEPING)
 307:Core/Src/freertos.c ****         {
 308:Core/Src/freertos.c ****           DeviceState = RUNNING;
 309:Core/Src/freertos.c ****           HAL_GPIO_WritePin(LCD_LED_GPIO_Port, LCD_LED_Pin, 1);
 310:Core/Src/freertos.c ****         }
 311:Core/Src/freertos.c ****         else
 312:Core/Src/freertos.c ****         {
 313:Core/Src/freertos.c ****           switch (currentPage)
 314:Core/Src/freertos.c ****           {
 315:Core/Src/freertos.c ****             case ControlPage:
 316:Core/Src/freertos.c ****               ControlPageHandler(x, y);
 317:Core/Src/freertos.c ****               break;
 318:Core/Src/freertos.c **** 
 319:Core/Src/freertos.c ****             case SettingPage:
 320:Core/Src/freertos.c ****               SettingPageHandler(x, y);
 321:Core/Src/freertos.c ****               break;
 322:Core/Src/freertos.c **** 
 323:Core/Src/freertos.c ****             case InfoPage:
 324:Core/Src/freertos.c ****               InfoPageHandler(x, y);
 325:Core/Src/freertos.c ****               break;
 326:Core/Src/freertos.c **** 
 327:Core/Src/freertos.c ****             default:
 328:Core/Src/freertos.c ****               break;
 329:Core/Src/freertos.c ****           }
 330:Core/Src/freertos.c ****         }
 331:Core/Src/freertos.c **** 
 332:Core/Src/freertos.c ****         osTimerStart(TimeoutHandle, LCD_TimeOut);
 333:Core/Src/freertos.c ****         
 334:Core/Src/freertos.c ****       }
 335:Core/Src/freertos.c ****       
 336:Core/Src/freertos.c ****     }
 337:Core/Src/freertos.c ****     //osSemaphoreRelease(BinarySemHandle);
 338:Core/Src/freertos.c ****   }
 339:Core/Src/freertos.c ****   /* USER CODE END IRQ_Task */
 340:Core/Src/freertos.c **** }
ARM GAS  C:\Users\Vento\AppData\Local\Temp\ccxXLphG.s 			page 8


 341:Core/Src/freertos.c **** 
 342:Core/Src/freertos.c **** /* LED_Indicator function */
 343:Core/Src/freertos.c **** void LED_Indicator(void *argument)
 344:Core/Src/freertos.c **** {
 345:Core/Src/freertos.c ****   /* USER CODE BEGIN LED_Indicator */
 346:Core/Src/freertos.c **** 
 347:Core/Src/freertos.c ****   HAL_GPIO_TogglePin(LED_GPIO_Port, LED_Pin);
 348:Core/Src/freertos.c **** 
 349:Core/Src/freertos.c ****   if (Channel_1.state == true)
 350:Core/Src/freertos.c ****   {
 351:Core/Src/freertos.c ****     Channel01.time++;
 352:Core/Src/freertos.c ****     if (currentPage == InfoPage)
 353:Core/Src/freertos.c ****     {
 354:Core/Src/freertos.c ****       char t_temp[9];
 355:Core/Src/freertos.c ****       intToTime(Channel01.time, t_temp);
 356:Core/Src/freertos.c ****       ILI9341_WriteString(90, 80, t_temp, Font_7x10, ILI9341_GREEN, ILI9341_BLACK);
 357:Core/Src/freertos.c ****       
 358:Core/Src/freertos.c ****       if((osMutexWait(Mutex01Handle, portMAX_DELAY) == osOK) && (currentPage == InfoPage))
 359:Core/Src/freertos.c ****       {
 360:Core/Src/freertos.c ****         for(uint8_t i = 0; i < 120; i++)
 361:Core/Src/freertos.c ****         {
 362:Core/Src/freertos.c ****           ILI9341_DrawLine(191+i, 20, 191+i, 100, ILI9341_BLACK);
 363:Core/Src/freertos.c ****           if (i < 3)
 364:Core/Src/freertos.c ****           {
 365:Core/Src/freertos.c ****             ILI9341_DrawLine(190, 20, 192, 22, ILI9341_WHITE);
 366:Core/Src/freertos.c ****           }
 367:Core/Src/freertos.c ****           ILI9341_DrawPixel(191+i, 100, ILI9341_WHITE);
 368:Core/Src/freertos.c ****           ILI9341_DrawPixel(191+i, 100-Channel01.history[i], ILI9341_BLUE);
 369:Core/Src/freertos.c ****         }
 370:Core/Src/freertos.c ****         osMutexRelease(Mutex01Handle);
 371:Core/Src/freertos.c ****       }
 372:Core/Src/freertos.c ****       
 373:Core/Src/freertos.c ****     }
 374:Core/Src/freertos.c **** 
 375:Core/Src/freertos.c ****     if (Channel01.time > 120)
 376:Core/Src/freertos.c ****     {
 377:Core/Src/freertos.c ****       //make room for new data
 378:Core/Src/freertos.c ****       for(uint8_t i = 0; i < 119; i++)
 379:Core/Src/freertos.c ****       {
 380:Core/Src/freertos.c ****         Channel01.history[i] = Channel01.history[i+1];
 381:Core/Src/freertos.c ****       }
 382:Core/Src/freertos.c ****       //new data into 119 slot
 383:Core/Src/freertos.c ****       Channel01.history[119] = 2 * (uint8_t)( 10 * sin((2*3.148*Channel01.time)/60) + 20);
 384:Core/Src/freertos.c ****     }
 385:Core/Src/freertos.c ****     else
 386:Core/Src/freertos.c ****     {
 387:Core/Src/freertos.c ****       //new data into the next slot
 388:Core/Src/freertos.c ****       Channel01.history[Channel01.time-1] = 2 * (uint8_t)( 10 * sin((2*3.148*Channel01.time)/60) + 
 389:Core/Src/freertos.c ****     }
 390:Core/Src/freertos.c ****   }
 391:Core/Src/freertos.c **** 
 392:Core/Src/freertos.c ****   if (Channel_2.state == true)
 393:Core/Src/freertos.c ****   {
 394:Core/Src/freertos.c ****     Channel02.time++;
 395:Core/Src/freertos.c ****     if (currentPage == InfoPage)
 396:Core/Src/freertos.c ****     {
 397:Core/Src/freertos.c ****       char t_temp[9];
ARM GAS  C:\Users\Vento\AppData\Local\Temp\ccxXLphG.s 			page 9


 398:Core/Src/freertos.c ****       intToTime(Channel02.time, t_temp);
 399:Core/Src/freertos.c ****       ILI9341_WriteString(90, 170, t_temp, Font_7x10, ILI9341_GREEN, ILI9341_BLACK);
 400:Core/Src/freertos.c ****       if((osMutexWait(Mutex01Handle, portMAX_DELAY) == osOK) && (currentPage == InfoPage))
 401:Core/Src/freertos.c ****       {
 402:Core/Src/freertos.c ****         for(uint8_t i = 0; i < 120; i++)
 403:Core/Src/freertos.c ****         {
 404:Core/Src/freertos.c ****           ILI9341_DrawLine(191+i, 140, 191+i, 220, ILI9341_BLACK);
 405:Core/Src/freertos.c ****           if (i < 3)
 406:Core/Src/freertos.c ****           {
 407:Core/Src/freertos.c ****             ILI9341_DrawLine(190, 140, 192, 142, ILI9341_WHITE);
 408:Core/Src/freertos.c ****           }
 409:Core/Src/freertos.c ****           ILI9341_DrawPixel(191+i, 220, ILI9341_WHITE);
 410:Core/Src/freertos.c ****           ILI9341_DrawPixel(191+i, 220-Channel02.history[i], ILI9341_RED);
 411:Core/Src/freertos.c ****         }
 412:Core/Src/freertos.c ****         osMutexRelease(Mutex01Handle);
 413:Core/Src/freertos.c ****       }
 414:Core/Src/freertos.c ****       
 415:Core/Src/freertos.c ****     }
 416:Core/Src/freertos.c **** 
 417:Core/Src/freertos.c ****     if (Channel02.time > 120)
 418:Core/Src/freertos.c ****     {
 419:Core/Src/freertos.c ****       //make room for new data
 420:Core/Src/freertos.c ****       for(uint8_t i = 0; i < 119; i++)
 421:Core/Src/freertos.c ****       {
 422:Core/Src/freertos.c ****         Channel02.history[i] = Channel02.history[i+1];
 423:Core/Src/freertos.c ****       }
 424:Core/Src/freertos.c ****       //new data into 119 slot
 425:Core/Src/freertos.c ****       Channel02.history[119] = 2 * (uint8_t)( 10 * cos((2*3.148*Channel02.time)/60) + 20);
 426:Core/Src/freertos.c ****     }
 427:Core/Src/freertos.c ****     else
 428:Core/Src/freertos.c ****     {
 429:Core/Src/freertos.c ****       //new data into the next slot
 430:Core/Src/freertos.c ****       Channel02.history[Channel02.time-1] = 2 * (uint8_t)( 10 * cos((2*3.148*Channel02.time)/60) + 
 431:Core/Src/freertos.c ****     }
 432:Core/Src/freertos.c ****   }
 433:Core/Src/freertos.c ****   /* USER CODE END LED_Indicator */
 434:Core/Src/freertos.c **** }
 435:Core/Src/freertos.c **** 
 436:Core/Src/freertos.c **** /* LCD_Timeout function */
 437:Core/Src/freertos.c **** void LCD_Timeout(void *argument)
 438:Core/Src/freertos.c **** {
  62              		.loc 1 438 1 view -0
  63              		.cfi_startproc
  64              		@ args = 0, pretend = 0, frame = 0
  65              		@ frame_needed = 0, uses_anonymous_args = 0
  66              		.loc 1 438 1 is_stmt 0 view .LVU6
  67 0000 08B5     		push	{r3, lr}
  68              	.LCFI1:
  69              		.cfi_def_cfa_offset 8
  70              		.cfi_offset 3, -8
  71              		.cfi_offset 14, -4
 439:Core/Src/freertos.c ****   /* USER CODE BEGIN LCD_Timeout */
 440:Core/Src/freertos.c **** 
 441:Core/Src/freertos.c ****   HAL_GPIO_WritePin(LCD_LED_GPIO_Port, LCD_LED_Pin, 0);
  72              		.loc 1 441 3 is_stmt 1 view .LVU7
  73 0002 0022     		movs	r2, #0
  74 0004 4FF40041 		mov	r1, #32768
ARM GAS  C:\Users\Vento\AppData\Local\Temp\ccxXLphG.s 			page 10


  75 0008 0348     		ldr	r0, .L6
  76              	.LVL4:
  77              		.loc 1 441 3 is_stmt 0 view .LVU8
  78 000a FFF7FEFF 		bl	HAL_GPIO_WritePin
  79              	.LVL5:
 442:Core/Src/freertos.c ****   DeviceState = SLEEPING;
  80              		.loc 1 442 3 is_stmt 1 view .LVU9
  81              		.loc 1 442 15 is_stmt 0 view .LVU10
  82 000e 034B     		ldr	r3, .L6+4
  83 0010 0022     		movs	r2, #0
  84 0012 1A70     		strb	r2, [r3]
 443:Core/Src/freertos.c **** 
 444:Core/Src/freertos.c ****   /* USER CODE END LCD_Timeout */
 445:Core/Src/freertos.c **** }
  85              		.loc 1 445 1 view .LVU11
  86 0014 08BD     		pop	{r3, pc}
  87              	.L7:
  88 0016 00BF     		.align	2
  89              	.L6:
  90 0018 00080140 		.word	1073809408
  91 001c 00000000 		.word	.LANCHOR0
  92              		.cfi_endproc
  93              	.LFE74:
  95              		.section	.text.MX_FREERTOS_Init,"ax",%progbits
  96              		.align	1
  97              		.global	MX_FREERTOS_Init
  98              		.syntax unified
  99              		.thumb
 100              		.thumb_func
 101              		.fpu softvfp
 103              	MX_FREERTOS_Init:
 104              	.LFB69:
 155:Core/Src/freertos.c ****   /* USER CODE BEGIN Init */
 105              		.loc 1 155 29 is_stmt 1 view -0
 106              		.cfi_startproc
 107              		@ args = 0, pretend = 0, frame = 0
 108              		@ frame_needed = 0, uses_anonymous_args = 0
 109 0000 08B5     		push	{r3, lr}
 110              	.LCFI2:
 111              		.cfi_def_cfa_offset 8
 112              		.cfi_offset 3, -8
 113              		.cfi_offset 14, -4
 161:Core/Src/freertos.c **** 
 114              		.loc 1 161 3 view .LVU13
 161:Core/Src/freertos.c **** 
 115              		.loc 1 161 19 is_stmt 0 view .LVU14
 116 0002 1948     		ldr	r0, .L10
 117 0004 FFF7FEFF 		bl	osMutexNew
 118              	.LVL6:
 161:Core/Src/freertos.c **** 
 119              		.loc 1 161 17 view .LVU15
 120 0008 184B     		ldr	r3, .L10+4
 121 000a 1860     		str	r0, [r3]
 169:Core/Src/freertos.c **** 
 122              		.loc 1 169 3 is_stmt 1 view .LVU16
 169:Core/Src/freertos.c **** 
 123              		.loc 1 169 21 is_stmt 0 view .LVU17
ARM GAS  C:\Users\Vento\AppData\Local\Temp\ccxXLphG.s 			page 11


 124 000c 184A     		ldr	r2, .L10+8
 125 000e 0121     		movs	r1, #1
 126 0010 0846     		mov	r0, r1
 127 0012 FFF7FEFF 		bl	osSemaphoreNew
 128              	.LVL7:
 169:Core/Src/freertos.c **** 
 129              		.loc 1 169 19 view .LVU18
 130 0016 174B     		ldr	r3, .L10+12
 131 0018 1860     		str	r0, [r3]
 177:Core/Src/freertos.c **** 
 132              		.loc 1 177 3 is_stmt 1 view .LVU19
 177:Core/Src/freertos.c **** 
 133              		.loc 1 177 19 is_stmt 0 view .LVU20
 134 001a 174B     		ldr	r3, .L10+16
 135 001c 0022     		movs	r2, #0
 136 001e 0121     		movs	r1, #1
 137 0020 1648     		ldr	r0, .L10+20
 138 0022 FFF7FEFF 		bl	osTimerNew
 139              	.LVL8:
 177:Core/Src/freertos.c **** 
 140              		.loc 1 177 17 view .LVU21
 141 0026 164B     		ldr	r3, .L10+24
 142 0028 1860     		str	r0, [r3]
 180:Core/Src/freertos.c **** 
 143              		.loc 1 180 3 is_stmt 1 view .LVU22
 180:Core/Src/freertos.c **** 
 144              		.loc 1 180 19 is_stmt 0 view .LVU23
 145 002a 164B     		ldr	r3, .L10+28
 146 002c 0022     		movs	r2, #0
 147 002e 1146     		mov	r1, r2
 148 0030 1548     		ldr	r0, .L10+32
 149 0032 FFF7FEFF 		bl	osTimerNew
 150              	.LVL9:
 180:Core/Src/freertos.c **** 
 151              		.loc 1 180 17 view .LVU24
 152 0036 154B     		ldr	r3, .L10+36
 153 0038 1860     		str	r0, [r3]
 192:Core/Src/freertos.c **** 
 154              		.loc 1 192 3 is_stmt 1 view .LVU25
 192:Core/Src/freertos.c **** 
 155              		.loc 1 192 21 is_stmt 0 view .LVU26
 156 003a 154A     		ldr	r2, .L10+40
 157 003c 0021     		movs	r1, #0
 158 003e 1548     		ldr	r0, .L10+44
 159 0040 FFF7FEFF 		bl	osThreadNew
 160              	.LVL10:
 192:Core/Src/freertos.c **** 
 161              		.loc 1 192 19 view .LVU27
 162 0044 144B     		ldr	r3, .L10+48
 163 0046 1860     		str	r0, [r3]
 195:Core/Src/freertos.c **** 
 164              		.loc 1 195 3 is_stmt 1 view .LVU28
 195:Core/Src/freertos.c **** 
 165              		.loc 1 195 17 is_stmt 0 view .LVU29
 166 0048 144A     		ldr	r2, .L10+52
 167 004a 0021     		movs	r1, #0
 168 004c 1448     		ldr	r0, .L10+56
ARM GAS  C:\Users\Vento\AppData\Local\Temp\ccxXLphG.s 			page 12


 169 004e FFF7FEFF 		bl	osThreadNew
 170              	.LVL11:
 195:Core/Src/freertos.c **** 
 171              		.loc 1 195 15 view .LVU30
 172 0052 144B     		ldr	r3, .L10+60
 173 0054 1860     		str	r0, [r3]
 198:Core/Src/freertos.c **** 
 174              		.loc 1 198 3 is_stmt 1 view .LVU31
 198:Core/Src/freertos.c **** 
 175              		.loc 1 198 18 is_stmt 0 view .LVU32
 176 0056 144A     		ldr	r2, .L10+64
 177 0058 0021     		movs	r1, #0
 178 005a 1448     		ldr	r0, .L10+68
 179 005c FFF7FEFF 		bl	osThreadNew
 180              	.LVL12:
 198:Core/Src/freertos.c **** 
 181              		.loc 1 198 16 view .LVU33
 182 0060 134B     		ldr	r3, .L10+72
 183 0062 1860     		str	r0, [r3]
 208:Core/Src/freertos.c **** 
 184              		.loc 1 208 1 view .LVU34
 185 0064 08BD     		pop	{r3, pc}
 186              	.L11:
 187 0066 00BF     		.align	2
 188              	.L10:
 189 0068 00000000 		.word	.LANCHOR1
 190 006c 00000000 		.word	.LANCHOR2
 191 0070 00000000 		.word	.LANCHOR3
 192 0074 00000000 		.word	.LANCHOR4
 193 0078 00000000 		.word	.LANCHOR5
 194 007c 00000000 		.word	LED_Indicator
 195 0080 00000000 		.word	.LANCHOR6
 196 0084 00000000 		.word	.LANCHOR7
 197 0088 00000000 		.word	LCD_Timeout
 198 008c 00000000 		.word	.LANCHOR8
 199 0090 00000000 		.word	.LANCHOR9
 200 0094 00000000 		.word	Display_Task
 201 0098 00000000 		.word	.LANCHOR10
 202 009c 00000000 		.word	.LANCHOR11
 203 00a0 00000000 		.word	PLC_Task
 204 00a4 00000000 		.word	.LANCHOR12
 205 00a8 00000000 		.word	.LANCHOR13
 206 00ac 00000000 		.word	IRQ_Task
 207 00b0 00000000 		.word	.LANCHOR14
 208              		.cfi_endproc
 209              	.LFE69:
 211              		.section	.text.HAL_GPIO_EXTI_Callback,"ax",%progbits
 212              		.align	1
 213              		.global	HAL_GPIO_EXTI_Callback
 214              		.syntax unified
 215              		.thumb
 216              		.thumb_func
 217              		.fpu softvfp
 219              	HAL_GPIO_EXTI_Callback:
 220              	.LVL13:
 221              	.LFB75:
 446:Core/Src/freertos.c **** 
ARM GAS  C:\Users\Vento\AppData\Local\Temp\ccxXLphG.s 			page 13


 447:Core/Src/freertos.c **** /* Private application code --------------------------------------------------*/
 448:Core/Src/freertos.c **** /* USER CODE BEGIN Application */
 449:Core/Src/freertos.c **** 
 450:Core/Src/freertos.c **** void HAL_GPIO_EXTI_Callback(uint16_t GPIO_Pin)
 451:Core/Src/freertos.c **** {
 222              		.loc 1 451 1 is_stmt 1 view -0
 223              		.cfi_startproc
 224              		@ args = 0, pretend = 0, frame = 0
 225              		@ frame_needed = 0, uses_anonymous_args = 0
 452:Core/Src/freertos.c ****   if ((GPIO_Pin == TOUCH_IRQ_Pin))
 226              		.loc 1 452 3 view .LVU36
 227              		.loc 1 452 6 is_stmt 0 view .LVU37
 228 0000 0828     		cmp	r0, #8
 229 0002 00D0     		beq	.L18
 230 0004 7047     		bx	lr
 231              	.L18:
 451:Core/Src/freertos.c ****   if ((GPIO_Pin == TOUCH_IRQ_Pin))
 232              		.loc 1 451 1 view .LVU38
 233 0006 08B5     		push	{r3, lr}
 234              	.LCFI3:
 235              		.cfi_def_cfa_offset 8
 236              		.cfi_offset 3, -8
 237              		.cfi_offset 14, -4
 453:Core/Src/freertos.c ****   {
 454:Core/Src/freertos.c ****     osSemaphoreRelease(BinarySemHandle);
 238              		.loc 1 454 5 is_stmt 1 view .LVU39
 239 0008 024B     		ldr	r3, .L19
 240 000a 1868     		ldr	r0, [r3]
 241              	.LVL14:
 242              		.loc 1 454 5 is_stmt 0 view .LVU40
 243 000c FFF7FEFF 		bl	osSemaphoreRelease
 244              	.LVL15:
 455:Core/Src/freertos.c ****   }
 456:Core/Src/freertos.c **** }
 245              		.loc 1 456 1 view .LVU41
 246 0010 08BD     		pop	{r3, pc}
 247              	.L20:
 248 0012 00BF     		.align	2
 249              	.L19:
 250 0014 00000000 		.word	.LANCHOR4
 251              		.cfi_endproc
 252              	.LFE75:
 254              		.section	.rodata.ControlPageDisplay.str1.4,"aMS",%progbits,1
 255              		.align	2
 256              	.LC0:
 257 0000 4348414E 		.ascii	"CHANNEL 1\000"
 257      4E454C20 
 257      3100
 258 000a 0000     		.align	2
 259              	.LC1:
 260 000c 4348414E 		.ascii	"CHANNEL 2\000"
 260      4E454C20 
 260      3200
 261 0016 0000     		.align	2
 262              	.LC2:
 263 0018 4F4E00   		.ascii	"ON\000"
 264 001b 00       		.align	2
ARM GAS  C:\Users\Vento\AppData\Local\Temp\ccxXLphG.s 			page 14


 265              	.LC3:
 266 001c 4F464600 		.ascii	"OFF\000"
 267              		.align	2
 268              	.LC4:
 269 0020 53455454 		.ascii	"SETTING\000"
 269      494E4700 
 270              		.align	2
 271              	.LC5:
 272 0028 3E3E00   		.ascii	">>\000"
 273              		.section	.text.ControlPageDisplay,"ax",%progbits
 274              		.align	1
 275              		.global	ControlPageDisplay
 276              		.syntax unified
 277              		.thumb
 278              		.thumb_func
 279              		.fpu softvfp
 281              	ControlPageDisplay:
 282              	.LFB76:
 457:Core/Src/freertos.c **** 
 458:Core/Src/freertos.c **** void ControlPageDisplay(void)
 459:Core/Src/freertos.c **** {
 283              		.loc 1 459 1 is_stmt 1 view -0
 284              		.cfi_startproc
 285              		@ args = 0, pretend = 0, frame = 0
 286              		@ frame_needed = 0, uses_anonymous_args = 0
 287 0000 70B5     		push	{r4, r5, r6, lr}
 288              	.LCFI4:
 289              		.cfi_def_cfa_offset 16
 290              		.cfi_offset 4, -16
 291              		.cfi_offset 5, -12
 292              		.cfi_offset 6, -8
 293              		.cfi_offset 14, -4
 294 0002 84B0     		sub	sp, sp, #16
 295              	.LCFI5:
 296              		.cfi_def_cfa_offset 32
 460:Core/Src/freertos.c ****   ILI9341_FillScreen(ILI9341_BLACK);
 297              		.loc 1 460 3 view .LVU43
 298 0004 0020     		movs	r0, #0
 299 0006 FFF7FEFF 		bl	ILI9341_FillScreen
 300              	.LVL16:
 461:Core/Src/freertos.c **** 
 462:Core/Src/freertos.c ****   ILI9341_WriteString(34, 30, "CHANNEL 1", Font_11x18, ILI9341_WHITE, ILI9341_BLACK);
 301              		.loc 1 462 3 view .LVU44
 302 000a 644C     		ldr	r4, .L27
 303 000c 0026     		movs	r6, #0
 304 000e 0296     		str	r6, [sp, #8]
 305 0010 4FF6FF75 		movw	r5, #65535
 306 0014 0195     		str	r5, [sp, #4]
 307 0016 6368     		ldr	r3, [r4, #4]
 308 0018 0093     		str	r3, [sp]
 309 001a 2368     		ldr	r3, [r4]
 310 001c 604A     		ldr	r2, .L27+4
 311 001e 1E21     		movs	r1, #30
 312 0020 2220     		movs	r0, #34
 313 0022 FFF7FEFF 		bl	ILI9341_WriteString
 314              	.LVL17:
 463:Core/Src/freertos.c ****   ILI9341_WriteString(194, 30, "CHANNEL 2", Font_11x18, ILI9341_WHITE, ILI9341_BLACK);
ARM GAS  C:\Users\Vento\AppData\Local\Temp\ccxXLphG.s 			page 15


 315              		.loc 1 463 3 view .LVU45
 316 0026 0296     		str	r6, [sp, #8]
 317 0028 0195     		str	r5, [sp, #4]
 318 002a 6368     		ldr	r3, [r4, #4]
 319 002c 0093     		str	r3, [sp]
 320 002e 2368     		ldr	r3, [r4]
 321 0030 5C4A     		ldr	r2, .L27+8
 322 0032 1E21     		movs	r1, #30
 323 0034 C220     		movs	r0, #194
 324 0036 FFF7FEFF 		bl	ILI9341_WriteString
 325              	.LVL18:
 464:Core/Src/freertos.c **** 
 465:Core/Src/freertos.c ****   if (Channel_1.state == true)
 326              		.loc 1 465 3 view .LVU46
 327              		.loc 1 465 16 is_stmt 0 view .LVU47
 328 003a 5B4B     		ldr	r3, .L27+12
 329 003c 1B7B     		ldrb	r3, [r3, #12]	@ zero_extendqisi2
 330              		.loc 1 465 6 view .LVU48
 331 003e 002B     		cmp	r3, #0
 332 0040 76D0     		beq	.L22
 466:Core/Src/freertos.c ****   {
 467:Core/Src/freertos.c ****     ILI9341_FillCircle(Channel_1.pos_x, Channel_1.pos_y, Channel_1.shape_r, ILI9341_GREEN);
 333              		.loc 1 467 5 is_stmt 1 view .LVU49
 334 0042 594C     		ldr	r4, .L27+12
 335 0044 4FF4FC63 		mov	r3, #2016
 336 0048 A288     		ldrh	r2, [r4, #4]
 337 004a 6188     		ldrh	r1, [r4, #2]
 338 004c 2088     		ldrh	r0, [r4]
 339 004e FFF7FEFF 		bl	ILI9341_FillCircle
 340              	.LVL19:
 468:Core/Src/freertos.c ****     ILI9341_WriteString(Channel_1.pos_x-10, Channel_1.pos_y-5, "ON", Font_11x18, ILI9341_BLACK, ILI
 341              		.loc 1 468 5 view .LVU50
 342              		.loc 1 468 34 is_stmt 0 view .LVU51
 343 0052 2088     		ldrh	r0, [r4]
 344              		.loc 1 468 54 view .LVU52
 345 0054 6188     		ldrh	r1, [r4, #2]
 346              		.loc 1 468 5 view .LVU53
 347 0056 514B     		ldr	r3, .L27
 348 0058 0539     		subs	r1, r1, #5
 349 005a 0A38     		subs	r0, r0, #10
 350 005c 4FF4FC62 		mov	r2, #2016
 351 0060 0292     		str	r2, [sp, #8]
 352 0062 0196     		str	r6, [sp, #4]
 353 0064 5A68     		ldr	r2, [r3, #4]
 354 0066 0092     		str	r2, [sp]
 355 0068 1B68     		ldr	r3, [r3]
 356 006a 504A     		ldr	r2, .L27+16
 357 006c 89B2     		uxth	r1, r1
 358 006e 80B2     		uxth	r0, r0
 359 0070 FFF7FEFF 		bl	ILI9341_WriteString
 360              	.LVL20:
 361              	.L23:
 469:Core/Src/freertos.c ****   }
 470:Core/Src/freertos.c ****   else
 471:Core/Src/freertos.c ****   {
 472:Core/Src/freertos.c ****     ILI9341_FillCircle(Channel_1.pos_x, Channel_1.pos_y, Channel_1.shape_r, ILI9341_RED);
 473:Core/Src/freertos.c ****     ILI9341_WriteString(Channel_1.pos_x-15, Channel_1.pos_y-5, "OFF", Font_11x18, ILI9341_BLACK, IL
ARM GAS  C:\Users\Vento\AppData\Local\Temp\ccxXLphG.s 			page 16


 474:Core/Src/freertos.c ****   }
 475:Core/Src/freertos.c **** 
 476:Core/Src/freertos.c ****   if (Channel_2.state == true)
 362              		.loc 1 476 3 is_stmt 1 view .LVU54
 363              		.loc 1 476 16 is_stmt 0 view .LVU55
 364 0074 4E4B     		ldr	r3, .L27+20
 365 0076 1B7B     		ldrb	r3, [r3, #12]	@ zero_extendqisi2
 366              		.loc 1 476 6 view .LVU56
 367 0078 002B     		cmp	r3, #0
 368 007a 74D0     		beq	.L24
 477:Core/Src/freertos.c ****   {
 478:Core/Src/freertos.c ****     ILI9341_FillCircle(Channel_2.pos_x, Channel_2.pos_y, Channel_2.shape_r, ILI9341_GREEN);
 369              		.loc 1 478 5 is_stmt 1 view .LVU57
 370 007c 4C4C     		ldr	r4, .L27+20
 371 007e 4FF4FC63 		mov	r3, #2016
 372 0082 A288     		ldrh	r2, [r4, #4]
 373 0084 6188     		ldrh	r1, [r4, #2]
 374 0086 2088     		ldrh	r0, [r4]
 375 0088 FFF7FEFF 		bl	ILI9341_FillCircle
 376              	.LVL21:
 479:Core/Src/freertos.c ****     ILI9341_WriteString(Channel_2.pos_x-10, Channel_2.pos_y-5, "ON", Font_11x18, ILI9341_BLACK, ILI
 377              		.loc 1 479 5 view .LVU58
 378              		.loc 1 479 34 is_stmt 0 view .LVU59
 379 008c 2088     		ldrh	r0, [r4]
 380              		.loc 1 479 54 view .LVU60
 381 008e 6188     		ldrh	r1, [r4, #2]
 382              		.loc 1 479 5 view .LVU61
 383 0090 424B     		ldr	r3, .L27
 384 0092 0539     		subs	r1, r1, #5
 385 0094 0A38     		subs	r0, r0, #10
 386 0096 4FF4FC62 		mov	r2, #2016
 387 009a 0292     		str	r2, [sp, #8]
 388 009c 0022     		movs	r2, #0
 389 009e 0192     		str	r2, [sp, #4]
 390 00a0 5A68     		ldr	r2, [r3, #4]
 391 00a2 0092     		str	r2, [sp]
 392 00a4 1B68     		ldr	r3, [r3]
 393 00a6 414A     		ldr	r2, .L27+16
 394 00a8 89B2     		uxth	r1, r1
 395 00aa 80B2     		uxth	r0, r0
 396 00ac FFF7FEFF 		bl	ILI9341_WriteString
 397              	.LVL22:
 398              	.L25:
 480:Core/Src/freertos.c ****   }
 481:Core/Src/freertos.c ****   else
 482:Core/Src/freertos.c ****   {
 483:Core/Src/freertos.c ****     ILI9341_FillCircle(Channel_2.pos_x, Channel_2.pos_y, Channel_2.shape_r, ILI9341_RED);
 484:Core/Src/freertos.c ****     ILI9341_WriteString(Channel_2.pos_x-15, Channel_2.pos_y-5, "OFF", Font_11x18, ILI9341_BLACK, IL
 485:Core/Src/freertos.c ****   }
 486:Core/Src/freertos.c **** 
 487:Core/Src/freertos.c ****   ILI9341_FillRectangle(Control_Setting.pos_x - (Control_Setting.shape_w/2), 
 399              		.loc 1 487 3 is_stmt 1 view .LVU62
 400              		.loc 1 487 40 is_stmt 0 view .LVU63
 401 00b0 404C     		ldr	r4, .L27+24
 402 00b2 2088     		ldrh	r0, [r4]
 403              		.loc 1 487 65 view .LVU64
 404 00b4 E288     		ldrh	r2, [r4, #6]
ARM GAS  C:\Users\Vento\AppData\Local\Temp\ccxXLphG.s 			page 17


 488:Core/Src/freertos.c ****                         Control_Setting.pos_y - (Control_Setting.shape_h/2), 
 405              		.loc 1 488 40 view .LVU65
 406 00b6 6188     		ldrh	r1, [r4, #2]
 407              		.loc 1 488 65 view .LVU66
 408 00b8 2389     		ldrh	r3, [r4, #8]
 487:Core/Src/freertos.c ****                         Control_Setting.pos_y - (Control_Setting.shape_h/2), 
 409              		.loc 1 487 3 view .LVU67
 410 00ba A1EB5301 		sub	r1, r1, r3, lsr #1
 411 00be A0EB5200 		sub	r0, r0, r2, lsr #1
 412 00c2 6589     		ldrh	r5, [r4, #10]
 413 00c4 0095     		str	r5, [sp]
 414 00c6 89B2     		uxth	r1, r1
 415 00c8 80B2     		uxth	r0, r0
 416 00ca FFF7FEFF 		bl	ILI9341_FillRectangle
 417              	.LVL23:
 489:Core/Src/freertos.c ****                         Control_Setting.shape_w, 
 490:Core/Src/freertos.c ****                         Control_Setting.shape_h, 
 491:Core/Src/freertos.c ****                         Control_Setting.color);
 492:Core/Src/freertos.c ****   ILI9341_WriteString(Control_Setting.pos_x - (Control_Setting.shape_w/2) + 12, 
 418              		.loc 1 492 3 is_stmt 1 view .LVU68
 419              		.loc 1 492 38 is_stmt 0 view .LVU69
 420 00ce 2088     		ldrh	r0, [r4]
 421              		.loc 1 492 63 view .LVU70
 422 00d0 E388     		ldrh	r3, [r4, #6]
 423              		.loc 1 492 45 view .LVU71
 424 00d2 A0EB5300 		sub	r0, r0, r3, lsr #1
 425 00d6 80B2     		uxth	r0, r0
 493:Core/Src/freertos.c ****                       Control_Setting.pos_y - (Control_Setting.shape_h/2) + 7, 
 426              		.loc 1 493 38 view .LVU72
 427 00d8 6188     		ldrh	r1, [r4, #2]
 428              		.loc 1 493 63 view .LVU73
 429 00da 2389     		ldrh	r3, [r4, #8]
 430              		.loc 1 493 45 view .LVU74
 431 00dc A1EB5301 		sub	r1, r1, r3, lsr #1
 432 00e0 89B2     		uxth	r1, r1
 492:Core/Src/freertos.c ****                       Control_Setting.pos_y - (Control_Setting.shape_h/2) + 7, 
 433              		.loc 1 492 3 view .LVU75
 434 00e2 2E4D     		ldr	r5, .L27
 435 00e4 0731     		adds	r1, r1, #7
 436 00e6 0C30     		adds	r0, r0, #12
 437 00e8 6389     		ldrh	r3, [r4, #10]
 438 00ea 0293     		str	r3, [sp, #8]
 439 00ec 0026     		movs	r6, #0
 440 00ee 0196     		str	r6, [sp, #4]
 441 00f0 6B68     		ldr	r3, [r5, #4]
 442 00f2 0093     		str	r3, [sp]
 443 00f4 2B68     		ldr	r3, [r5]
 444 00f6 304A     		ldr	r2, .L27+28
 445 00f8 89B2     		uxth	r1, r1
 446 00fa 80B2     		uxth	r0, r0
 447 00fc FFF7FEFF 		bl	ILI9341_WriteString
 448              	.LVL24:
 494:Core/Src/freertos.c ****                       "SETTING", 
 495:Core/Src/freertos.c ****                       Font_11x18, 
 496:Core/Src/freertos.c ****                       ILI9341_BLACK, 
 497:Core/Src/freertos.c ****                       Control_Setting.color);
 498:Core/Src/freertos.c **** 
ARM GAS  C:\Users\Vento\AppData\Local\Temp\ccxXLphG.s 			page 18


 499:Core/Src/freertos.c ****   ILI9341_FillCircle(Control_Info.pos_x, Control_Info.pos_y, Control_Info.shape_r, Control_Info.col
 449              		.loc 1 499 3 is_stmt 1 view .LVU76
 450 0100 2E4C     		ldr	r4, .L27+32
 451 0102 6389     		ldrh	r3, [r4, #10]
 452 0104 A288     		ldrh	r2, [r4, #4]
 453 0106 6188     		ldrh	r1, [r4, #2]
 454 0108 2088     		ldrh	r0, [r4]
 455 010a FFF7FEFF 		bl	ILI9341_FillCircle
 456              	.LVL25:
 500:Core/Src/freertos.c ****   ILI9341_WriteString(Control_Info.pos_x-10, Control_Info.pos_y-7, ">>", Font_11x18, ILI9341_BLACK,
 457              		.loc 1 500 3 view .LVU77
 458              		.loc 1 500 35 is_stmt 0 view .LVU78
 459 010e 2088     		ldrh	r0, [r4]
 460              		.loc 1 500 58 view .LVU79
 461 0110 6188     		ldrh	r1, [r4, #2]
 462              		.loc 1 500 3 view .LVU80
 463 0112 0739     		subs	r1, r1, #7
 464 0114 0A38     		subs	r0, r0, #10
 465 0116 6389     		ldrh	r3, [r4, #10]
 466 0118 0293     		str	r3, [sp, #8]
 467 011a 0196     		str	r6, [sp, #4]
 468 011c 6B68     		ldr	r3, [r5, #4]
 469 011e 0093     		str	r3, [sp]
 470 0120 2B68     		ldr	r3, [r5]
 471 0122 274A     		ldr	r2, .L27+36
 472 0124 89B2     		uxth	r1, r1
 473 0126 80B2     		uxth	r0, r0
 474 0128 FFF7FEFF 		bl	ILI9341_WriteString
 475              	.LVL26:
 501:Core/Src/freertos.c **** 
 502:Core/Src/freertos.c **** }
 476              		.loc 1 502 1 view .LVU81
 477 012c 04B0     		add	sp, sp, #16
 478              	.LCFI6:
 479              		.cfi_remember_state
 480              		.cfi_def_cfa_offset 16
 481              		@ sp needed
 482 012e 70BD     		pop	{r4, r5, r6, pc}
 483              	.L22:
 484              	.LCFI7:
 485              		.cfi_restore_state
 472:Core/Src/freertos.c ****     ILI9341_WriteString(Channel_1.pos_x-15, Channel_1.pos_y-5, "OFF", Font_11x18, ILI9341_BLACK, IL
 486              		.loc 1 472 5 is_stmt 1 view .LVU82
 487 0130 1D4C     		ldr	r4, .L27+12
 488 0132 4FF47843 		mov	r3, #63488
 489 0136 A288     		ldrh	r2, [r4, #4]
 490 0138 6188     		ldrh	r1, [r4, #2]
 491 013a 2088     		ldrh	r0, [r4]
 492 013c FFF7FEFF 		bl	ILI9341_FillCircle
 493              	.LVL27:
 473:Core/Src/freertos.c ****   }
 494              		.loc 1 473 5 view .LVU83
 473:Core/Src/freertos.c ****   }
 495              		.loc 1 473 34 is_stmt 0 view .LVU84
 496 0140 2088     		ldrh	r0, [r4]
 473:Core/Src/freertos.c ****   }
 497              		.loc 1 473 54 view .LVU85
ARM GAS  C:\Users\Vento\AppData\Local\Temp\ccxXLphG.s 			page 19


 498 0142 6188     		ldrh	r1, [r4, #2]
 473:Core/Src/freertos.c ****   }
 499              		.loc 1 473 5 view .LVU86
 500 0144 154B     		ldr	r3, .L27
 501 0146 0539     		subs	r1, r1, #5
 502 0148 0F38     		subs	r0, r0, #15
 503 014a 4FF47842 		mov	r2, #63488
 504 014e 0292     		str	r2, [sp, #8]
 505 0150 0022     		movs	r2, #0
 506 0152 0192     		str	r2, [sp, #4]
 507 0154 5A68     		ldr	r2, [r3, #4]
 508 0156 0092     		str	r2, [sp]
 509 0158 1B68     		ldr	r3, [r3]
 510 015a 1A4A     		ldr	r2, .L27+40
 511 015c 89B2     		uxth	r1, r1
 512 015e 80B2     		uxth	r0, r0
 513 0160 FFF7FEFF 		bl	ILI9341_WriteString
 514              	.LVL28:
 515 0164 86E7     		b	.L23
 516              	.L24:
 483:Core/Src/freertos.c ****     ILI9341_WriteString(Channel_2.pos_x-15, Channel_2.pos_y-5, "OFF", Font_11x18, ILI9341_BLACK, IL
 517              		.loc 1 483 5 is_stmt 1 view .LVU87
 518 0166 124C     		ldr	r4, .L27+20
 519 0168 4FF47843 		mov	r3, #63488
 520 016c A288     		ldrh	r2, [r4, #4]
 521 016e 6188     		ldrh	r1, [r4, #2]
 522 0170 2088     		ldrh	r0, [r4]
 523 0172 FFF7FEFF 		bl	ILI9341_FillCircle
 524              	.LVL29:
 484:Core/Src/freertos.c ****   }
 525              		.loc 1 484 5 view .LVU88
 484:Core/Src/freertos.c ****   }
 526              		.loc 1 484 34 is_stmt 0 view .LVU89
 527 0176 2088     		ldrh	r0, [r4]
 484:Core/Src/freertos.c ****   }
 528              		.loc 1 484 54 view .LVU90
 529 0178 6188     		ldrh	r1, [r4, #2]
 484:Core/Src/freertos.c ****   }
 530              		.loc 1 484 5 view .LVU91
 531 017a 084B     		ldr	r3, .L27
 532 017c 0539     		subs	r1, r1, #5
 533 017e 0F38     		subs	r0, r0, #15
 534 0180 4FF47842 		mov	r2, #63488
 535 0184 0292     		str	r2, [sp, #8]
 536 0186 0022     		movs	r2, #0
 537 0188 0192     		str	r2, [sp, #4]
 538 018a 5A68     		ldr	r2, [r3, #4]
 539 018c 0092     		str	r2, [sp]
 540 018e 1B68     		ldr	r3, [r3]
 541 0190 0C4A     		ldr	r2, .L27+40
 542 0192 89B2     		uxth	r1, r1
 543 0194 80B2     		uxth	r0, r0
 544 0196 FFF7FEFF 		bl	ILI9341_WriteString
 545              	.LVL30:
 546 019a 89E7     		b	.L25
 547              	.L28:
 548              		.align	2
ARM GAS  C:\Users\Vento\AppData\Local\Temp\ccxXLphG.s 			page 20


 549              	.L27:
 550 019c 00000000 		.word	Font_11x18
 551 01a0 00000000 		.word	.LC0
 552 01a4 0C000000 		.word	.LC1
 553 01a8 00000000 		.word	.LANCHOR15
 554 01ac 18000000 		.word	.LC2
 555 01b0 00000000 		.word	.LANCHOR16
 556 01b4 00000000 		.word	.LANCHOR17
 557 01b8 20000000 		.word	.LC4
 558 01bc 00000000 		.word	.LANCHOR18
 559 01c0 28000000 		.word	.LC5
 560 01c4 1C000000 		.word	.LC3
 561              		.cfi_endproc
 562              	.LFE76:
 564              		.section	.text.ControlPageHandler,"ax",%progbits
 565              		.align	1
 566              		.global	ControlPageHandler
 567              		.syntax unified
 568              		.thumb
 569              		.thumb_func
 570              		.fpu softvfp
 572              	ControlPageHandler:
 573              	.LVL31:
 574              	.LFB79:
 503:Core/Src/freertos.c **** 
 504:Core/Src/freertos.c **** void SettingPageDisplay(void)
 505:Core/Src/freertos.c **** {
 506:Core/Src/freertos.c ****   ILI9341_FillScreen(ILI9341_BLACK);
 507:Core/Src/freertos.c **** 
 508:Core/Src/freertos.c ****   char temp[4];
 509:Core/Src/freertos.c **** 
 510:Core/Src/freertos.c ****   ILI9341_WriteString(110, 15, "CHANNEL 1", Font_11x18, ILI9341_WHITE, ILI9341_BLACK);
 511:Core/Src/freertos.c **** 
 512:Core/Src/freertos.c ****   ILI9341_WriteString(10, 40, "Level: ", Font_11x18, ILI9341_WHITE, ILI9341_BLACK);
 513:Core/Src/freertos.c ****   intToStr(Channel01.PWM_percent, temp, 3);
 514:Core/Src/freertos.c ****   ILI9341_WriteString(109, 40, temp, Font_11x18, ILI9341_WHITE, ILI9341_BLACK);
 515:Core/Src/freertos.c **** 
 516:Core/Src/freertos.c ****   ILI9341_DrawRectangle(20, 70, 280, 20, ILI9341_WHITE);
 517:Core/Src/freertos.c ****   ILI9341_FillRectangle(22, 72, 278*((double)Channel01.PWM_percent/100) - 1, 17, ILI9341_GREEN);
 518:Core/Src/freertos.c **** 
 519:Core/Src/freertos.c ****   ILI9341_WriteString(110, 105, "CHANNEL 2", Font_11x18, ILI9341_WHITE, ILI9341_BLACK);
 520:Core/Src/freertos.c **** 
 521:Core/Src/freertos.c ****   ILI9341_WriteString(10, 130, "Level: ", Font_11x18, ILI9341_WHITE, ILI9341_BLACK);
 522:Core/Src/freertos.c ****   intToStr(Channel02.PWM_percent, temp, 3);
 523:Core/Src/freertos.c ****   ILI9341_WriteString(109, 130, temp, Font_11x18, ILI9341_WHITE, ILI9341_BLACK);
 524:Core/Src/freertos.c **** 
 525:Core/Src/freertos.c ****   ILI9341_DrawRectangle(20, 160, 280, 20, ILI9341_WHITE);
 526:Core/Src/freertos.c ****   ILI9341_FillRectangle(22, 162, 278*((double)Channel02.PWM_percent/100) - 1, 17, ILI9341_GREEN);
 527:Core/Src/freertos.c **** 
 528:Core/Src/freertos.c **** 
 529:Core/Src/freertos.c ****   ILI9341_FillRectangle(Control_Setting.pos_x - (Control_Setting.shape_w/2), 
 530:Core/Src/freertos.c ****                         Control_Setting.pos_y - (Control_Setting.shape_h/2), 
 531:Core/Src/freertos.c ****                         Control_Setting.shape_w, 
 532:Core/Src/freertos.c ****                         Control_Setting.shape_h, 
 533:Core/Src/freertos.c ****                         Control_Setting.color);
 534:Core/Src/freertos.c ****   ILI9341_WriteString(Control_Setting.pos_x - (Control_Setting.shape_w/2) + 12, 
 535:Core/Src/freertos.c ****                       Control_Setting.pos_y - (Control_Setting.shape_h/2) + 7, 
ARM GAS  C:\Users\Vento\AppData\Local\Temp\ccxXLphG.s 			page 21


 536:Core/Src/freertos.c ****                       "CONTROL", 
 537:Core/Src/freertos.c ****                       Font_11x18, 
 538:Core/Src/freertos.c ****                       ILI9341_BLACK, 
 539:Core/Src/freertos.c ****                       Control_Setting.color);
 540:Core/Src/freertos.c **** }
 541:Core/Src/freertos.c **** 
 542:Core/Src/freertos.c **** void InfoPageDisplay(void)
 543:Core/Src/freertos.c **** {
 544:Core/Src/freertos.c ****   ILI9341_FillScreen(ILI9341_BLACK);
 545:Core/Src/freertos.c **** 
 546:Core/Src/freertos.c ****   char temp[6];
 547:Core/Src/freertos.c ****   char t_temp[9];
 548:Core/Src/freertos.c **** 
 549:Core/Src/freertos.c ****   ILI9341_WriteString(30, 15, "CHANNEL 1", Font_11x18, ILI9341_WHITE, ILI9341_BLACK);
 550:Core/Src/freertos.c **** 
 551:Core/Src/freertos.c ****   ILI9341_WriteString(20, 40, "Current: ", Font_7x10, ILI9341_YELLOW, ILI9341_BLACK);
 552:Core/Src/freertos.c ****   ftoa(Channel01.current, temp, 1);
 553:Core/Src/freertos.c ****   ILI9341_WriteString(90, 40, temp, Font_7x10, ILI9341_YELLOW, ILI9341_BLACK);
 554:Core/Src/freertos.c ****   ILI9341_WriteString(125, 40, "mA", Font_7x10, ILI9341_YELLOW, ILI9341_BLACK);
 555:Core/Src/freertos.c **** 
 556:Core/Src/freertos.c ****   ILI9341_WriteString(20, 60, "Power: ", Font_7x10, ILI9341_RED, ILI9341_BLACK);
 557:Core/Src/freertos.c ****   ftoa(Channel01.current * 220 / 1000, temp, 1);
 558:Core/Src/freertos.c ****   ILI9341_WriteString(90, 60, temp, Font_7x10, ILI9341_RED, ILI9341_BLACK);
 559:Core/Src/freertos.c ****   ILI9341_WriteString(125, 60, "W", Font_7x10, ILI9341_RED, ILI9341_BLACK);
 560:Core/Src/freertos.c **** 
 561:Core/Src/freertos.c ****   ILI9341_WriteString(20, 80, "Period: ", Font_7x10, ILI9341_GREEN, ILI9341_BLACK);
 562:Core/Src/freertos.c ****   intToTime(Channel01.time, t_temp);
 563:Core/Src/freertos.c ****   ILI9341_WriteString(90, 80, t_temp, Font_7x10, ILI9341_GREEN, ILI9341_BLACK);
 564:Core/Src/freertos.c **** 
 565:Core/Src/freertos.c **** 
 566:Core/Src/freertos.c **** 
 567:Core/Src/freertos.c ****   ILI9341_WriteString(30, 105, "CHANNEL 2", Font_11x18, ILI9341_WHITE, ILI9341_BLACK);
 568:Core/Src/freertos.c **** 
 569:Core/Src/freertos.c ****   ILI9341_WriteString(20, 130, "Current: ", Font_7x10, ILI9341_YELLOW, ILI9341_BLACK);
 570:Core/Src/freertos.c ****   ftoa(Channel02.current, temp, 1);
 571:Core/Src/freertos.c ****   ILI9341_WriteString(90, 130, temp, Font_7x10, ILI9341_YELLOW, ILI9341_BLACK);
 572:Core/Src/freertos.c ****   ILI9341_WriteString(125, 130, "mA", Font_7x10, ILI9341_YELLOW, ILI9341_BLACK);
 573:Core/Src/freertos.c **** 
 574:Core/Src/freertos.c ****   ILI9341_WriteString(20, 150, "Power: ", Font_7x10, ILI9341_RED, ILI9341_BLACK);
 575:Core/Src/freertos.c ****   ftoa(Channel02.current * 220 / 1000, temp, 1);
 576:Core/Src/freertos.c ****   ILI9341_WriteString(90, 150, temp, Font_7x10, ILI9341_RED, ILI9341_BLACK);
 577:Core/Src/freertos.c ****   ILI9341_WriteString(125, 150, "W", Font_7x10, ILI9341_RED, ILI9341_BLACK);
 578:Core/Src/freertos.c **** 
 579:Core/Src/freertos.c ****   ILI9341_WriteString(20, 170, "Period: ", Font_7x10, ILI9341_GREEN, ILI9341_BLACK);
 580:Core/Src/freertos.c ****   intToTime(Channel02.time, t_temp);
 581:Core/Src/freertos.c ****   ILI9341_WriteString(90, 170, t_temp, Font_7x10, ILI9341_GREEN, ILI9341_BLACK);
 582:Core/Src/freertos.c **** 
 583:Core/Src/freertos.c **** 
 584:Core/Src/freertos.c ****   ILI9341_DrawLine(160, 0, 160, 239, ILI9341_WHITE);
 585:Core/Src/freertos.c ****   ILI9341_DrawLine(160, 120, 319, 120, ILI9341_WHITE);
 586:Core/Src/freertos.c **** 
 587:Core/Src/freertos.c **** 
 588:Core/Src/freertos.c ****   ILI9341_DrawLine(190, 220, 315, 220, ILI9341_WHITE);
 589:Core/Src/freertos.c ****   ILI9341_DrawLine(313, 218, 315, 220, ILI9341_WHITE);
 590:Core/Src/freertos.c ****   ILI9341_DrawLine(313, 222, 315, 220, ILI9341_WHITE);
 591:Core/Src/freertos.c ****   ILI9341_WriteString(310, 227, "t", Font_7x10, ILI9341_WHITE, ILI9341_BLACK);
 592:Core/Src/freertos.c ****   ILI9341_DrawLine(250, 220, 250, 223, ILI9341_WHITE);
ARM GAS  C:\Users\Vento\AppData\Local\Temp\ccxXLphG.s 			page 22


 593:Core/Src/freertos.c ****   ILI9341_WriteString(243, 227, "60", Font_7x10, ILI9341_WHITE, ILI9341_BLACK);
 594:Core/Src/freertos.c ****   
 595:Core/Src/freertos.c ****   ILI9341_DrawLine(190, 140, 190, 220, ILI9341_WHITE);
 596:Core/Src/freertos.c ****   ILI9341_DrawLine(190, 140, 192, 142, ILI9341_WHITE);
 597:Core/Src/freertos.c ****   ILI9341_DrawLine(190, 140, 188, 142, ILI9341_WHITE);
 598:Core/Src/freertos.c ****   ILI9341_WriteString(178, 135, "P", Font_7x10, ILI9341_WHITE, ILI9341_BLACK);
 599:Core/Src/freertos.c ****   ILI9341_DrawLine(187, 180, 190, 180, ILI9341_WHITE);
 600:Core/Src/freertos.c ****   ILI9341_WriteString(171, 176, "20", Font_7x10, ILI9341_WHITE, ILI9341_BLACK);
 601:Core/Src/freertos.c **** 
 602:Core/Src/freertos.c ****   ILI9341_WriteString(178, 227, "0", Font_7x10, ILI9341_WHITE, ILI9341_BLACK);
 603:Core/Src/freertos.c **** 
 604:Core/Src/freertos.c ****   for(uint8_t i = 0; i < 120; i++)
 605:Core/Src/freertos.c ****   {
 606:Core/Src/freertos.c ****     ILI9341_DrawPixel(191+i, 220-Channel02.history[i], ILI9341_RED);
 607:Core/Src/freertos.c ****   }
 608:Core/Src/freertos.c **** 
 609:Core/Src/freertos.c **** 
 610:Core/Src/freertos.c ****   ILI9341_DrawLine(190, 100, 315, 100, ILI9341_WHITE);
 611:Core/Src/freertos.c ****   ILI9341_DrawLine(313, 98, 315, 100, ILI9341_WHITE);
 612:Core/Src/freertos.c ****   ILI9341_DrawLine(313, 102, 315, 100, ILI9341_WHITE);
 613:Core/Src/freertos.c ****   ILI9341_WriteString(310, 107, "t", Font_7x10, ILI9341_WHITE, ILI9341_BLACK);
 614:Core/Src/freertos.c ****   ILI9341_DrawLine(250, 100, 250, 103, ILI9341_WHITE);
 615:Core/Src/freertos.c ****   ILI9341_WriteString(243, 107, "60", Font_7x10, ILI9341_WHITE, ILI9341_BLACK);
 616:Core/Src/freertos.c ****   
 617:Core/Src/freertos.c ****   ILI9341_DrawLine(190, 20, 190, 100, ILI9341_WHITE);
 618:Core/Src/freertos.c ****   ILI9341_DrawLine(190, 20, 192, 22, ILI9341_WHITE);
 619:Core/Src/freertos.c ****   ILI9341_DrawLine(190, 20, 188, 22, ILI9341_WHITE);
 620:Core/Src/freertos.c ****   ILI9341_WriteString(178, 15, "P", Font_7x10, ILI9341_WHITE, ILI9341_BLACK);
 621:Core/Src/freertos.c ****   ILI9341_DrawLine(187, 60, 190, 60, ILI9341_WHITE);
 622:Core/Src/freertos.c ****   ILI9341_WriteString(171, 56, "20", Font_7x10, ILI9341_WHITE, ILI9341_BLACK);
 623:Core/Src/freertos.c **** 
 624:Core/Src/freertos.c ****   ILI9341_WriteString(178, 107, "0", Font_7x10, ILI9341_WHITE, ILI9341_BLACK);
 625:Core/Src/freertos.c **** 
 626:Core/Src/freertos.c ****   for(uint8_t i = 0; i < 120; i++)
 627:Core/Src/freertos.c ****   {
 628:Core/Src/freertos.c ****     ILI9341_DrawPixel(191+i, 100-Channel01.history[i], ILI9341_BLUE);
 629:Core/Src/freertos.c ****   }
 630:Core/Src/freertos.c ****   
 631:Core/Src/freertos.c **** 
 632:Core/Src/freertos.c ****   ILI9341_FillCircle(Info_Control.pos_x, Info_Control.pos_y, Info_Control.shape_r, Info_Control.col
 633:Core/Src/freertos.c ****   ILI9341_WriteString(Info_Control.pos_x-10, Info_Control.pos_y-7, "<<", Font_11x18, ILI9341_BLACK,
 634:Core/Src/freertos.c **** 
 635:Core/Src/freertos.c **** }
 636:Core/Src/freertos.c **** 
 637:Core/Src/freertos.c **** void ControlPageHandler(uint16_t x, uint16_t y)
 638:Core/Src/freertos.c **** {
 575              		.loc 1 638 1 is_stmt 1 view -0
 576              		.cfi_startproc
 577              		@ args = 0, pretend = 0, frame = 0
 578              		@ frame_needed = 0, uses_anonymous_args = 0
 579              		.loc 1 638 1 is_stmt 0 view .LVU93
 580 0000 F0B5     		push	{r4, r5, r6, r7, lr}
 581              	.LCFI8:
 582              		.cfi_def_cfa_offset 20
 583              		.cfi_offset 4, -20
 584              		.cfi_offset 5, -16
 585              		.cfi_offset 6, -12
ARM GAS  C:\Users\Vento\AppData\Local\Temp\ccxXLphG.s 			page 23


 586              		.cfi_offset 7, -8
 587              		.cfi_offset 14, -4
 588 0002 85B0     		sub	sp, sp, #20
 589              	.LCFI9:
 590              		.cfi_def_cfa_offset 40
 591 0004 0546     		mov	r5, r0
 592 0006 0C46     		mov	r4, r1
 639:Core/Src/freertos.c ****   if ((((ABS(y - Channel_1.pos_x))^2) + ((ABS(x - Channel_1.pos_y))^2)) <= ((Channel_1.shape_r)^2))
 593              		.loc 1 639 3 is_stmt 1 view .LVU94
 594              		.loc 1 639 10 is_stmt 0 view .LVU95
 595 0008 694E     		ldr	r6, .L39
 596 000a 3088     		ldrh	r0, [r6]
 597              	.LVL32:
 598              		.loc 1 639 10 view .LVU96
 599 000c 0B1A     		subs	r3, r1, r0
 600 000e 002B     		cmp	r3, #0
 601 0010 B8BF     		it	lt
 602 0012 5B42     		rsblt	r3, r3, #0
 603              		.loc 1 639 35 view .LVU97
 604 0014 83F00203 		eor	r3, r3, #2
 605              		.loc 1 639 43 view .LVU98
 606 0018 7188     		ldrh	r1, [r6, #2]
 607              	.LVL33:
 608              		.loc 1 639 43 view .LVU99
 609 001a 6A1A     		subs	r2, r5, r1
 610 001c 002A     		cmp	r2, #0
 611 001e B8BF     		it	lt
 612 0020 5242     		rsblt	r2, r2, #0
 613              		.loc 1 639 68 view .LVU100
 614 0022 82F00202 		eor	r2, r2, #2
 615              		.loc 1 639 39 view .LVU101
 616 0026 1344     		add	r3, r3, r2
 617              		.loc 1 639 87 view .LVU102
 618 0028 B288     		ldrh	r2, [r6, #4]
 619              		.loc 1 639 96 view .LVU103
 620 002a 82F00206 		eor	r6, r2, #2
 621              		.loc 1 639 6 view .LVU104
 622 002e B342     		cmp	r3, r6
 623 0030 1CDC     		bgt	.L30
 640:Core/Src/freertos.c ****   {
 641:Core/Src/freertos.c ****     if (Channel_1.state == false)
 624              		.loc 1 641 5 is_stmt 1 view .LVU105
 625              		.loc 1 641 18 is_stmt 0 view .LVU106
 626 0032 5F4B     		ldr	r3, .L39
 627 0034 1B7B     		ldrb	r3, [r3, #12]	@ zero_extendqisi2
 628              		.loc 1 641 8 view .LVU107
 629 0036 002B     		cmp	r3, #0
 630 0038 77D1     		bne	.L31
 642:Core/Src/freertos.c ****     {
 643:Core/Src/freertos.c ****       Channel_1.state = true;
 631              		.loc 1 643 7 is_stmt 1 view .LVU108
 632              		.loc 1 643 23 is_stmt 0 view .LVU109
 633 003a 5D4E     		ldr	r6, .L39
 634 003c 0123     		movs	r3, #1
 635 003e 3373     		strb	r3, [r6, #12]
 644:Core/Src/freertos.c ****       ILI9341_FillCircle(Channel_1.pos_x, Channel_1.pos_y, Channel_1.shape_r, ILI9341_GREEN);
 636              		.loc 1 644 7 is_stmt 1 view .LVU110
ARM GAS  C:\Users\Vento\AppData\Local\Temp\ccxXLphG.s 			page 24


 637 0040 4FF4FC63 		mov	r3, #2016
 638 0044 FFF7FEFF 		bl	ILI9341_FillCircle
 639              	.LVL34:
 645:Core/Src/freertos.c ****       ILI9341_WriteString(Channel_1.pos_x-10, Channel_1.pos_y-5, "ON", Font_11x18, ILI9341_BLACK, I
 640              		.loc 1 645 7 view .LVU111
 641              		.loc 1 645 36 is_stmt 0 view .LVU112
 642 0048 3088     		ldrh	r0, [r6]
 643              		.loc 1 645 56 view .LVU113
 644 004a 7188     		ldrh	r1, [r6, #2]
 645              		.loc 1 645 7 view .LVU114
 646 004c 594B     		ldr	r3, .L39+4
 647 004e 0539     		subs	r1, r1, #5
 648 0050 0A38     		subs	r0, r0, #10
 649 0052 4FF4FC62 		mov	r2, #2016
 650 0056 0292     		str	r2, [sp, #8]
 651 0058 0022     		movs	r2, #0
 652 005a 0192     		str	r2, [sp, #4]
 653 005c 5A68     		ldr	r2, [r3, #4]
 654 005e 0092     		str	r2, [sp]
 655 0060 1B68     		ldr	r3, [r3]
 656 0062 554A     		ldr	r2, .L39+8
 657 0064 89B2     		uxth	r1, r1
 658 0066 80B2     		uxth	r0, r0
 659 0068 FFF7FEFF 		bl	ILI9341_WriteString
 660              	.LVL35:
 661              	.L30:
 646:Core/Src/freertos.c ****     }
 647:Core/Src/freertos.c ****     else
 648:Core/Src/freertos.c ****     {
 649:Core/Src/freertos.c ****       Channel_1.state = false;
 650:Core/Src/freertos.c ****       ILI9341_FillCircle(Channel_1.pos_x, Channel_1.pos_y, Channel_1.shape_r, ILI9341_RED);
 651:Core/Src/freertos.c ****       ILI9341_WriteString(Channel_1.pos_x-15, Channel_1.pos_y-5, "OFF", Font_11x18, ILI9341_BLACK, 
 652:Core/Src/freertos.c ****     }
 653:Core/Src/freertos.c ****   }
 654:Core/Src/freertos.c **** 
 655:Core/Src/freertos.c ****   if ((((ABS(y - Channel_2.pos_x))^2) + ((ABS(x - Channel_2.pos_y))^2)) <= ((Channel_2.shape_r)^2))
 662              		.loc 1 655 3 is_stmt 1 view .LVU115
 663              		.loc 1 655 10 is_stmt 0 view .LVU116
 664 006c 534E     		ldr	r6, .L39+12
 665 006e 3088     		ldrh	r0, [r6]
 666 0070 231A     		subs	r3, r4, r0
 667 0072 002B     		cmp	r3, #0
 668 0074 B8BF     		it	lt
 669 0076 5B42     		rsblt	r3, r3, #0
 670              		.loc 1 655 35 view .LVU117
 671 0078 83F00203 		eor	r3, r3, #2
 672              		.loc 1 655 43 view .LVU118
 673 007c 7188     		ldrh	r1, [r6, #2]
 674 007e 6A1A     		subs	r2, r5, r1
 675 0080 002A     		cmp	r2, #0
 676 0082 B8BF     		it	lt
 677 0084 5242     		rsblt	r2, r2, #0
 678              		.loc 1 655 68 view .LVU119
 679 0086 82F00202 		eor	r2, r2, #2
 680              		.loc 1 655 39 view .LVU120
 681 008a 1344     		add	r3, r3, r2
 682              		.loc 1 655 87 view .LVU121
ARM GAS  C:\Users\Vento\AppData\Local\Temp\ccxXLphG.s 			page 25


 683 008c B288     		ldrh	r2, [r6, #4]
 684              		.loc 1 655 96 view .LVU122
 685 008e 82F00206 		eor	r6, r2, #2
 686              		.loc 1 655 6 view .LVU123
 687 0092 B342     		cmp	r3, r6
 688 0094 1CDC     		bgt	.L32
 656:Core/Src/freertos.c ****   {
 657:Core/Src/freertos.c ****     if (Channel_2.state == false)
 689              		.loc 1 657 5 is_stmt 1 view .LVU124
 690              		.loc 1 657 18 is_stmt 0 view .LVU125
 691 0096 494B     		ldr	r3, .L39+12
 692 0098 1B7B     		ldrb	r3, [r3, #12]	@ zero_extendqisi2
 693              		.loc 1 657 8 view .LVU126
 694 009a 002B     		cmp	r3, #0
 695 009c 5ED1     		bne	.L33
 658:Core/Src/freertos.c ****     {
 659:Core/Src/freertos.c ****       Channel_2.state = true;
 696              		.loc 1 659 7 is_stmt 1 view .LVU127
 697              		.loc 1 659 23 is_stmt 0 view .LVU128
 698 009e 474E     		ldr	r6, .L39+12
 699 00a0 0123     		movs	r3, #1
 700 00a2 3373     		strb	r3, [r6, #12]
 660:Core/Src/freertos.c ****       ILI9341_FillCircle(Channel_2.pos_x, Channel_2.pos_y, Channel_2.shape_r, ILI9341_GREEN);
 701              		.loc 1 660 7 is_stmt 1 view .LVU129
 702 00a4 4FF4FC63 		mov	r3, #2016
 703 00a8 FFF7FEFF 		bl	ILI9341_FillCircle
 704              	.LVL36:
 661:Core/Src/freertos.c ****       ILI9341_WriteString(Channel_2.pos_x-10, Channel_2.pos_y-5, "ON", Font_11x18, ILI9341_BLACK, I
 705              		.loc 1 661 7 view .LVU130
 706              		.loc 1 661 36 is_stmt 0 view .LVU131
 707 00ac 3088     		ldrh	r0, [r6]
 708              		.loc 1 661 56 view .LVU132
 709 00ae 7188     		ldrh	r1, [r6, #2]
 710              		.loc 1 661 7 view .LVU133
 711 00b0 404B     		ldr	r3, .L39+4
 712 00b2 0539     		subs	r1, r1, #5
 713 00b4 0A38     		subs	r0, r0, #10
 714 00b6 4FF4FC62 		mov	r2, #2016
 715 00ba 0292     		str	r2, [sp, #8]
 716 00bc 0022     		movs	r2, #0
 717 00be 0192     		str	r2, [sp, #4]
 718 00c0 5A68     		ldr	r2, [r3, #4]
 719 00c2 0092     		str	r2, [sp]
 720 00c4 1B68     		ldr	r3, [r3]
 721 00c6 3C4A     		ldr	r2, .L39+8
 722 00c8 89B2     		uxth	r1, r1
 723 00ca 80B2     		uxth	r0, r0
 724 00cc FFF7FEFF 		bl	ILI9341_WriteString
 725              	.LVL37:
 726              	.L32:
 662:Core/Src/freertos.c ****     }
 663:Core/Src/freertos.c ****     else
 664:Core/Src/freertos.c ****     {
 665:Core/Src/freertos.c ****       Channel_2.state = false;
 666:Core/Src/freertos.c ****       ILI9341_FillCircle(Channel_2.pos_x, Channel_2.pos_y, Channel_2.shape_r, ILI9341_RED);
 667:Core/Src/freertos.c ****       ILI9341_WriteString(Channel_2.pos_x-15, Channel_2.pos_y-5, "OFF", Font_11x18, ILI9341_BLACK, 
 668:Core/Src/freertos.c ****     }
ARM GAS  C:\Users\Vento\AppData\Local\Temp\ccxXLphG.s 			page 26


 669:Core/Src/freertos.c ****   }
 670:Core/Src/freertos.c **** 
 671:Core/Src/freertos.c ****   if ((x <= (Control_Setting.pos_y + (Control_Setting.shape_h/2))) && 
 727              		.loc 1 671 3 is_stmt 1 view .LVU134
 728              		.loc 1 671 29 is_stmt 0 view .LVU135
 729 00d0 3B4B     		ldr	r3, .L39+16
 730 00d2 5A88     		ldrh	r2, [r3, #2]
 731              		.loc 1 671 54 view .LVU136
 732 00d4 1B89     		ldrh	r3, [r3, #8]
 733              		.loc 1 671 62 view .LVU137
 734 00d6 5908     		lsrs	r1, r3, #1
 735              		.loc 1 671 36 view .LVU138
 736 00d8 02EB5303 		add	r3, r2, r3, lsr #1
 737              		.loc 1 671 6 view .LVU139
 738 00dc 9D42     		cmp	r5, r3
 739 00de 0DDC     		bgt	.L34
 672:Core/Src/freertos.c ****       (x >= (Control_Setting.pos_y - (Control_Setting.shape_h/2))) && 
 740              		.loc 1 672 36 discriminator 1 view .LVU140
 741 00e0 521A     		subs	r2, r2, r1
 671:Core/Src/freertos.c ****       (x >= (Control_Setting.pos_y - (Control_Setting.shape_h/2))) && 
 742              		.loc 1 671 68 discriminator 1 view .LVU141
 743 00e2 9542     		cmp	r5, r2
 744 00e4 0ADB     		blt	.L34
 673:Core/Src/freertos.c ****       (y <= (Control_Setting.pos_x + (Control_Setting.shape_w/2))) && 
 745              		.loc 1 673 29 view .LVU142
 746 00e6 364B     		ldr	r3, .L39+16
 747 00e8 1A88     		ldrh	r2, [r3]
 748              		.loc 1 673 54 view .LVU143
 749 00ea DB88     		ldrh	r3, [r3, #6]
 750              		.loc 1 673 62 view .LVU144
 751 00ec 5908     		lsrs	r1, r3, #1
 752              		.loc 1 673 36 view .LVU145
 753 00ee 02EB5303 		add	r3, r2, r3, lsr #1
 672:Core/Src/freertos.c ****       (x >= (Control_Setting.pos_y - (Control_Setting.shape_h/2))) && 
 754              		.loc 1 672 68 view .LVU146
 755 00f2 9C42     		cmp	r4, r3
 756 00f4 02DC     		bgt	.L34
 674:Core/Src/freertos.c ****       (y >= (Control_Setting.pos_x - (Control_Setting.shape_w/2))))
 757              		.loc 1 674 36 view .LVU147
 758 00f6 521A     		subs	r2, r2, r1
 673:Core/Src/freertos.c ****       (y <= (Control_Setting.pos_x + (Control_Setting.shape_w/2))) && 
 759              		.loc 1 673 68 view .LVU148
 760 00f8 9442     		cmp	r4, r2
 761 00fa 48DA     		bge	.L37
 762              	.L34:
 675:Core/Src/freertos.c ****   {
 676:Core/Src/freertos.c ****     currentPage = SettingPage;
 677:Core/Src/freertos.c ****     vTaskResume(myDisplayHandle);
 678:Core/Src/freertos.c ****   }
 679:Core/Src/freertos.c **** 
 680:Core/Src/freertos.c ****   if ((((ABS(y - Control_Info.pos_x))^2) + ((ABS(x - Control_Info.pos_y))^2)) <= ((Control_Info.sha
 763              		.loc 1 680 3 is_stmt 1 view .LVU149
 764              		.loc 1 680 10 is_stmt 0 view .LVU150
 765 00fc 314B     		ldr	r3, .L39+20
 766 00fe 1988     		ldrh	r1, [r3]
 767 0100 641A     		subs	r4, r4, r1
 768 0102 002C     		cmp	r4, #0
ARM GAS  C:\Users\Vento\AppData\Local\Temp\ccxXLphG.s 			page 27


 769 0104 B8BF     		it	lt
 770 0106 6442     		rsblt	r4, r4, #0
 771              		.loc 1 680 38 view .LVU151
 772 0108 84F00204 		eor	r4, r4, #2
 773              		.loc 1 680 46 view .LVU152
 774 010c 5888     		ldrh	r0, [r3, #2]
 775 010e 2D1A     		subs	r5, r5, r0
 776 0110 002D     		cmp	r5, #0
 777 0112 B8BF     		it	lt
 778 0114 6D42     		rsblt	r5, r5, #0
 779              		.loc 1 680 74 view .LVU153
 780 0116 85F00205 		eor	r5, r5, #2
 781              		.loc 1 680 42 view .LVU154
 782 011a 2C44     		add	r4, r4, r5
 783              		.loc 1 680 96 view .LVU155
 784 011c 9B88     		ldrh	r3, [r3, #4]
 785              		.loc 1 680 105 view .LVU156
 786 011e 83F00203 		eor	r3, r3, #2
 787              		.loc 1 680 6 view .LVU157
 788 0122 9C42     		cmp	r4, r3
 789 0124 3BDD     		ble	.L38
 790              	.L29:
 681:Core/Src/freertos.c ****   {
 682:Core/Src/freertos.c ****     currentPage = InfoPage;
 683:Core/Src/freertos.c ****     vTaskResume(myDisplayHandle);
 684:Core/Src/freertos.c ****   }
 685:Core/Src/freertos.c ****   
 686:Core/Src/freertos.c **** }
 791              		.loc 1 686 1 view .LVU158
 792 0126 05B0     		add	sp, sp, #20
 793              	.LCFI10:
 794              		.cfi_remember_state
 795              		.cfi_def_cfa_offset 20
 796              		@ sp needed
 797 0128 F0BD     		pop	{r4, r5, r6, r7, pc}
 798              	.L31:
 799              	.LCFI11:
 800              		.cfi_restore_state
 649:Core/Src/freertos.c ****       ILI9341_FillCircle(Channel_1.pos_x, Channel_1.pos_y, Channel_1.shape_r, ILI9341_RED);
 801              		.loc 1 649 7 is_stmt 1 view .LVU159
 649:Core/Src/freertos.c ****       ILI9341_FillCircle(Channel_1.pos_x, Channel_1.pos_y, Channel_1.shape_r, ILI9341_RED);
 802              		.loc 1 649 23 is_stmt 0 view .LVU160
 803 012a 214F     		ldr	r7, .L39
 804 012c 0026     		movs	r6, #0
 805 012e 3E73     		strb	r6, [r7, #12]
 650:Core/Src/freertos.c ****       ILI9341_WriteString(Channel_1.pos_x-15, Channel_1.pos_y-5, "OFF", Font_11x18, ILI9341_BLACK, 
 806              		.loc 1 650 7 is_stmt 1 view .LVU161
 807 0130 4FF47843 		mov	r3, #63488
 808 0134 FFF7FEFF 		bl	ILI9341_FillCircle
 809              	.LVL38:
 651:Core/Src/freertos.c ****     }
 810              		.loc 1 651 7 view .LVU162
 651:Core/Src/freertos.c ****     }
 811              		.loc 1 651 36 is_stmt 0 view .LVU163
 812 0138 3888     		ldrh	r0, [r7]
 651:Core/Src/freertos.c ****     }
 813              		.loc 1 651 56 view .LVU164
ARM GAS  C:\Users\Vento\AppData\Local\Temp\ccxXLphG.s 			page 28


 814 013a 7988     		ldrh	r1, [r7, #2]
 651:Core/Src/freertos.c ****     }
 815              		.loc 1 651 7 view .LVU165
 816 013c 1D4B     		ldr	r3, .L39+4
 817 013e 0539     		subs	r1, r1, #5
 818 0140 0F38     		subs	r0, r0, #15
 819 0142 4FF47842 		mov	r2, #63488
 820 0146 0292     		str	r2, [sp, #8]
 821 0148 0196     		str	r6, [sp, #4]
 822 014a 5A68     		ldr	r2, [r3, #4]
 823 014c 0092     		str	r2, [sp]
 824 014e 1B68     		ldr	r3, [r3]
 825 0150 1D4A     		ldr	r2, .L39+24
 826 0152 89B2     		uxth	r1, r1
 827 0154 80B2     		uxth	r0, r0
 828 0156 FFF7FEFF 		bl	ILI9341_WriteString
 829              	.LVL39:
 830 015a 87E7     		b	.L30
 831              	.L33:
 665:Core/Src/freertos.c ****       ILI9341_FillCircle(Channel_2.pos_x, Channel_2.pos_y, Channel_2.shape_r, ILI9341_RED);
 832              		.loc 1 665 7 is_stmt 1 view .LVU166
 665:Core/Src/freertos.c ****       ILI9341_FillCircle(Channel_2.pos_x, Channel_2.pos_y, Channel_2.shape_r, ILI9341_RED);
 833              		.loc 1 665 23 is_stmt 0 view .LVU167
 834 015c 174F     		ldr	r7, .L39+12
 835 015e 0026     		movs	r6, #0
 836 0160 3E73     		strb	r6, [r7, #12]
 666:Core/Src/freertos.c ****       ILI9341_WriteString(Channel_2.pos_x-15, Channel_2.pos_y-5, "OFF", Font_11x18, ILI9341_BLACK, 
 837              		.loc 1 666 7 is_stmt 1 view .LVU168
 838 0162 4FF47843 		mov	r3, #63488
 839 0166 FFF7FEFF 		bl	ILI9341_FillCircle
 840              	.LVL40:
 667:Core/Src/freertos.c ****     }
 841              		.loc 1 667 7 view .LVU169
 667:Core/Src/freertos.c ****     }
 842              		.loc 1 667 36 is_stmt 0 view .LVU170
 843 016a 3888     		ldrh	r0, [r7]
 667:Core/Src/freertos.c ****     }
 844              		.loc 1 667 56 view .LVU171
 845 016c 7988     		ldrh	r1, [r7, #2]
 667:Core/Src/freertos.c ****     }
 846              		.loc 1 667 7 view .LVU172
 847 016e 114B     		ldr	r3, .L39+4
 848 0170 0539     		subs	r1, r1, #5
 849 0172 0F38     		subs	r0, r0, #15
 850 0174 4FF47842 		mov	r2, #63488
 851 0178 0292     		str	r2, [sp, #8]
 852 017a 0196     		str	r6, [sp, #4]
 853 017c 5A68     		ldr	r2, [r3, #4]
 854 017e 0092     		str	r2, [sp]
 855 0180 1B68     		ldr	r3, [r3]
 856 0182 114A     		ldr	r2, .L39+24
 857 0184 89B2     		uxth	r1, r1
 858 0186 80B2     		uxth	r0, r0
 859 0188 FFF7FEFF 		bl	ILI9341_WriteString
 860              	.LVL41:
 861 018c A0E7     		b	.L32
 862              	.L37:
ARM GAS  C:\Users\Vento\AppData\Local\Temp\ccxXLphG.s 			page 29


 676:Core/Src/freertos.c ****     vTaskResume(myDisplayHandle);
 863              		.loc 1 676 5 is_stmt 1 view .LVU173
 676:Core/Src/freertos.c ****     vTaskResume(myDisplayHandle);
 864              		.loc 1 676 17 is_stmt 0 view .LVU174
 865 018e 0F4B     		ldr	r3, .L39+28
 866 0190 0122     		movs	r2, #1
 867 0192 1A70     		strb	r2, [r3]
 677:Core/Src/freertos.c ****   }
 868              		.loc 1 677 5 is_stmt 1 view .LVU175
 869 0194 0E4B     		ldr	r3, .L39+32
 870 0196 1868     		ldr	r0, [r3]
 871 0198 FFF7FEFF 		bl	vTaskResume
 872              	.LVL42:
 873 019c AEE7     		b	.L34
 874              	.L38:
 682:Core/Src/freertos.c ****     vTaskResume(myDisplayHandle);
 875              		.loc 1 682 5 view .LVU176
 682:Core/Src/freertos.c ****     vTaskResume(myDisplayHandle);
 876              		.loc 1 682 17 is_stmt 0 view .LVU177
 877 019e 0B4B     		ldr	r3, .L39+28
 878 01a0 0222     		movs	r2, #2
 879 01a2 1A70     		strb	r2, [r3]
 683:Core/Src/freertos.c ****   }
 880              		.loc 1 683 5 is_stmt 1 view .LVU178
 881 01a4 0A4B     		ldr	r3, .L39+32
 882 01a6 1868     		ldr	r0, [r3]
 883 01a8 FFF7FEFF 		bl	vTaskResume
 884              	.LVL43:
 885              		.loc 1 686 1 is_stmt 0 view .LVU179
 886 01ac BBE7     		b	.L29
 887              	.L40:
 888 01ae 00BF     		.align	2
 889              	.L39:
 890 01b0 00000000 		.word	.LANCHOR15
 891 01b4 00000000 		.word	Font_11x18
 892 01b8 18000000 		.word	.LC2
 893 01bc 00000000 		.word	.LANCHOR16
 894 01c0 00000000 		.word	.LANCHOR17
 895 01c4 00000000 		.word	.LANCHOR18
 896 01c8 1C000000 		.word	.LC3
 897 01cc 00000000 		.word	.LANCHOR19
 898 01d0 00000000 		.word	.LANCHOR10
 899              		.cfi_endproc
 900              	.LFE79:
 902              		.section	.text.InfoPageHandler,"ax",%progbits
 903              		.align	1
 904              		.global	InfoPageHandler
 905              		.syntax unified
 906              		.thumb
 907              		.thumb_func
 908              		.fpu softvfp
 910              	InfoPageHandler:
 911              	.LVL44:
 912              	.LFB81:
 687:Core/Src/freertos.c **** 
 688:Core/Src/freertos.c **** void SettingPageHandler(uint16_t x, uint16_t y)
 689:Core/Src/freertos.c **** {
ARM GAS  C:\Users\Vento\AppData\Local\Temp\ccxXLphG.s 			page 30


 690:Core/Src/freertos.c ****   if ((x <= (Control_Setting.pos_y + (Control_Setting.shape_h/2))) && 
 691:Core/Src/freertos.c ****       (x >= (Control_Setting.pos_y - (Control_Setting.shape_h/2))) && 
 692:Core/Src/freertos.c ****       (y <= (Control_Setting.pos_x + (Control_Setting.shape_w/2))) && 
 693:Core/Src/freertos.c ****       (y >= (Control_Setting.pos_x - (Control_Setting.shape_w/2))))
 694:Core/Src/freertos.c ****   {
 695:Core/Src/freertos.c ****     currentPage = ControlPage;
 696:Core/Src/freertos.c ****     vTaskResume(myDisplayHandle);
 697:Core/Src/freertos.c ****   }
 698:Core/Src/freertos.c **** 
 699:Core/Src/freertos.c ****   if ((x >= 70) && (x <= 90) && (y >= 20) && (y <= 300))
 700:Core/Src/freertos.c ****   {
 701:Core/Src/freertos.c ****     char temp[4];
 702:Core/Src/freertos.c ****     Channel01.PWM_percent = (y - 20) * 100 / 280;
 703:Core/Src/freertos.c ****     intToStr(Channel01.PWM_percent, temp, 3);
 704:Core/Src/freertos.c ****     ILI9341_WriteString(109, 40, temp, Font_11x18, ILI9341_WHITE, ILI9341_BLACK);
 705:Core/Src/freertos.c ****     ILI9341_FillRectangle(22, 72, 277, 17, ILI9341_BLACK);
 706:Core/Src/freertos.c ****     ILI9341_FillRectangle(22, 72, 278*((double)Channel01.PWM_percent/100) - 1, 17, ILI9341_GREEN);
 707:Core/Src/freertos.c ****   }
 708:Core/Src/freertos.c **** 
 709:Core/Src/freertos.c ****   if ((x >= 160) && (x <= 180) && (y >= 20) && (y <= 300))
 710:Core/Src/freertos.c ****   {
 711:Core/Src/freertos.c ****     char temp[4];
 712:Core/Src/freertos.c ****     Channel02.PWM_percent = (y - 20) * 100 / 280;
 713:Core/Src/freertos.c ****     intToStr(Channel02.PWM_percent, temp, 3);
 714:Core/Src/freertos.c ****     ILI9341_WriteString(109, 130, temp, Font_11x18, ILI9341_WHITE, ILI9341_BLACK);
 715:Core/Src/freertos.c ****     ILI9341_FillRectangle(22, 162, 277, 17, ILI9341_BLACK);
 716:Core/Src/freertos.c ****     ILI9341_FillRectangle(22, 162, 278*((double)Channel02.PWM_percent/100) - 1, 17, ILI9341_GREEN);
 717:Core/Src/freertos.c ****   }
 718:Core/Src/freertos.c **** }
 719:Core/Src/freertos.c **** 
 720:Core/Src/freertos.c **** void InfoPageHandler(uint16_t x, uint16_t y)
 721:Core/Src/freertos.c **** {
 913              		.loc 1 721 1 is_stmt 1 view -0
 914              		.cfi_startproc
 915              		@ args = 0, pretend = 0, frame = 0
 916              		@ frame_needed = 0, uses_anonymous_args = 0
 917              		.loc 1 721 1 is_stmt 0 view .LVU181
 918 0000 08B5     		push	{r3, lr}
 919              	.LCFI12:
 920              		.cfi_def_cfa_offset 8
 921              		.cfi_offset 3, -8
 922              		.cfi_offset 14, -4
 722:Core/Src/freertos.c ****   if ((((ABS(y - Info_Control.pos_x))^2) + ((ABS(x - Info_Control.pos_y))^2)) <= ((Info_Control.sha
 923              		.loc 1 722 3 is_stmt 1 view .LVU182
 924              		.loc 1 722 10 is_stmt 0 view .LVU183
 925 0002 154B     		ldr	r3, .L45
 926 0004 1A88     		ldrh	r2, [r3]
 927 0006 891A     		subs	r1, r1, r2
 928              	.LVL45:
 929              		.loc 1 722 10 view .LVU184
 930 0008 0029     		cmp	r1, #0
 931 000a B8BF     		it	lt
 932 000c 4942     		rsblt	r1, r1, #0
 933              		.loc 1 722 38 view .LVU185
 934 000e 81F00201 		eor	r1, r1, #2
 935              		.loc 1 722 46 view .LVU186
 936 0012 5A88     		ldrh	r2, [r3, #2]
ARM GAS  C:\Users\Vento\AppData\Local\Temp\ccxXLphG.s 			page 31


 937 0014 801A     		subs	r0, r0, r2
 938              	.LVL46:
 939              		.loc 1 722 46 view .LVU187
 940 0016 0028     		cmp	r0, #0
 941 0018 B8BF     		it	lt
 942 001a 4042     		rsblt	r0, r0, #0
 943              		.loc 1 722 74 view .LVU188
 944 001c 80F00200 		eor	r0, r0, #2
 945              		.loc 1 722 42 view .LVU189
 946 0020 0144     		add	r1, r1, r0
 947              		.loc 1 722 96 view .LVU190
 948 0022 9B88     		ldrh	r3, [r3, #4]
 949              		.loc 1 722 105 view .LVU191
 950 0024 83F00203 		eor	r3, r3, #2
 951              		.loc 1 722 6 view .LVU192
 952 0028 9942     		cmp	r1, r3
 953 002a 00DD     		ble	.L44
 954              	.L41:
 723:Core/Src/freertos.c ****   {
 724:Core/Src/freertos.c ****     if(osMutexWait(Mutex01Handle, portMAX_DELAY) == osOK)
 725:Core/Src/freertos.c ****     {
 726:Core/Src/freertos.c ****       currentPage = ControlPage;
 727:Core/Src/freertos.c ****       vTaskResume(myDisplayHandle);
 728:Core/Src/freertos.c ****       osMutexRelease(Mutex01Handle);
 729:Core/Src/freertos.c ****     } 
 730:Core/Src/freertos.c ****   }
 731:Core/Src/freertos.c **** }
 955              		.loc 1 731 1 view .LVU193
 956 002c 08BD     		pop	{r3, pc}
 957              	.L44:
 724:Core/Src/freertos.c ****     {
 958              		.loc 1 724 5 is_stmt 1 view .LVU194
 724:Core/Src/freertos.c ****     {
 959              		.loc 1 724 8 is_stmt 0 view .LVU195
 960 002e 4FF0FF31 		mov	r1, #-1
 961 0032 0A4B     		ldr	r3, .L45+4
 962 0034 1868     		ldr	r0, [r3]
 963 0036 FFF7FEFF 		bl	osMutexAcquire
 964              	.LVL47:
 724:Core/Src/freertos.c ****     {
 965              		.loc 1 724 7 view .LVU196
 966 003a 0028     		cmp	r0, #0
 967 003c F6D1     		bne	.L41
 726:Core/Src/freertos.c ****       vTaskResume(myDisplayHandle);
 968              		.loc 1 726 7 is_stmt 1 view .LVU197
 726:Core/Src/freertos.c ****       vTaskResume(myDisplayHandle);
 969              		.loc 1 726 19 is_stmt 0 view .LVU198
 970 003e 084B     		ldr	r3, .L45+8
 971 0040 0022     		movs	r2, #0
 972 0042 1A70     		strb	r2, [r3]
 727:Core/Src/freertos.c ****       osMutexRelease(Mutex01Handle);
 973              		.loc 1 727 7 is_stmt 1 view .LVU199
 974 0044 074B     		ldr	r3, .L45+12
 975 0046 1868     		ldr	r0, [r3]
 976 0048 FFF7FEFF 		bl	vTaskResume
 977              	.LVL48:
 728:Core/Src/freertos.c ****     } 
ARM GAS  C:\Users\Vento\AppData\Local\Temp\ccxXLphG.s 			page 32


 978              		.loc 1 728 7 view .LVU200
 979 004c 034B     		ldr	r3, .L45+4
 980 004e 1868     		ldr	r0, [r3]
 981 0050 FFF7FEFF 		bl	osMutexRelease
 982              	.LVL49:
 983              		.loc 1 731 1 is_stmt 0 view .LVU201
 984 0054 EAE7     		b	.L41
 985              	.L46:
 986 0056 00BF     		.align	2
 987              	.L45:
 988 0058 00000000 		.word	.LANCHOR20
 989 005c 00000000 		.word	.LANCHOR2
 990 0060 00000000 		.word	.LANCHOR19
 991 0064 00000000 		.word	.LANCHOR10
 992              		.cfi_endproc
 993              	.LFE81:
 995              		.section	.text.reverse,"ax",%progbits
 996              		.align	1
 997              		.global	reverse
 998              		.syntax unified
 999              		.thumb
 1000              		.thumb_func
 1001              		.fpu softvfp
 1003              	reverse:
 1004              	.LVL50:
 1005              	.LFB82:
 732:Core/Src/freertos.c **** 
 733:Core/Src/freertos.c **** 
 734:Core/Src/freertos.c **** void reverse(char* str, int len)
 735:Core/Src/freertos.c **** {
 1006              		.loc 1 735 1 is_stmt 1 view -0
 1007              		.cfi_startproc
 1008              		@ args = 0, pretend = 0, frame = 0
 1009              		@ frame_needed = 0, uses_anonymous_args = 0
 1010              		@ link register save eliminated.
 736:Core/Src/freertos.c ****     int i = 0, j = len - 1, temp;
 1011              		.loc 1 736 5 view .LVU203
 1012              		.loc 1 736 16 is_stmt 0 view .LVU204
 1013 0000 0139     		subs	r1, r1, #1
 1014              	.LVL51:
 737:Core/Src/freertos.c ****     while (i < j)
 1015              		.loc 1 737 5 is_stmt 1 view .LVU205
 736:Core/Src/freertos.c ****     int i = 0, j = len - 1, temp;
 1016              		.loc 1 736 9 is_stmt 0 view .LVU206
 1017 0002 0023     		movs	r3, #0
 1018              		.loc 1 737 11 view .LVU207
 1019 0004 07E0     		b	.L48
 1020              	.LVL52:
 1021              	.L49:
 738:Core/Src/freertos.c ****     {
 739:Core/Src/freertos.c ****         temp = str[i];
 1022              		.loc 1 739 9 is_stmt 1 view .LVU208
 1023              		.loc 1 739 19 is_stmt 0 view .LVU209
 1024 0006 C25C     		ldrb	r2, [r0, r3]	@ zero_extendqisi2
 1025              	.LVL53:
 740:Core/Src/freertos.c ****         str[i] = str[j];
 1026              		.loc 1 740 9 is_stmt 1 view .LVU210
ARM GAS  C:\Users\Vento\AppData\Local\Temp\ccxXLphG.s 			page 33


 1027              		.loc 1 740 21 is_stmt 0 view .LVU211
 1028 0008 10F801C0 		ldrb	ip, [r0, r1]	@ zero_extendqisi2
 1029              		.loc 1 740 16 view .LVU212
 1030 000c 00F803C0 		strb	ip, [r0, r3]
 741:Core/Src/freertos.c ****         str[j] = temp;
 1031              		.loc 1 741 9 is_stmt 1 view .LVU213
 1032              		.loc 1 741 16 is_stmt 0 view .LVU214
 1033 0010 4254     		strb	r2, [r0, r1]
 742:Core/Src/freertos.c ****         i++;
 1034              		.loc 1 742 9 is_stmt 1 view .LVU215
 1035              		.loc 1 742 10 is_stmt 0 view .LVU216
 1036 0012 0133     		adds	r3, r3, #1
 1037              	.LVL54:
 743:Core/Src/freertos.c ****         j--;
 1038              		.loc 1 743 9 is_stmt 1 view .LVU217
 1039              		.loc 1 743 10 is_stmt 0 view .LVU218
 1040 0014 0139     		subs	r1, r1, #1
 1041              	.LVL55:
 1042              	.L48:
 737:Core/Src/freertos.c ****     {
 1043              		.loc 1 737 11 is_stmt 1 view .LVU219
 1044 0016 8B42     		cmp	r3, r1
 1045 0018 F5DB     		blt	.L49
 744:Core/Src/freertos.c ****     }
 745:Core/Src/freertos.c **** }
 1046              		.loc 1 745 1 is_stmt 0 view .LVU220
 1047 001a 7047     		bx	lr
 1048              		.cfi_endproc
 1049              	.LFE82:
 1051              		.section	.text.intToStr,"ax",%progbits
 1052              		.align	1
 1053              		.global	intToStr
 1054              		.syntax unified
 1055              		.thumb
 1056              		.thumb_func
 1057              		.fpu softvfp
 1059              	intToStr:
 1060              	.LVL56:
 1061              	.LFB83:
 746:Core/Src/freertos.c **** 
 747:Core/Src/freertos.c **** // Converts a given integer x to string str[]. 
 748:Core/Src/freertos.c **** // d is the number of digits required in the output. 
 749:Core/Src/freertos.c **** // If d is more than the number of digits in x, 
 750:Core/Src/freertos.c **** // then 0s are added at the beginning.
 751:Core/Src/freertos.c **** int intToStr(uint8_t x, char str[], int d)
 752:Core/Src/freertos.c **** {
 1062              		.loc 1 752 1 is_stmt 1 view -0
 1063              		.cfi_startproc
 1064              		@ args = 0, pretend = 0, frame = 0
 1065              		@ frame_needed = 0, uses_anonymous_args = 0
 1066              		.loc 1 752 1 is_stmt 0 view .LVU222
 1067 0000 38B5     		push	{r3, r4, r5, lr}
 1068              	.LCFI13:
 1069              		.cfi_def_cfa_offset 16
 1070              		.cfi_offset 3, -16
 1071              		.cfi_offset 4, -12
 1072              		.cfi_offset 5, -8
ARM GAS  C:\Users\Vento\AppData\Local\Temp\ccxXLphG.s 			page 34


 1073              		.cfi_offset 14, -4
 1074 0002 0D46     		mov	r5, r1
 753:Core/Src/freertos.c ****     int i = 0;
 1075              		.loc 1 753 5 is_stmt 1 view .LVU223
 1076              	.LVL57:
 754:Core/Src/freertos.c ****     if (x == 0)
 1077              		.loc 1 754 5 view .LVU224
 1078              		.loc 1 754 8 is_stmt 0 view .LVU225
 1079 0004 18B9     		cbnz	r0, .L56
 755:Core/Src/freertos.c ****     {
 756:Core/Src/freertos.c ****       str[i++] = '0';
 1080              		.loc 1 756 7 is_stmt 1 view .LVU226
 1081              	.LVL58:
 1082              		.loc 1 756 16 is_stmt 0 view .LVU227
 1083 0006 3023     		movs	r3, #48
 1084 0008 0B70     		strb	r3, [r1]
 1085              		.loc 1 756 12 view .LVU228
 1086 000a 0124     		movs	r4, #1
 1087 000c 12E0     		b	.L52
 1088              	.LVL59:
 1089              	.L56:
 1090              		.loc 1 756 12 view .LVU229
 1091 000e 0346     		mov	r3, r0
 753:Core/Src/freertos.c ****     if (x == 0)
 1092              		.loc 1 753 9 view .LVU230
 1093 0010 0024     		movs	r4, #0
 1094              	.LVL60:
 1095              	.L51:
 757:Core/Src/freertos.c ****     }
 758:Core/Src/freertos.c ****     else
 759:Core/Src/freertos.c ****     {
 760:Core/Src/freertos.c ****       while (x)
 1096              		.loc 1 760 13 is_stmt 1 view .LVU231
 1097 0012 7BB1     		cbz	r3, .L52
 761:Core/Src/freertos.c ****       {
 762:Core/Src/freertos.c ****         str[i++] = (x % 10) + '0';
 1098              		.loc 1 762 9 view .LVU232
 1099              	.LVL61:
 1100              		.loc 1 762 29 is_stmt 0 view .LVU233
 1101 0014 0C48     		ldr	r0, .L58
 1102 0016 A0FB0310 		umull	r1, r0, r0, r3
 1103 001a C008     		lsrs	r0, r0, #3
 1104 001c 00EB8001 		add	r1, r0, r0, lsl #2
 1105 0020 A3EB4103 		sub	r3, r3, r1, lsl #1
 1106              	.LVL62:
 1107              		.loc 1 762 29 view .LVU234
 1108 0024 3033     		adds	r3, r3, #48
 1109              		.loc 1 762 18 view .LVU235
 1110 0026 2B55     		strb	r3, [r5, r4]
 763:Core/Src/freertos.c ****         x = x / 10;
 1111              		.loc 1 763 9 is_stmt 1 view .LVU236
 1112              		.loc 1 763 11 is_stmt 0 view .LVU237
 1113 0028 C3B2     		uxtb	r3, r0
 1114              	.LVL63:
 762:Core/Src/freertos.c ****         x = x / 10;
 1115              		.loc 1 762 14 view .LVU238
 1116 002a 0134     		adds	r4, r4, #1
ARM GAS  C:\Users\Vento\AppData\Local\Temp\ccxXLphG.s 			page 35


 1117              	.LVL64:
 762:Core/Src/freertos.c ****         x = x / 10;
 1118              		.loc 1 762 14 view .LVU239
 1119 002c F1E7     		b	.L51
 1120              	.LVL65:
 1121              	.L55:
 764:Core/Src/freertos.c ****       } 
 765:Core/Src/freertos.c ****     }
 766:Core/Src/freertos.c ****     // If number of digits required is more, then
 767:Core/Src/freertos.c ****     // add 0s at the beginning
 768:Core/Src/freertos.c ****     while (i < d)
 769:Core/Src/freertos.c ****         str[i++] = ' ';
 1122              		.loc 1 769 9 is_stmt 1 view .LVU240
 1123              		.loc 1 769 18 is_stmt 0 view .LVU241
 1124 002e 2023     		movs	r3, #32
 1125 0030 2B55     		strb	r3, [r5, r4]
 1126              		.loc 1 769 14 view .LVU242
 1127 0032 0134     		adds	r4, r4, #1
 1128              	.LVL66:
 1129              	.L52:
 768:Core/Src/freertos.c ****         str[i++] = ' ';
 1130              		.loc 1 768 11 is_stmt 1 view .LVU243
 1131 0034 9442     		cmp	r4, r2
 1132 0036 FADB     		blt	.L55
 770:Core/Src/freertos.c **** 
 771:Core/Src/freertos.c ****     reverse(str, i);
 1133              		.loc 1 771 5 view .LVU244
 1134 0038 2146     		mov	r1, r4
 1135 003a 2846     		mov	r0, r5
 1136 003c FFF7FEFF 		bl	reverse
 1137              	.LVL67:
 772:Core/Src/freertos.c ****     str[i] = '\0';
 1138              		.loc 1 772 5 view .LVU245
 1139              		.loc 1 772 12 is_stmt 0 view .LVU246
 1140 0040 0023     		movs	r3, #0
 1141 0042 2B55     		strb	r3, [r5, r4]
 773:Core/Src/freertos.c ****     return i;
 1142              		.loc 1 773 5 is_stmt 1 view .LVU247
 774:Core/Src/freertos.c **** }
 1143              		.loc 1 774 1 is_stmt 0 view .LVU248
 1144 0044 2046     		mov	r0, r4
 1145 0046 38BD     		pop	{r3, r4, r5, pc}
 1146              	.LVL68:
 1147              	.L59:
 1148              		.loc 1 774 1 view .LVU249
 1149              		.align	2
 1150              	.L58:
 1151 0048 CDCCCCCC 		.word	-858993459
 1152              		.cfi_endproc
 1153              	.LFE83:
 1155              		.section	.rodata.SettingPageDisplay.str1.4,"aMS",%progbits,1
 1156              		.align	2
 1157              	.LC6:
 1158 0000 4C657665 		.ascii	"Level: \000"
 1158      6C3A2000 
 1159              		.global	__aeabi_ui2d
 1160              		.global	__aeabi_ddiv
ARM GAS  C:\Users\Vento\AppData\Local\Temp\ccxXLphG.s 			page 36


 1161              		.global	__aeabi_dmul
 1162              		.global	__aeabi_dsub
 1163              		.global	__aeabi_d2uiz
 1164              		.align	2
 1165              	.LC7:
 1166 0008 434F4E54 		.ascii	"CONTROL\000"
 1166      524F4C00 
 1167              		.section	.text.SettingPageDisplay,"ax",%progbits
 1168              		.align	1
 1169              		.global	SettingPageDisplay
 1170              		.syntax unified
 1171              		.thumb
 1172              		.thumb_func
 1173              		.fpu softvfp
 1175              	SettingPageDisplay:
 1176              	.LFB77:
 505:Core/Src/freertos.c ****   ILI9341_FillScreen(ILI9341_BLACK);
 1177              		.loc 1 505 1 is_stmt 1 view -0
 1178              		.cfi_startproc
 1179              		@ args = 0, pretend = 0, frame = 8
 1180              		@ frame_needed = 0, uses_anonymous_args = 0
 1181 0000 2DE9F041 		push	{r4, r5, r6, r7, r8, lr}
 1182              	.LCFI14:
 1183              		.cfi_def_cfa_offset 24
 1184              		.cfi_offset 4, -24
 1185              		.cfi_offset 5, -20
 1186              		.cfi_offset 6, -16
 1187              		.cfi_offset 7, -12
 1188              		.cfi_offset 8, -8
 1189              		.cfi_offset 14, -4
 1190 0004 86B0     		sub	sp, sp, #24
 1191              	.LCFI15:
 1192              		.cfi_def_cfa_offset 48
 506:Core/Src/freertos.c **** 
 1193              		.loc 1 506 3 view .LVU251
 1194 0006 0020     		movs	r0, #0
 1195 0008 FFF7FEFF 		bl	ILI9341_FillScreen
 1196              	.LVL69:
 508:Core/Src/freertos.c **** 
 1197              		.loc 1 508 3 view .LVU252
 510:Core/Src/freertos.c **** 
 1198              		.loc 1 510 3 view .LVU253
 1199 000c 604C     		ldr	r4, .L62+8
 1200 000e 0026     		movs	r6, #0
 1201 0010 0296     		str	r6, [sp, #8]
 1202 0012 4FF6FF75 		movw	r5, #65535
 1203 0016 0195     		str	r5, [sp, #4]
 1204 0018 6368     		ldr	r3, [r4, #4]
 1205 001a 0093     		str	r3, [sp]
 1206 001c 2368     		ldr	r3, [r4]
 1207 001e 5D4A     		ldr	r2, .L62+12
 1208 0020 0F21     		movs	r1, #15
 1209 0022 6E20     		movs	r0, #110
 1210 0024 FFF7FEFF 		bl	ILI9341_WriteString
 1211              	.LVL70:
 512:Core/Src/freertos.c ****   intToStr(Channel01.PWM_percent, temp, 3);
 1212              		.loc 1 512 3 view .LVU254
ARM GAS  C:\Users\Vento\AppData\Local\Temp\ccxXLphG.s 			page 37


 1213 0028 DFF86C81 		ldr	r8, .L62+16
 1214 002c 0296     		str	r6, [sp, #8]
 1215 002e 0195     		str	r5, [sp, #4]
 1216 0030 6368     		ldr	r3, [r4, #4]
 1217 0032 0093     		str	r3, [sp]
 1218 0034 2368     		ldr	r3, [r4]
 1219 0036 4246     		mov	r2, r8
 1220 0038 2821     		movs	r1, #40
 1221 003a 0A20     		movs	r0, #10
 1222 003c FFF7FEFF 		bl	ILI9341_WriteString
 1223              	.LVL71:
 513:Core/Src/freertos.c ****   ILI9341_WriteString(109, 40, temp, Font_11x18, ILI9341_WHITE, ILI9341_BLACK);
 1224              		.loc 1 513 3 view .LVU255
 1225 0040 564F     		ldr	r7, .L62+20
 1226 0042 0322     		movs	r2, #3
 1227 0044 05A9     		add	r1, sp, #20
 1228 0046 3878     		ldrb	r0, [r7]	@ zero_extendqisi2
 1229 0048 FFF7FEFF 		bl	intToStr
 1230              	.LVL72:
 514:Core/Src/freertos.c **** 
 1231              		.loc 1 514 3 view .LVU256
 1232 004c 0296     		str	r6, [sp, #8]
 1233 004e 0195     		str	r5, [sp, #4]
 1234 0050 6368     		ldr	r3, [r4, #4]
 1235 0052 0093     		str	r3, [sp]
 1236 0054 2368     		ldr	r3, [r4]
 1237 0056 05AA     		add	r2, sp, #20
 1238 0058 2821     		movs	r1, #40
 1239 005a 6D20     		movs	r0, #109
 1240 005c FFF7FEFF 		bl	ILI9341_WriteString
 1241              	.LVL73:
 516:Core/Src/freertos.c ****   ILI9341_FillRectangle(22, 72, 278*((double)Channel01.PWM_percent/100) - 1, 17, ILI9341_GREEN);
 1242              		.loc 1 516 3 view .LVU257
 1243 0060 0095     		str	r5, [sp]
 1244 0062 1423     		movs	r3, #20
 1245 0064 4FF48C72 		mov	r2, #280
 1246 0068 4621     		movs	r1, #70
 1247 006a 1846     		mov	r0, r3
 1248 006c FFF7FEFF 		bl	ILI9341_DrawRectangle
 1249              	.LVL74:
 517:Core/Src/freertos.c **** 
 1250              		.loc 1 517 3 view .LVU258
 517:Core/Src/freertos.c **** 
 1251              		.loc 1 517 38 is_stmt 0 view .LVU259
 1252 0070 3878     		ldrb	r0, [r7]	@ zero_extendqisi2
 1253 0072 FFF7FEFF 		bl	__aeabi_ui2d
 1254              	.LVL75:
 517:Core/Src/freertos.c **** 
 1255              		.loc 1 517 67 view .LVU260
 1256 0076 0022     		movs	r2, #0
 1257 0078 494B     		ldr	r3, .L62+24
 1258 007a FFF7FEFF 		bl	__aeabi_ddiv
 1259              	.LVL76:
 517:Core/Src/freertos.c **** 
 1260              		.loc 1 517 36 view .LVU261
 1261 007e 42A3     		adr	r3, .L62
 1262 0080 D3E90023 		ldrd	r2, [r3]
ARM GAS  C:\Users\Vento\AppData\Local\Temp\ccxXLphG.s 			page 38


 1263 0084 FFF7FEFF 		bl	__aeabi_dmul
 1264              	.LVL77:
 517:Core/Src/freertos.c **** 
 1265              		.loc 1 517 73 view .LVU262
 1266 0088 0022     		movs	r2, #0
 1267 008a 464B     		ldr	r3, .L62+28
 1268 008c FFF7FEFF 		bl	__aeabi_dsub
 1269              	.LVL78:
 517:Core/Src/freertos.c **** 
 1270              		.loc 1 517 3 view .LVU263
 1271 0090 FFF7FEFF 		bl	__aeabi_d2uiz
 1272              	.LVL79:
 1273 0094 4FF4FC67 		mov	r7, #2016
 1274 0098 0097     		str	r7, [sp]
 1275 009a 1123     		movs	r3, #17
 1276 009c 82B2     		uxth	r2, r0
 1277 009e 4821     		movs	r1, #72
 1278 00a0 1620     		movs	r0, #22
 1279 00a2 FFF7FEFF 		bl	ILI9341_FillRectangle
 1280              	.LVL80:
 519:Core/Src/freertos.c **** 
 1281              		.loc 1 519 3 is_stmt 1 view .LVU264
 1282 00a6 0296     		str	r6, [sp, #8]
 1283 00a8 0195     		str	r5, [sp, #4]
 1284 00aa 6368     		ldr	r3, [r4, #4]
 1285 00ac 0093     		str	r3, [sp]
 1286 00ae 2368     		ldr	r3, [r4]
 1287 00b0 3D4A     		ldr	r2, .L62+32
 1288 00b2 6921     		movs	r1, #105
 1289 00b4 6E20     		movs	r0, #110
 1290 00b6 FFF7FEFF 		bl	ILI9341_WriteString
 1291              	.LVL81:
 521:Core/Src/freertos.c ****   intToStr(Channel02.PWM_percent, temp, 3);
 1292              		.loc 1 521 3 view .LVU265
 1293 00ba 0296     		str	r6, [sp, #8]
 1294 00bc 0195     		str	r5, [sp, #4]
 1295 00be 6368     		ldr	r3, [r4, #4]
 1296 00c0 0093     		str	r3, [sp]
 1297 00c2 2368     		ldr	r3, [r4]
 1298 00c4 4246     		mov	r2, r8
 1299 00c6 8221     		movs	r1, #130
 1300 00c8 0A20     		movs	r0, #10
 1301 00ca FFF7FEFF 		bl	ILI9341_WriteString
 1302              	.LVL82:
 522:Core/Src/freertos.c ****   ILI9341_WriteString(109, 130, temp, Font_11x18, ILI9341_WHITE, ILI9341_BLACK);
 1303              		.loc 1 522 3 view .LVU266
 1304 00ce DFF8DC80 		ldr	r8, .L62+36
 1305 00d2 0322     		movs	r2, #3
 1306 00d4 05A9     		add	r1, sp, #20
 1307 00d6 98F80000 		ldrb	r0, [r8]	@ zero_extendqisi2
 1308 00da FFF7FEFF 		bl	intToStr
 1309              	.LVL83:
 523:Core/Src/freertos.c **** 
 1310              		.loc 1 523 3 view .LVU267
 1311 00de 0296     		str	r6, [sp, #8]
 1312 00e0 0195     		str	r5, [sp, #4]
 1313 00e2 6368     		ldr	r3, [r4, #4]
ARM GAS  C:\Users\Vento\AppData\Local\Temp\ccxXLphG.s 			page 39


 1314 00e4 0093     		str	r3, [sp]
 1315 00e6 2368     		ldr	r3, [r4]
 1316 00e8 05AA     		add	r2, sp, #20
 1317 00ea 8221     		movs	r1, #130
 1318 00ec 6D20     		movs	r0, #109
 1319 00ee FFF7FEFF 		bl	ILI9341_WriteString
 1320              	.LVL84:
 525:Core/Src/freertos.c ****   ILI9341_FillRectangle(22, 162, 278*((double)Channel02.PWM_percent/100) - 1, 17, ILI9341_GREEN);
 1321              		.loc 1 525 3 view .LVU268
 1322 00f2 0095     		str	r5, [sp]
 1323 00f4 1423     		movs	r3, #20
 1324 00f6 4FF48C72 		mov	r2, #280
 1325 00fa A021     		movs	r1, #160
 1326 00fc 1846     		mov	r0, r3
 1327 00fe FFF7FEFF 		bl	ILI9341_DrawRectangle
 1328              	.LVL85:
 526:Core/Src/freertos.c **** 
 1329              		.loc 1 526 3 view .LVU269
 526:Core/Src/freertos.c **** 
 1330              		.loc 1 526 39 is_stmt 0 view .LVU270
 1331 0102 98F80000 		ldrb	r0, [r8]	@ zero_extendqisi2
 1332 0106 FFF7FEFF 		bl	__aeabi_ui2d
 1333              	.LVL86:
 526:Core/Src/freertos.c **** 
 1334              		.loc 1 526 68 view .LVU271
 1335 010a 0022     		movs	r2, #0
 1336 010c 244B     		ldr	r3, .L62+24
 1337 010e FFF7FEFF 		bl	__aeabi_ddiv
 1338              	.LVL87:
 526:Core/Src/freertos.c **** 
 1339              		.loc 1 526 37 view .LVU272
 1340 0112 1DA3     		adr	r3, .L62
 1341 0114 D3E90023 		ldrd	r2, [r3]
 1342 0118 FFF7FEFF 		bl	__aeabi_dmul
 1343              	.LVL88:
 526:Core/Src/freertos.c **** 
 1344              		.loc 1 526 74 view .LVU273
 1345 011c 0022     		movs	r2, #0
 1346 011e 214B     		ldr	r3, .L62+28
 1347 0120 FFF7FEFF 		bl	__aeabi_dsub
 1348              	.LVL89:
 526:Core/Src/freertos.c **** 
 1349              		.loc 1 526 3 view .LVU274
 1350 0124 FFF7FEFF 		bl	__aeabi_d2uiz
 1351              	.LVL90:
 1352 0128 0097     		str	r7, [sp]
 1353 012a 1123     		movs	r3, #17
 1354 012c 82B2     		uxth	r2, r0
 1355 012e A221     		movs	r1, #162
 1356 0130 1620     		movs	r0, #22
 1357 0132 FFF7FEFF 		bl	ILI9341_FillRectangle
 1358              	.LVL91:
 529:Core/Src/freertos.c ****                         Control_Setting.pos_y - (Control_Setting.shape_h/2), 
 1359              		.loc 1 529 3 is_stmt 1 view .LVU275
 529:Core/Src/freertos.c ****                         Control_Setting.pos_y - (Control_Setting.shape_h/2), 
 1360              		.loc 1 529 40 is_stmt 0 view .LVU276
 1361 0136 1E4D     		ldr	r5, .L62+40
ARM GAS  C:\Users\Vento\AppData\Local\Temp\ccxXLphG.s 			page 40


 1362 0138 2888     		ldrh	r0, [r5]
 529:Core/Src/freertos.c ****                         Control_Setting.pos_y - (Control_Setting.shape_h/2), 
 1363              		.loc 1 529 65 view .LVU277
 1364 013a EA88     		ldrh	r2, [r5, #6]
 530:Core/Src/freertos.c ****                         Control_Setting.shape_w, 
 1365              		.loc 1 530 40 view .LVU278
 1366 013c 6988     		ldrh	r1, [r5, #2]
 530:Core/Src/freertos.c ****                         Control_Setting.shape_w, 
 1367              		.loc 1 530 65 view .LVU279
 1368 013e 2B89     		ldrh	r3, [r5, #8]
 529:Core/Src/freertos.c ****                         Control_Setting.pos_y - (Control_Setting.shape_h/2), 
 1369              		.loc 1 529 3 view .LVU280
 1370 0140 A1EB5301 		sub	r1, r1, r3, lsr #1
 1371 0144 A0EB5200 		sub	r0, r0, r2, lsr #1
 1372 0148 6F89     		ldrh	r7, [r5, #10]
 1373 014a 0097     		str	r7, [sp]
 1374 014c 89B2     		uxth	r1, r1
 1375 014e 80B2     		uxth	r0, r0
 1376 0150 FFF7FEFF 		bl	ILI9341_FillRectangle
 1377              	.LVL92:
 534:Core/Src/freertos.c ****                       Control_Setting.pos_y - (Control_Setting.shape_h/2) + 7, 
 1378              		.loc 1 534 3 is_stmt 1 view .LVU281
 534:Core/Src/freertos.c ****                       Control_Setting.pos_y - (Control_Setting.shape_h/2) + 7, 
 1379              		.loc 1 534 38 is_stmt 0 view .LVU282
 1380 0154 2888     		ldrh	r0, [r5]
 534:Core/Src/freertos.c ****                       Control_Setting.pos_y - (Control_Setting.shape_h/2) + 7, 
 1381              		.loc 1 534 63 view .LVU283
 1382 0156 EB88     		ldrh	r3, [r5, #6]
 534:Core/Src/freertos.c ****                       Control_Setting.pos_y - (Control_Setting.shape_h/2) + 7, 
 1383              		.loc 1 534 45 view .LVU284
 1384 0158 A0EB5300 		sub	r0, r0, r3, lsr #1
 1385 015c 80B2     		uxth	r0, r0
 535:Core/Src/freertos.c ****                       "CONTROL", 
 1386              		.loc 1 535 38 view .LVU285
 1387 015e 6988     		ldrh	r1, [r5, #2]
 535:Core/Src/freertos.c ****                       "CONTROL", 
 1388              		.loc 1 535 63 view .LVU286
 1389 0160 2B89     		ldrh	r3, [r5, #8]
 535:Core/Src/freertos.c ****                       "CONTROL", 
 1390              		.loc 1 535 45 view .LVU287
 1391 0162 A1EB5301 		sub	r1, r1, r3, lsr #1
 1392 0166 89B2     		uxth	r1, r1
 534:Core/Src/freertos.c ****                       Control_Setting.pos_y - (Control_Setting.shape_h/2) + 7, 
 1393              		.loc 1 534 3 view .LVU288
 1394 0168 0731     		adds	r1, r1, #7
 1395 016a 0C30     		adds	r0, r0, #12
 1396 016c 6B89     		ldrh	r3, [r5, #10]
 1397 016e 0293     		str	r3, [sp, #8]
 1398 0170 0196     		str	r6, [sp, #4]
 1399 0172 6368     		ldr	r3, [r4, #4]
 1400 0174 0093     		str	r3, [sp]
 1401 0176 2368     		ldr	r3, [r4]
 1402 0178 0E4A     		ldr	r2, .L62+44
 1403 017a 89B2     		uxth	r1, r1
 1404 017c 80B2     		uxth	r0, r0
 1405 017e FFF7FEFF 		bl	ILI9341_WriteString
 1406              	.LVL93:
ARM GAS  C:\Users\Vento\AppData\Local\Temp\ccxXLphG.s 			page 41


 540:Core/Src/freertos.c **** 
 1407              		.loc 1 540 1 view .LVU289
 1408 0182 06B0     		add	sp, sp, #24
 1409              	.LCFI16:
 1410              		.cfi_def_cfa_offset 24
 1411              		@ sp needed
 1412 0184 BDE8F081 		pop	{r4, r5, r6, r7, r8, pc}
 1413              	.L63:
 1414              		.align	3
 1415              	.L62:
 1416 0188 00000000 		.word	0
 1417 018c 00607140 		.word	1081171968
 1418 0190 00000000 		.word	Font_11x18
 1419 0194 00000000 		.word	.LC0
 1420 0198 00000000 		.word	.LC6
 1421 019c 00000000 		.word	.LANCHOR21
 1422 01a0 00005940 		.word	1079574528
 1423 01a4 0000F03F 		.word	1072693248
 1424 01a8 0C000000 		.word	.LC1
 1425 01ac 00000000 		.word	.LANCHOR22
 1426 01b0 00000000 		.word	.LANCHOR17
 1427 01b4 08000000 		.word	.LC7
 1428              		.cfi_endproc
 1429              	.LFE77:
 1431              		.section	.text.SettingPageHandler,"ax",%progbits
 1432              		.align	1
 1433              		.global	SettingPageHandler
 1434              		.syntax unified
 1435              		.thumb
 1436              		.thumb_func
 1437              		.fpu softvfp
 1439              	SettingPageHandler:
 1440              	.LVL94:
 1441              	.LFB80:
 689:Core/Src/freertos.c ****   if ((x <= (Control_Setting.pos_y + (Control_Setting.shape_h/2))) && 
 1442              		.loc 1 689 1 is_stmt 1 view -0
 1443              		.cfi_startproc
 1444              		@ args = 0, pretend = 0, frame = 8
 1445              		@ frame_needed = 0, uses_anonymous_args = 0
 689:Core/Src/freertos.c ****   if ((x <= (Control_Setting.pos_y + (Control_Setting.shape_h/2))) && 
 1446              		.loc 1 689 1 is_stmt 0 view .LVU291
 1447 0000 F0B5     		push	{r4, r5, r6, r7, lr}
 1448              	.LCFI17:
 1449              		.cfi_def_cfa_offset 20
 1450              		.cfi_offset 4, -20
 1451              		.cfi_offset 5, -16
 1452              		.cfi_offset 6, -12
 1453              		.cfi_offset 7, -8
 1454              		.cfi_offset 14, -4
 1455 0002 87B0     		sub	sp, sp, #28
 1456              	.LCFI18:
 1457              		.cfi_def_cfa_offset 48
 1458 0004 0446     		mov	r4, r0
 1459 0006 0D46     		mov	r5, r1
 690:Core/Src/freertos.c ****       (x >= (Control_Setting.pos_y - (Control_Setting.shape_h/2))) && 
 1460              		.loc 1 690 3 is_stmt 1 view .LVU292
 690:Core/Src/freertos.c ****       (x >= (Control_Setting.pos_y - (Control_Setting.shape_h/2))) && 
ARM GAS  C:\Users\Vento\AppData\Local\Temp\ccxXLphG.s 			page 42


 1461              		.loc 1 690 29 is_stmt 0 view .LVU293
 1462 0008 5F4B     		ldr	r3, .L72+8
 1463 000a 5A88     		ldrh	r2, [r3, #2]
 690:Core/Src/freertos.c ****       (x >= (Control_Setting.pos_y - (Control_Setting.shape_h/2))) && 
 1464              		.loc 1 690 54 view .LVU294
 1465 000c 1B89     		ldrh	r3, [r3, #8]
 690:Core/Src/freertos.c ****       (x >= (Control_Setting.pos_y - (Control_Setting.shape_h/2))) && 
 1466              		.loc 1 690 62 view .LVU295
 1467 000e 5908     		lsrs	r1, r3, #1
 1468              	.LVL95:
 690:Core/Src/freertos.c ****       (x >= (Control_Setting.pos_y - (Control_Setting.shape_h/2))) && 
 1469              		.loc 1 690 36 view .LVU296
 1470 0010 02EB5303 		add	r3, r2, r3, lsr #1
 690:Core/Src/freertos.c ****       (x >= (Control_Setting.pos_y - (Control_Setting.shape_h/2))) && 
 1471              		.loc 1 690 6 view .LVU297
 1472 0014 9842     		cmp	r0, r3
 1473 0016 0DDC     		bgt	.L65
 691:Core/Src/freertos.c ****       (y <= (Control_Setting.pos_x + (Control_Setting.shape_w/2))) && 
 1474              		.loc 1 691 36 discriminator 1 view .LVU298
 1475 0018 521A     		subs	r2, r2, r1
 690:Core/Src/freertos.c ****       (x >= (Control_Setting.pos_y - (Control_Setting.shape_h/2))) && 
 1476              		.loc 1 690 68 discriminator 1 view .LVU299
 1477 001a 9042     		cmp	r0, r2
 1478 001c 0ADB     		blt	.L65
 692:Core/Src/freertos.c ****       (y >= (Control_Setting.pos_x - (Control_Setting.shape_w/2))))
 1479              		.loc 1 692 29 view .LVU300
 1480 001e 5A4B     		ldr	r3, .L72+8
 1481 0020 1A88     		ldrh	r2, [r3]
 692:Core/Src/freertos.c ****       (y >= (Control_Setting.pos_x - (Control_Setting.shape_w/2))))
 1482              		.loc 1 692 54 view .LVU301
 1483 0022 DB88     		ldrh	r3, [r3, #6]
 692:Core/Src/freertos.c ****       (y >= (Control_Setting.pos_x - (Control_Setting.shape_w/2))))
 1484              		.loc 1 692 62 view .LVU302
 1485 0024 5908     		lsrs	r1, r3, #1
 692:Core/Src/freertos.c ****       (y >= (Control_Setting.pos_x - (Control_Setting.shape_w/2))))
 1486              		.loc 1 692 36 view .LVU303
 1487 0026 02EB5303 		add	r3, r2, r3, lsr #1
 691:Core/Src/freertos.c ****       (y <= (Control_Setting.pos_x + (Control_Setting.shape_w/2))) && 
 1488              		.loc 1 691 68 view .LVU304
 1489 002a 9D42     		cmp	r5, r3
 1490 002c 02DC     		bgt	.L65
 693:Core/Src/freertos.c ****   {
 1491              		.loc 1 693 36 view .LVU305
 1492 002e 521A     		subs	r2, r2, r1
 692:Core/Src/freertos.c ****       (y >= (Control_Setting.pos_x - (Control_Setting.shape_w/2))))
 1493              		.loc 1 692 68 view .LVU306
 1494 0030 9542     		cmp	r5, r2
 1495 0032 14DA     		bge	.L69
 1496              	.LVL96:
 1497              	.L65:
 699:Core/Src/freertos.c ****   {
 1498              		.loc 1 699 3 is_stmt 1 view .LVU307
 699:Core/Src/freertos.c ****   {
 1499              		.loc 1 699 17 is_stmt 0 view .LVU308
 1500 0034 A4F14603 		sub	r3, r4, #70
 1501 0038 9BB2     		uxth	r3, r3
 699:Core/Src/freertos.c ****   {
ARM GAS  C:\Users\Vento\AppData\Local\Temp\ccxXLphG.s 			page 43


 1502              		.loc 1 699 6 view .LVU309
 1503 003a 142B     		cmp	r3, #20
 1504 003c 04D8     		bhi	.L66
 699:Core/Src/freertos.c ****   {
 1505              		.loc 1 699 30 discriminator 1 view .LVU310
 1506 003e 132D     		cmp	r5, #19
 1507 0040 02D9     		bls	.L66
 699:Core/Src/freertos.c ****   {
 1508              		.loc 1 699 43 discriminator 2 view .LVU311
 1509 0042 B5F5967F 		cmp	r5, #300
 1510 0046 12D9     		bls	.L70
 1511              	.L66:
 709:Core/Src/freertos.c ****   {
 1512              		.loc 1 709 3 is_stmt 1 view .LVU312
 709:Core/Src/freertos.c ****   {
 1513              		.loc 1 709 18 is_stmt 0 view .LVU313
 1514 0048 A03C     		subs	r4, r4, #160
 1515 004a A4B2     		uxth	r4, r4
 709:Core/Src/freertos.c ****   {
 1516              		.loc 1 709 6 view .LVU314
 1517 004c 142C     		cmp	r4, #20
 1518 004e 04D8     		bhi	.L64
 709:Core/Src/freertos.c ****   {
 1519              		.loc 1 709 32 discriminator 1 view .LVU315
 1520 0050 132D     		cmp	r5, #19
 1521 0052 02D9     		bls	.L64
 709:Core/Src/freertos.c ****   {
 1522              		.loc 1 709 45 discriminator 2 view .LVU316
 1523 0054 B5F5967F 		cmp	r5, #300
 1524 0058 4ED9     		bls	.L71
 1525              	.L64:
 718:Core/Src/freertos.c **** 
 1526              		.loc 1 718 1 view .LVU317
 1527 005a 07B0     		add	sp, sp, #28
 1528              	.LCFI19:
 1529              		.cfi_remember_state
 1530              		.cfi_def_cfa_offset 20
 1531              		@ sp needed
 1532 005c F0BD     		pop	{r4, r5, r6, r7, pc}
 1533              	.LVL97:
 1534              	.L69:
 1535              	.LCFI20:
 1536              		.cfi_restore_state
 695:Core/Src/freertos.c ****     vTaskResume(myDisplayHandle);
 1537              		.loc 1 695 5 is_stmt 1 view .LVU318
 695:Core/Src/freertos.c ****     vTaskResume(myDisplayHandle);
 1538              		.loc 1 695 17 is_stmt 0 view .LVU319
 1539 005e 4B4B     		ldr	r3, .L72+12
 1540 0060 0022     		movs	r2, #0
 1541 0062 1A70     		strb	r2, [r3]
 696:Core/Src/freertos.c ****   }
 1542              		.loc 1 696 5 is_stmt 1 view .LVU320
 1543 0064 4A4B     		ldr	r3, .L72+16
 1544 0066 1868     		ldr	r0, [r3]
 1545              	.LVL98:
 696:Core/Src/freertos.c ****   }
 1546              		.loc 1 696 5 is_stmt 0 view .LVU321
ARM GAS  C:\Users\Vento\AppData\Local\Temp\ccxXLphG.s 			page 44


 1547 0068 FFF7FEFF 		bl	vTaskResume
 1548              	.LVL99:
 1549 006c E2E7     		b	.L65
 1550              	.L70:
 1551              	.LBB2:
 701:Core/Src/freertos.c ****     Channel01.PWM_percent = (y - 20) * 100 / 280;
 1552              		.loc 1 701 5 is_stmt 1 view .LVU322
 702:Core/Src/freertos.c ****     intToStr(Channel01.PWM_percent, temp, 3);
 1553              		.loc 1 702 5 view .LVU323
 702:Core/Src/freertos.c ****     intToStr(Channel01.PWM_percent, temp, 3);
 1554              		.loc 1 702 32 is_stmt 0 view .LVU324
 1555 006e A5F11403 		sub	r3, r5, #20
 702:Core/Src/freertos.c ****     intToStr(Channel01.PWM_percent, temp, 3);
 1556              		.loc 1 702 38 view .LVU325
 1557 0072 6422     		movs	r2, #100
 1558 0074 02FB03F3 		mul	r3, r2, r3
 702:Core/Src/freertos.c ****     intToStr(Channel01.PWM_percent, temp, 3);
 1559              		.loc 1 702 44 view .LVU326
 1560 0078 4648     		ldr	r0, .L72+20
 1561 007a 80FB0320 		smull	r2, r0, r0, r3
 1562 007e C218     		adds	r2, r0, r3
 1563 0080 D817     		asrs	r0, r3, #31
 1564 0082 C0EB2220 		rsb	r0, r0, r2, asr #8
 702:Core/Src/freertos.c ****     intToStr(Channel01.PWM_percent, temp, 3);
 1565              		.loc 1 702 27 view .LVU327
 1566 0086 C0B2     		uxtb	r0, r0
 1567 0088 434E     		ldr	r6, .L72+24
 1568 008a 3070     		strb	r0, [r6]
 703:Core/Src/freertos.c ****     ILI9341_WriteString(109, 40, temp, Font_11x18, ILI9341_WHITE, ILI9341_BLACK);
 1569              		.loc 1 703 5 is_stmt 1 view .LVU328
 1570 008c 0322     		movs	r2, #3
 1571 008e 05A9     		add	r1, sp, #20
 1572 0090 FFF7FEFF 		bl	intToStr
 1573              	.LVL100:
 704:Core/Src/freertos.c ****     ILI9341_FillRectangle(22, 72, 277, 17, ILI9341_BLACK);
 1574              		.loc 1 704 5 view .LVU329
 1575 0094 414B     		ldr	r3, .L72+28
 1576 0096 0027     		movs	r7, #0
 1577 0098 0297     		str	r7, [sp, #8]
 1578 009a 4FF6FF72 		movw	r2, #65535
 1579 009e 0192     		str	r2, [sp, #4]
 1580 00a0 5A68     		ldr	r2, [r3, #4]
 1581 00a2 0092     		str	r2, [sp]
 1582 00a4 1B68     		ldr	r3, [r3]
 1583 00a6 05AA     		add	r2, sp, #20
 1584 00a8 2821     		movs	r1, #40
 1585 00aa 6D20     		movs	r0, #109
 1586 00ac FFF7FEFF 		bl	ILI9341_WriteString
 1587              	.LVL101:
 705:Core/Src/freertos.c ****     ILI9341_FillRectangle(22, 72, 278*((double)Channel01.PWM_percent/100) - 1, 17, ILI9341_GREEN);
 1588              		.loc 1 705 5 view .LVU330
 1589 00b0 0097     		str	r7, [sp]
 1590 00b2 1123     		movs	r3, #17
 1591 00b4 40F21512 		movw	r2, #277
 1592 00b8 4821     		movs	r1, #72
 1593 00ba 1620     		movs	r0, #22
 1594 00bc FFF7FEFF 		bl	ILI9341_FillRectangle
ARM GAS  C:\Users\Vento\AppData\Local\Temp\ccxXLphG.s 			page 45


 1595              	.LVL102:
 706:Core/Src/freertos.c ****   }
 1596              		.loc 1 706 5 view .LVU331
 706:Core/Src/freertos.c ****   }
 1597              		.loc 1 706 40 is_stmt 0 view .LVU332
 1598 00c0 3078     		ldrb	r0, [r6]	@ zero_extendqisi2
 1599 00c2 FFF7FEFF 		bl	__aeabi_ui2d
 1600              	.LVL103:
 706:Core/Src/freertos.c ****   }
 1601              		.loc 1 706 69 view .LVU333
 1602 00c6 0022     		movs	r2, #0
 1603 00c8 354B     		ldr	r3, .L72+32
 1604 00ca FFF7FEFF 		bl	__aeabi_ddiv
 1605              	.LVL104:
 706:Core/Src/freertos.c ****   }
 1606              		.loc 1 706 38 view .LVU334
 1607 00ce 2CA3     		adr	r3, .L72
 1608 00d0 D3E90023 		ldrd	r2, [r3]
 1609 00d4 FFF7FEFF 		bl	__aeabi_dmul
 1610              	.LVL105:
 706:Core/Src/freertos.c ****   }
 1611              		.loc 1 706 75 view .LVU335
 1612 00d8 0022     		movs	r2, #0
 1613 00da 324B     		ldr	r3, .L72+36
 1614 00dc FFF7FEFF 		bl	__aeabi_dsub
 1615              	.LVL106:
 706:Core/Src/freertos.c ****   }
 1616              		.loc 1 706 5 view .LVU336
 1617 00e0 FFF7FEFF 		bl	__aeabi_d2uiz
 1618              	.LVL107:
 1619 00e4 4FF4FC63 		mov	r3, #2016
 1620 00e8 0093     		str	r3, [sp]
 1621 00ea 1123     		movs	r3, #17
 1622 00ec 82B2     		uxth	r2, r0
 1623 00ee 4821     		movs	r1, #72
 1624 00f0 1620     		movs	r0, #22
 1625 00f2 FFF7FEFF 		bl	ILI9341_FillRectangle
 1626              	.LVL108:
 1627 00f6 A7E7     		b	.L66
 1628              	.L71:
 1629              	.LBE2:
 1630              	.LBB3:
 711:Core/Src/freertos.c ****     Channel02.PWM_percent = (y - 20) * 100 / 280;
 1631              		.loc 1 711 5 is_stmt 1 view .LVU337
 712:Core/Src/freertos.c ****     intToStr(Channel02.PWM_percent, temp, 3);
 1632              		.loc 1 712 5 view .LVU338
 712:Core/Src/freertos.c ****     intToStr(Channel02.PWM_percent, temp, 3);
 1633              		.loc 1 712 32 is_stmt 0 view .LVU339
 1634 00f8 143D     		subs	r5, r5, #20
 712:Core/Src/freertos.c ****     intToStr(Channel02.PWM_percent, temp, 3);
 1635              		.loc 1 712 38 view .LVU340
 1636 00fa 6423     		movs	r3, #100
 1637 00fc 03FB05F5 		mul	r5, r3, r5
 712:Core/Src/freertos.c ****     intToStr(Channel02.PWM_percent, temp, 3);
 1638              		.loc 1 712 44 view .LVU341
 1639 0100 2448     		ldr	r0, .L72+20
 1640 0102 80FB0530 		smull	r3, r0, r0, r5
ARM GAS  C:\Users\Vento\AppData\Local\Temp\ccxXLphG.s 			page 46


 1641 0106 4319     		adds	r3, r0, r5
 1642 0108 E817     		asrs	r0, r5, #31
 1643 010a C0EB2320 		rsb	r0, r0, r3, asr #8
 712:Core/Src/freertos.c ****     intToStr(Channel02.PWM_percent, temp, 3);
 1644              		.loc 1 712 27 view .LVU342
 1645 010e C0B2     		uxtb	r0, r0
 1646 0110 254C     		ldr	r4, .L72+40
 1647 0112 2070     		strb	r0, [r4]
 713:Core/Src/freertos.c ****     ILI9341_WriteString(109, 130, temp, Font_11x18, ILI9341_WHITE, ILI9341_BLACK);
 1648              		.loc 1 713 5 is_stmt 1 view .LVU343
 1649 0114 0322     		movs	r2, #3
 1650 0116 05A9     		add	r1, sp, #20
 1651 0118 FFF7FEFF 		bl	intToStr
 1652              	.LVL109:
 714:Core/Src/freertos.c ****     ILI9341_FillRectangle(22, 162, 277, 17, ILI9341_BLACK);
 1653              		.loc 1 714 5 view .LVU344
 1654 011c 1F4B     		ldr	r3, .L72+28
 1655 011e 0025     		movs	r5, #0
 1656 0120 0295     		str	r5, [sp, #8]
 1657 0122 4FF6FF72 		movw	r2, #65535
 1658 0126 0192     		str	r2, [sp, #4]
 1659 0128 5A68     		ldr	r2, [r3, #4]
 1660 012a 0092     		str	r2, [sp]
 1661 012c 1B68     		ldr	r3, [r3]
 1662 012e 05AA     		add	r2, sp, #20
 1663 0130 8221     		movs	r1, #130
 1664 0132 6D20     		movs	r0, #109
 1665 0134 FFF7FEFF 		bl	ILI9341_WriteString
 1666              	.LVL110:
 715:Core/Src/freertos.c ****     ILI9341_FillRectangle(22, 162, 278*((double)Channel02.PWM_percent/100) - 1, 17, ILI9341_GREEN);
 1667              		.loc 1 715 5 view .LVU345
 1668 0138 0095     		str	r5, [sp]
 1669 013a 1123     		movs	r3, #17
 1670 013c 40F21512 		movw	r2, #277
 1671 0140 A221     		movs	r1, #162
 1672 0142 1620     		movs	r0, #22
 1673 0144 FFF7FEFF 		bl	ILI9341_FillRectangle
 1674              	.LVL111:
 716:Core/Src/freertos.c ****   }
 1675              		.loc 1 716 5 view .LVU346
 716:Core/Src/freertos.c ****   }
 1676              		.loc 1 716 41 is_stmt 0 view .LVU347
 1677 0148 2078     		ldrb	r0, [r4]	@ zero_extendqisi2
 1678 014a FFF7FEFF 		bl	__aeabi_ui2d
 1679              	.LVL112:
 716:Core/Src/freertos.c ****   }
 1680              		.loc 1 716 70 view .LVU348
 1681 014e 0022     		movs	r2, #0
 1682 0150 134B     		ldr	r3, .L72+32
 1683 0152 FFF7FEFF 		bl	__aeabi_ddiv
 1684              	.LVL113:
 716:Core/Src/freertos.c ****   }
 1685              		.loc 1 716 39 view .LVU349
 1686 0156 0AA3     		adr	r3, .L72
 1687 0158 D3E90023 		ldrd	r2, [r3]
 1688 015c FFF7FEFF 		bl	__aeabi_dmul
 1689              	.LVL114:
ARM GAS  C:\Users\Vento\AppData\Local\Temp\ccxXLphG.s 			page 47


 716:Core/Src/freertos.c ****   }
 1690              		.loc 1 716 76 view .LVU350
 1691 0160 0022     		movs	r2, #0
 1692 0162 104B     		ldr	r3, .L72+36
 1693 0164 FFF7FEFF 		bl	__aeabi_dsub
 1694              	.LVL115:
 716:Core/Src/freertos.c ****   }
 1695              		.loc 1 716 5 view .LVU351
 1696 0168 FFF7FEFF 		bl	__aeabi_d2uiz
 1697              	.LVL116:
 1698 016c 4FF4FC63 		mov	r3, #2016
 1699 0170 0093     		str	r3, [sp]
 1700 0172 1123     		movs	r3, #17
 1701 0174 82B2     		uxth	r2, r0
 1702 0176 A221     		movs	r1, #162
 1703 0178 1620     		movs	r0, #22
 1704 017a FFF7FEFF 		bl	ILI9341_FillRectangle
 1705              	.LVL117:
 1706              	.LBE3:
 718:Core/Src/freertos.c **** 
 1707              		.loc 1 718 1 view .LVU352
 1708 017e 6CE7     		b	.L64
 1709              	.L73:
 1710              		.align	3
 1711              	.L72:
 1712 0180 00000000 		.word	0
 1713 0184 00607140 		.word	1081171968
 1714 0188 00000000 		.word	.LANCHOR17
 1715 018c 00000000 		.word	.LANCHOR19
 1716 0190 00000000 		.word	.LANCHOR10
 1717 0194 EBA00EEA 		.word	-368140053
 1718 0198 00000000 		.word	.LANCHOR21
 1719 019c 00000000 		.word	Font_11x18
 1720 01a0 00005940 		.word	1079574528
 1721 01a4 0000F03F 		.word	1072693248
 1722 01a8 00000000 		.word	.LANCHOR22
 1723              		.cfi_endproc
 1724              	.LFE80:
 1726              		.section	.text.IRQ_Task,"ax",%progbits
 1727              		.align	1
 1728              		.global	IRQ_Task
 1729              		.syntax unified
 1730              		.thumb
 1731              		.thumb_func
 1732              		.fpu softvfp
 1734              	IRQ_Task:
 1735              	.LVL118:
 1736              	.LFB72:
 279:Core/Src/freertos.c ****   /* USER CODE BEGIN IRQ_Task */
 1737              		.loc 1 279 1 is_stmt 1 view -0
 1738              		.cfi_startproc
 1739              		@ args = 0, pretend = 0, frame = 8
 1740              		@ frame_needed = 0, uses_anonymous_args = 0
 279:Core/Src/freertos.c ****   /* USER CODE BEGIN IRQ_Task */
 1741              		.loc 1 279 1 is_stmt 0 view .LVU354
 1742 0000 70B5     		push	{r4, r5, r6, lr}
 1743              	.LCFI21:
ARM GAS  C:\Users\Vento\AppData\Local\Temp\ccxXLphG.s 			page 48


 1744              		.cfi_def_cfa_offset 16
 1745              		.cfi_offset 4, -16
 1746              		.cfi_offset 5, -12
 1747              		.cfi_offset 6, -8
 1748              		.cfi_offset 14, -4
 1749 0002 82B0     		sub	sp, sp, #8
 1750              	.LCFI22:
 1751              		.cfi_def_cfa_offset 24
 281:Core/Src/freertos.c ****   uint32_t currentTick = 0, lastTick = 0;
 1752              		.loc 1 281 3 is_stmt 1 view .LVU355
 282:Core/Src/freertos.c ****   /* Infinite loop */
 1753              		.loc 1 282 3 view .LVU356
 1754              	.LVL119:
 282:Core/Src/freertos.c ****   /* Infinite loop */
 1755              		.loc 1 282 29 is_stmt 0 view .LVU357
 1756 0004 0025     		movs	r5, #0
 1757 0006 0DE0     		b	.L76
 1758              	.LVL120:
 1759              	.L79:
 313:Core/Src/freertos.c ****           {
 1760              		.loc 1 313 11 is_stmt 1 view .LVU358
 1761 0008 374B     		ldr	r3, .L85
 1762 000a 1B78     		ldrb	r3, [r3]	@ zero_extendqisi2
 1763 000c 012B     		cmp	r3, #1
 1764 000e 5CD0     		beq	.L81
 1765 0010 022B     		cmp	r3, #2
 1766 0012 61D0     		beq	.L82
 1767 0014 002B     		cmp	r3, #0
 1768 0016 51D0     		beq	.L84
 1769              	.L80:
 332:Core/Src/freertos.c ****         
 1770              		.loc 1 332 9 view .LVU359
 1771 0018 3449     		ldr	r1, .L85+4
 1772 001a 354B     		ldr	r3, .L85+8
 1773 001c 1868     		ldr	r0, [r3]
 1774 001e FFF7FEFF 		bl	osTimerStart
 1775              	.LVL121:
 293:Core/Src/freertos.c **** 
 1776              		.loc 1 293 18 is_stmt 0 view .LVU360
 1777 0022 2546     		mov	r5, r4
 1778              	.LVL122:
 1779              	.L76:
 284:Core/Src/freertos.c ****   {
 1780              		.loc 1 284 3 is_stmt 1 view .LVU361
 286:Core/Src/freertos.c ****     if (osSemaphoreAcquire(BinarySemHandle, portMAX_DELAY) == osOK)
 1781              		.loc 1 286 5 view .LVU362
 1782 0024 6420     		movs	r0, #100
 1783 0026 FFF7FEFF 		bl	osDelay
 1784              	.LVL123:
 287:Core/Src/freertos.c ****     {
 1785              		.loc 1 287 5 view .LVU363
 287:Core/Src/freertos.c ****     {
 1786              		.loc 1 287 9 is_stmt 0 view .LVU364
 1787 002a 4FF0FF31 		mov	r1, #-1
 1788 002e 314B     		ldr	r3, .L85+12
 1789 0030 1868     		ldr	r0, [r3]
 1790 0032 FFF7FEFF 		bl	osSemaphoreAcquire
ARM GAS  C:\Users\Vento\AppData\Local\Temp\ccxXLphG.s 			page 49


 1791              	.LVL124:
 287:Core/Src/freertos.c ****     {
 1792              		.loc 1 287 8 view .LVU365
 1793 0036 0028     		cmp	r0, #0
 1794 0038 F4D1     		bne	.L76
 289:Core/Src/freertos.c ****       currentTick = HAL_GetTick();
 1795              		.loc 1 289 7 is_stmt 1 view .LVU366
 1796 003a 6420     		movs	r0, #100
 1797 003c FFF7FEFF 		bl	osDelay
 1798              	.LVL125:
 290:Core/Src/freertos.c ****       if (HAL_GPIO_ReadPin(TOUCH_IRQ_GPIO_Port, TOUCH_IRQ_Pin) == 0 && ((currentTick - lastTick) >=
 1799              		.loc 1 290 7 view .LVU367
 290:Core/Src/freertos.c ****       if (HAL_GPIO_ReadPin(TOUCH_IRQ_GPIO_Port, TOUCH_IRQ_Pin) == 0 && ((currentTick - lastTick) >=
 1800              		.loc 1 290 21 is_stmt 0 view .LVU368
 1801 0040 FFF7FEFF 		bl	HAL_GetTick
 1802              	.LVL126:
 1803 0044 0446     		mov	r4, r0
 1804              	.LVL127:
 291:Core/Src/freertos.c ****       {
 1805              		.loc 1 291 7 is_stmt 1 view .LVU369
 291:Core/Src/freertos.c ****       {
 1806              		.loc 1 291 11 is_stmt 0 view .LVU370
 1807 0046 0821     		movs	r1, #8
 1808 0048 2B48     		ldr	r0, .L85+16
 1809              	.LVL128:
 291:Core/Src/freertos.c ****       {
 1810              		.loc 1 291 11 view .LVU371
 1811 004a FFF7FEFF 		bl	HAL_GPIO_ReadPin
 1812              	.LVL129:
 291:Core/Src/freertos.c ****       {
 1813              		.loc 1 291 10 view .LVU372
 1814 004e 0028     		cmp	r0, #0
 1815 0050 E8D1     		bne	.L76
 291:Core/Src/freertos.c ****       {
 1816              		.loc 1 291 86 discriminator 1 view .LVU373
 1817 0052 631B     		subs	r3, r4, r5
 291:Core/Src/freertos.c ****       {
 1818              		.loc 1 291 69 discriminator 1 view .LVU374
 1819 0054 B3F5FA7F 		cmp	r3, #500
 1820 0058 E4D3     		bcc	.L76
 293:Core/Src/freertos.c **** 
 1821              		.loc 1 293 9 is_stmt 1 view .LVU375
 1822              	.LVL130:
 295:Core/Src/freertos.c ****         hspi2.Init.BaudRatePrescaler = SPI_BAUDRATEPRESCALER_128;
 1823              		.loc 1 295 9 view .LVU376
 1824 005a 284D     		ldr	r5, .L85+20
 1825 005c 2846     		mov	r0, r5
 1826 005e FFF7FEFF 		bl	HAL_SPI_DeInit
 1827              	.LVL131:
 296:Core/Src/freertos.c ****         HAL_SPI_Init(&hspi2);
 1828              		.loc 1 296 9 view .LVU377
 296:Core/Src/freertos.c ****         HAL_SPI_Init(&hspi2);
 1829              		.loc 1 296 38 is_stmt 0 view .LVU378
 1830 0062 3023     		movs	r3, #48
 1831 0064 EB61     		str	r3, [r5, #28]
 297:Core/Src/freertos.c ****         while(ILI9341_TouchGetCoordinates(&x, &y) != true);
 1832              		.loc 1 297 9 is_stmt 1 view .LVU379
ARM GAS  C:\Users\Vento\AppData\Local\Temp\ccxXLphG.s 			page 50


 1833 0066 2846     		mov	r0, r5
 1834 0068 FFF7FEFF 		bl	HAL_SPI_Init
 1835              	.LVL132:
 298:Core/Src/freertos.c ****         HAL_SPI_DeInit(&hspi2);
 1836              		.loc 1 298 9 view .LVU380
 1837              	.L78:
 298:Core/Src/freertos.c ****         HAL_SPI_DeInit(&hspi2);
 1838              		.loc 1 298 59 discriminator 1 view .LVU381
 298:Core/Src/freertos.c ****         HAL_SPI_DeInit(&hspi2);
 1839              		.loc 1 298 14 discriminator 1 view .LVU382
 298:Core/Src/freertos.c ****         HAL_SPI_DeInit(&hspi2);
 1840              		.loc 1 298 15 is_stmt 0 discriminator 1 view .LVU383
 1841 006c 01A9     		add	r1, sp, #4
 1842 006e 0DF10600 		add	r0, sp, #6
 1843 0072 FFF7FEFF 		bl	ILI9341_TouchGetCoordinates
 1844              	.LVL133:
 298:Core/Src/freertos.c ****         HAL_SPI_DeInit(&hspi2);
 1845              		.loc 1 298 14 discriminator 1 view .LVU384
 1846 0076 0028     		cmp	r0, #0
 1847 0078 F8D0     		beq	.L78
 299:Core/Src/freertos.c ****         hspi2.Init.BaudRatePrescaler = SPI_BAUDRATEPRESCALER_2;
 1848              		.loc 1 299 9 is_stmt 1 view .LVU385
 1849 007a 204E     		ldr	r6, .L85+20
 1850 007c 3046     		mov	r0, r6
 1851 007e FFF7FEFF 		bl	HAL_SPI_DeInit
 1852              	.LVL134:
 300:Core/Src/freertos.c ****         HAL_SPI_Init(&hspi2);
 1853              		.loc 1 300 9 view .LVU386
 300:Core/Src/freertos.c ****         HAL_SPI_Init(&hspi2);
 1854              		.loc 1 300 38 is_stmt 0 view .LVU387
 1855 0082 0025     		movs	r5, #0
 1856 0084 F561     		str	r5, [r6, #28]
 301:Core/Src/freertos.c **** 
 1857              		.loc 1 301 9 is_stmt 1 view .LVU388
 1858 0086 3046     		mov	r0, r6
 1859 0088 FFF7FEFF 		bl	HAL_SPI_Init
 1860              	.LVL135:
 303:Core/Src/freertos.c ****         TimeoutHandle = osTimerNew(LCD_Timeout, osTimerOnce, NULL, &Timeout_attributes);
 1861              		.loc 1 303 9 view .LVU389
 1862 008c 184E     		ldr	r6, .L85+8
 1863 008e 3068     		ldr	r0, [r6]
 1864 0090 FFF7FEFF 		bl	osTimerDelete
 1865              	.LVL136:
 304:Core/Src/freertos.c **** 
 1866              		.loc 1 304 9 view .LVU390
 304:Core/Src/freertos.c **** 
 1867              		.loc 1 304 25 is_stmt 0 view .LVU391
 1868 0094 1A4B     		ldr	r3, .L85+24
 1869 0096 2A46     		mov	r2, r5
 1870 0098 2946     		mov	r1, r5
 1871 009a 1A48     		ldr	r0, .L85+28
 1872 009c FFF7FEFF 		bl	osTimerNew
 1873              	.LVL137:
 304:Core/Src/freertos.c **** 
 1874              		.loc 1 304 23 view .LVU392
 1875 00a0 3060     		str	r0, [r6]
 306:Core/Src/freertos.c ****         {
ARM GAS  C:\Users\Vento\AppData\Local\Temp\ccxXLphG.s 			page 51


 1876              		.loc 1 306 9 is_stmt 1 view .LVU393
 306:Core/Src/freertos.c ****         {
 1877              		.loc 1 306 25 is_stmt 0 view .LVU394
 1878 00a2 194B     		ldr	r3, .L85+32
 1879 00a4 1B78     		ldrb	r3, [r3]	@ zero_extendqisi2
 306:Core/Src/freertos.c ****         {
 1880              		.loc 1 306 12 view .LVU395
 1881 00a6 002B     		cmp	r3, #0
 1882 00a8 AED1     		bne	.L79
 308:Core/Src/freertos.c ****           HAL_GPIO_WritePin(LCD_LED_GPIO_Port, LCD_LED_Pin, 1);
 1883              		.loc 1 308 11 is_stmt 1 view .LVU396
 308:Core/Src/freertos.c ****           HAL_GPIO_WritePin(LCD_LED_GPIO_Port, LCD_LED_Pin, 1);
 1884              		.loc 1 308 23 is_stmt 0 view .LVU397
 1885 00aa 0122     		movs	r2, #1
 1886 00ac 164B     		ldr	r3, .L85+32
 1887 00ae 1A70     		strb	r2, [r3]
 309:Core/Src/freertos.c ****         }
 1888              		.loc 1 309 11 is_stmt 1 view .LVU398
 1889 00b0 4FF40041 		mov	r1, #32768
 1890 00b4 1548     		ldr	r0, .L85+36
 1891 00b6 FFF7FEFF 		bl	HAL_GPIO_WritePin
 1892              	.LVL138:
 1893 00ba ADE7     		b	.L80
 1894              	.L84:
 316:Core/Src/freertos.c ****               break;
 1895              		.loc 1 316 15 view .LVU399
 1896 00bc BDF80410 		ldrh	r1, [sp, #4]
 1897 00c0 BDF80600 		ldrh	r0, [sp, #6]
 1898 00c4 FFF7FEFF 		bl	ControlPageHandler
 1899              	.LVL139:
 317:Core/Src/freertos.c **** 
 1900              		.loc 1 317 15 view .LVU400
 1901 00c8 A6E7     		b	.L80
 1902              	.L81:
 320:Core/Src/freertos.c ****               break;
 1903              		.loc 1 320 15 view .LVU401
 1904 00ca BDF80410 		ldrh	r1, [sp, #4]
 1905 00ce BDF80600 		ldrh	r0, [sp, #6]
 1906 00d2 FFF7FEFF 		bl	SettingPageHandler
 1907              	.LVL140:
 321:Core/Src/freertos.c **** 
 1908              		.loc 1 321 15 view .LVU402
 1909 00d6 9FE7     		b	.L80
 1910              	.L82:
 324:Core/Src/freertos.c ****               break;
 1911              		.loc 1 324 15 view .LVU403
 1912 00d8 BDF80410 		ldrh	r1, [sp, #4]
 1913 00dc BDF80600 		ldrh	r0, [sp, #6]
 1914 00e0 FFF7FEFF 		bl	InfoPageHandler
 1915              	.LVL141:
 325:Core/Src/freertos.c **** 
 1916              		.loc 1 325 15 view .LVU404
 1917 00e4 98E7     		b	.L80
 1918              	.L86:
 1919 00e6 00BF     		.align	2
 1920              	.L85:
 1921 00e8 00000000 		.word	.LANCHOR19
ARM GAS  C:\Users\Vento\AppData\Local\Temp\ccxXLphG.s 			page 52


 1922 00ec 20BF0200 		.word	180000
 1923 00f0 00000000 		.word	.LANCHOR8
 1924 00f4 00000000 		.word	.LANCHOR4
 1925 00f8 000C0140 		.word	1073810432
 1926 00fc 00000000 		.word	hspi2
 1927 0100 00000000 		.word	.LANCHOR7
 1928 0104 00000000 		.word	LCD_Timeout
 1929 0108 00000000 		.word	.LANCHOR0
 1930 010c 00080140 		.word	1073809408
 1931              		.cfi_endproc
 1932              	.LFE72:
 1934              		.global	__aeabi_f2iz
 1935              		.global	__aeabi_i2f
 1936              		.global	__aeabi_fsub
 1937              		.global	__aeabi_i2d
 1938              		.global	__aeabi_f2d
 1939              		.global	__aeabi_d2f
 1940              		.section	.text.ftoa,"ax",%progbits
 1941              		.align	1
 1942              		.global	ftoa
 1943              		.syntax unified
 1944              		.thumb
 1945              		.thumb_func
 1946              		.fpu softvfp
 1948              	ftoa:
 1949              	.LVL142:
 1950              	.LFB84:
 775:Core/Src/freertos.c **** 
 776:Core/Src/freertos.c **** // Converts a floating-point/double number to a string.
 777:Core/Src/freertos.c **** void ftoa(float n, char* res, int afterpoint)
 778:Core/Src/freertos.c **** {
 1951              		.loc 1 778 1 view -0
 1952              		.cfi_startproc
 1953              		@ args = 0, pretend = 0, frame = 0
 1954              		@ frame_needed = 0, uses_anonymous_args = 0
 1955              		.loc 1 778 1 is_stmt 0 view .LVU406
 1956 0000 2DE9F843 		push	{r3, r4, r5, r6, r7, r8, r9, lr}
 1957              	.LCFI23:
 1958              		.cfi_def_cfa_offset 32
 1959              		.cfi_offset 3, -32
 1960              		.cfi_offset 4, -28
 1961              		.cfi_offset 5, -24
 1962              		.cfi_offset 6, -20
 1963              		.cfi_offset 7, -16
 1964              		.cfi_offset 8, -12
 1965              		.cfi_offset 9, -8
 1966              		.cfi_offset 14, -4
 1967 0004 0746     		mov	r7, r0
 1968 0006 0C46     		mov	r4, r1
 1969 0008 1546     		mov	r5, r2
 779:Core/Src/freertos.c ****     // Extract integer part
 780:Core/Src/freertos.c ****     int ipart = (int)n;
 1970              		.loc 1 780 5 is_stmt 1 view .LVU407
 1971              		.loc 1 780 9 is_stmt 0 view .LVU408
 1972 000a FFF7FEFF 		bl	__aeabi_f2iz
 1973              	.LVL143:
 1974              		.loc 1 780 9 view .LVU409
ARM GAS  C:\Users\Vento\AppData\Local\Temp\ccxXLphG.s 			page 53


 1975 000e 0646     		mov	r6, r0
 1976              	.LVL144:
 781:Core/Src/freertos.c ****     // Extract floating part
 782:Core/Src/freertos.c ****     float fpart = n - (float)ipart;
 1977              		.loc 1 782 5 is_stmt 1 view .LVU410
 1978              		.loc 1 782 23 is_stmt 0 view .LVU411
 1979 0010 FFF7FEFF 		bl	__aeabi_i2f
 1980              	.LVL145:
 1981              		.loc 1 782 23 view .LVU412
 1982 0014 0146     		mov	r1, r0
 1983              		.loc 1 782 11 view .LVU413
 1984 0016 3846     		mov	r0, r7
 1985 0018 FFF7FEFF 		bl	__aeabi_fsub
 1986              	.LVL146:
 1987 001c 0746     		mov	r7, r0
 1988              	.LVL147:
 783:Core/Src/freertos.c ****     // convert integer part to string
 784:Core/Src/freertos.c ****     int i = intToStr(ipart, res, 3);
 1989              		.loc 1 784 5 is_stmt 1 view .LVU414
 1990              		.loc 1 784 13 is_stmt 0 view .LVU415
 1991 001e 0322     		movs	r2, #3
 1992 0020 2146     		mov	r1, r4
 1993 0022 F0B2     		uxtb	r0, r6
 1994              	.LVL148:
 1995              		.loc 1 784 13 view .LVU416
 1996 0024 FFF7FEFF 		bl	intToStr
 1997              	.LVL149:
 785:Core/Src/freertos.c ****     // check for display option after point
 786:Core/Src/freertos.c ****     if (afterpoint != 0)
 1998              		.loc 1 786 5 is_stmt 1 view .LVU417
 1999              		.loc 1 786 8 is_stmt 0 view .LVU418
 2000 0028 0DB9     		cbnz	r5, .L90
 2001              	.LVL150:
 2002              	.L87:
 787:Core/Src/freertos.c ****     {
 788:Core/Src/freertos.c ****         res[i] = '.'; // add dot
 789:Core/Src/freertos.c ****         fpart = fpart * pow(10, afterpoint);
 790:Core/Src/freertos.c ****         intToStr((int)fpart, res + i + 1, afterpoint);
 791:Core/Src/freertos.c ****     }
 792:Core/Src/freertos.c **** }
 2003              		.loc 1 792 1 view .LVU419
 2004 002a BDE8F883 		pop	{r3, r4, r5, r6, r7, r8, r9, pc}
 2005              	.LVL151:
 2006              	.L90:
 2007              		.loc 1 792 1 view .LVU420
 2008 002e 0646     		mov	r6, r0
 2009              	.LVL152:
 788:Core/Src/freertos.c ****         fpart = fpart * pow(10, afterpoint);
 2010              		.loc 1 788 9 is_stmt 1 view .LVU421
 788:Core/Src/freertos.c ****         fpart = fpart * pow(10, afterpoint);
 2011              		.loc 1 788 16 is_stmt 0 view .LVU422
 2012 0030 2E23     		movs	r3, #46
 2013 0032 2354     		strb	r3, [r4, r0]
 789:Core/Src/freertos.c ****         intToStr((int)fpart, res + i + 1, afterpoint);
 2014              		.loc 1 789 9 is_stmt 1 view .LVU423
 789:Core/Src/freertos.c ****         intToStr((int)fpart, res + i + 1, afterpoint);
 2015              		.loc 1 789 25 is_stmt 0 view .LVU424
ARM GAS  C:\Users\Vento\AppData\Local\Temp\ccxXLphG.s 			page 54


 2016 0034 2846     		mov	r0, r5
 2017              	.LVL153:
 789:Core/Src/freertos.c ****         intToStr((int)fpart, res + i + 1, afterpoint);
 2018              		.loc 1 789 25 view .LVU425
 2019 0036 FFF7FEFF 		bl	__aeabi_i2d
 2020              	.LVL154:
 2021 003a 0246     		mov	r2, r0
 2022 003c 0B46     		mov	r3, r1
 2023 003e 0020     		movs	r0, #0
 2024 0040 0B49     		ldr	r1, .L91
 2025 0042 FFF7FEFF 		bl	pow
 2026              	.LVL155:
 2027 0046 8046     		mov	r8, r0
 2028 0048 8946     		mov	r9, r1
 789:Core/Src/freertos.c ****         intToStr((int)fpart, res + i + 1, afterpoint);
 2029              		.loc 1 789 23 view .LVU426
 2030 004a 3846     		mov	r0, r7
 2031 004c FFF7FEFF 		bl	__aeabi_f2d
 2032              	.LVL156:
 2033 0050 4246     		mov	r2, r8
 2034 0052 4B46     		mov	r3, r9
 2035 0054 FFF7FEFF 		bl	__aeabi_dmul
 2036              	.LVL157:
 789:Core/Src/freertos.c ****         intToStr((int)fpart, res + i + 1, afterpoint);
 2037              		.loc 1 789 15 view .LVU427
 2038 0058 FFF7FEFF 		bl	__aeabi_d2f
 2039              	.LVL158:
 790:Core/Src/freertos.c ****     }
 2040              		.loc 1 790 9 is_stmt 1 view .LVU428
 790:Core/Src/freertos.c ****     }
 2041              		.loc 1 790 18 is_stmt 0 view .LVU429
 2042 005c FFF7FEFF 		bl	__aeabi_f2iz
 2043              	.LVL159:
 790:Core/Src/freertos.c ****     }
 2044              		.loc 1 790 38 view .LVU430
 2045 0060 711C     		adds	r1, r6, #1
 790:Core/Src/freertos.c ****     }
 2046              		.loc 1 790 9 view .LVU431
 2047 0062 2A46     		mov	r2, r5
 2048 0064 2144     		add	r1, r1, r4
 2049 0066 C0B2     		uxtb	r0, r0
 2050 0068 FFF7FEFF 		bl	intToStr
 2051              	.LVL160:
 2052              		.loc 1 792 1 view .LVU432
 2053 006c DDE7     		b	.L87
 2054              	.L92:
 2055 006e 00BF     		.align	2
 2056              	.L91:
 2057 0070 00002440 		.word	1076101120
 2058              		.cfi_endproc
 2059              	.LFE84:
 2061              		.section	.text.intToStr0,"ax",%progbits
 2062              		.align	1
 2063              		.global	intToStr0
 2064              		.syntax unified
 2065              		.thumb
 2066              		.thumb_func
ARM GAS  C:\Users\Vento\AppData\Local\Temp\ccxXLphG.s 			page 55


 2067              		.fpu softvfp
 2069              	intToStr0:
 2070              	.LVL161:
 2071              	.LFB86:
 793:Core/Src/freertos.c **** 
 794:Core/Src/freertos.c **** void intToTime(uint32_t time, char* str)
 795:Core/Src/freertos.c **** {
 796:Core/Src/freertos.c ****   uint8_t hour = time / 3600;
 797:Core/Src/freertos.c ****   uint8_t minute = time / 60 - hour * 60;
 798:Core/Src/freertos.c ****   uint8_t second = time - hour*3600 - minute*60;
 799:Core/Src/freertos.c **** 
 800:Core/Src/freertos.c ****   intToStr0(hour, str, 2);
 801:Core/Src/freertos.c ****   *(str+2) = ':';
 802:Core/Src/freertos.c ****   intToStr0(minute, str + 3, 2);
 803:Core/Src/freertos.c ****   *(str+5) = ':';
 804:Core/Src/freertos.c ****   intToStr0(second, str + 6, 2);
 805:Core/Src/freertos.c **** }
 806:Core/Src/freertos.c **** 
 807:Core/Src/freertos.c **** int intToStr0(uint8_t x, char str[], int d)
 808:Core/Src/freertos.c **** {
 2072              		.loc 1 808 1 is_stmt 1 view -0
 2073              		.cfi_startproc
 2074              		@ args = 0, pretend = 0, frame = 0
 2075              		@ frame_needed = 0, uses_anonymous_args = 0
 2076              		.loc 1 808 1 is_stmt 0 view .LVU434
 2077 0000 38B5     		push	{r3, r4, r5, lr}
 2078              	.LCFI24:
 2079              		.cfi_def_cfa_offset 16
 2080              		.cfi_offset 3, -16
 2081              		.cfi_offset 4, -12
 2082              		.cfi_offset 5, -8
 2083              		.cfi_offset 14, -4
 2084 0002 0D46     		mov	r5, r1
 809:Core/Src/freertos.c ****     int i = 0;
 2085              		.loc 1 809 5 is_stmt 1 view .LVU435
 2086              	.LVL162:
 810:Core/Src/freertos.c ****     if (x == 0)
 2087              		.loc 1 810 5 view .LVU436
 2088              		.loc 1 810 8 is_stmt 0 view .LVU437
 2089 0004 18B9     		cbnz	r0, .L99
 811:Core/Src/freertos.c ****     {
 812:Core/Src/freertos.c ****       str[i++] = '0';
 2090              		.loc 1 812 7 is_stmt 1 view .LVU438
 2091              	.LVL163:
 2092              		.loc 1 812 16 is_stmt 0 view .LVU439
 2093 0006 3023     		movs	r3, #48
 2094 0008 0B70     		strb	r3, [r1]
 2095              		.loc 1 812 12 view .LVU440
 2096 000a 0124     		movs	r4, #1
 2097 000c 12E0     		b	.L95
 2098              	.LVL164:
 2099              	.L99:
 2100              		.loc 1 812 12 view .LVU441
 2101 000e 0346     		mov	r3, r0
 809:Core/Src/freertos.c ****     if (x == 0)
 2102              		.loc 1 809 9 view .LVU442
 2103 0010 0024     		movs	r4, #0
ARM GAS  C:\Users\Vento\AppData\Local\Temp\ccxXLphG.s 			page 56


 2104              	.LVL165:
 2105              	.L94:
 813:Core/Src/freertos.c ****     }
 814:Core/Src/freertos.c ****     else
 815:Core/Src/freertos.c ****     {
 816:Core/Src/freertos.c ****       while (x)
 2106              		.loc 1 816 13 is_stmt 1 view .LVU443
 2107 0012 7BB1     		cbz	r3, .L95
 817:Core/Src/freertos.c ****       {
 818:Core/Src/freertos.c ****         str[i++] = (x % 10) + '0';
 2108              		.loc 1 818 9 view .LVU444
 2109              	.LVL166:
 2110              		.loc 1 818 29 is_stmt 0 view .LVU445
 2111 0014 0C48     		ldr	r0, .L101
 2112 0016 A0FB0310 		umull	r1, r0, r0, r3
 2113 001a C008     		lsrs	r0, r0, #3
 2114 001c 00EB8001 		add	r1, r0, r0, lsl #2
 2115 0020 A3EB4103 		sub	r3, r3, r1, lsl #1
 2116              	.LVL167:
 2117              		.loc 1 818 29 view .LVU446
 2118 0024 3033     		adds	r3, r3, #48
 2119              		.loc 1 818 18 view .LVU447
 2120 0026 2B55     		strb	r3, [r5, r4]
 819:Core/Src/freertos.c ****         x = x / 10;
 2121              		.loc 1 819 9 is_stmt 1 view .LVU448
 2122              		.loc 1 819 11 is_stmt 0 view .LVU449
 2123 0028 C3B2     		uxtb	r3, r0
 2124              	.LVL168:
 818:Core/Src/freertos.c ****         x = x / 10;
 2125              		.loc 1 818 14 view .LVU450
 2126 002a 0134     		adds	r4, r4, #1
 2127              	.LVL169:
 818:Core/Src/freertos.c ****         x = x / 10;
 2128              		.loc 1 818 14 view .LVU451
 2129 002c F1E7     		b	.L94
 2130              	.LVL170:
 2131              	.L98:
 820:Core/Src/freertos.c ****       } 
 821:Core/Src/freertos.c ****     }
 822:Core/Src/freertos.c ****     // If number of digits required is more, then
 823:Core/Src/freertos.c ****     // add 0s at the beginning
 824:Core/Src/freertos.c ****     while (i < d)
 825:Core/Src/freertos.c ****         str[i++] = '0';
 2132              		.loc 1 825 9 is_stmt 1 view .LVU452
 2133              		.loc 1 825 18 is_stmt 0 view .LVU453
 2134 002e 3023     		movs	r3, #48
 2135 0030 2B55     		strb	r3, [r5, r4]
 2136              		.loc 1 825 14 view .LVU454
 2137 0032 0134     		adds	r4, r4, #1
 2138              	.LVL171:
 2139              	.L95:
 824:Core/Src/freertos.c ****         str[i++] = '0';
 2140              		.loc 1 824 11 is_stmt 1 view .LVU455
 2141 0034 9442     		cmp	r4, r2
 2142 0036 FADB     		blt	.L98
 826:Core/Src/freertos.c **** 
 827:Core/Src/freertos.c ****     reverse(str, i);
ARM GAS  C:\Users\Vento\AppData\Local\Temp\ccxXLphG.s 			page 57


 2143              		.loc 1 827 5 view .LVU456
 2144 0038 2146     		mov	r1, r4
 2145 003a 2846     		mov	r0, r5
 2146 003c FFF7FEFF 		bl	reverse
 2147              	.LVL172:
 828:Core/Src/freertos.c ****     str[i] = '\0';
 2148              		.loc 1 828 5 view .LVU457
 2149              		.loc 1 828 12 is_stmt 0 view .LVU458
 2150 0040 0023     		movs	r3, #0
 2151 0042 2B55     		strb	r3, [r5, r4]
 829:Core/Src/freertos.c ****     return i;
 2152              		.loc 1 829 5 is_stmt 1 view .LVU459
 830:Core/Src/freertos.c **** }
 2153              		.loc 1 830 1 is_stmt 0 view .LVU460
 2154 0044 2046     		mov	r0, r4
 2155 0046 38BD     		pop	{r3, r4, r5, pc}
 2156              	.LVL173:
 2157              	.L102:
 2158              		.loc 1 830 1 view .LVU461
 2159              		.align	2
 2160              	.L101:
 2161 0048 CDCCCCCC 		.word	-858993459
 2162              		.cfi_endproc
 2163              	.LFE86:
 2165              		.section	.text.intToTime,"ax",%progbits
 2166              		.align	1
 2167              		.global	intToTime
 2168              		.syntax unified
 2169              		.thumb
 2170              		.thumb_func
 2171              		.fpu softvfp
 2173              	intToTime:
 2174              	.LVL174:
 2175              	.LFB85:
 795:Core/Src/freertos.c ****   uint8_t hour = time / 3600;
 2176              		.loc 1 795 1 is_stmt 1 view -0
 2177              		.cfi_startproc
 2178              		@ args = 0, pretend = 0, frame = 0
 2179              		@ frame_needed = 0, uses_anonymous_args = 0
 795:Core/Src/freertos.c ****   uint8_t hour = time / 3600;
 2180              		.loc 1 795 1 is_stmt 0 view .LVU463
 2181 0000 F8B5     		push	{r3, r4, r5, r6, r7, lr}
 2182              	.LCFI25:
 2183              		.cfi_def_cfa_offset 24
 2184              		.cfi_offset 3, -24
 2185              		.cfi_offset 4, -20
 2186              		.cfi_offset 5, -16
 2187              		.cfi_offset 6, -12
 2188              		.cfi_offset 7, -8
 2189              		.cfi_offset 14, -4
 2190 0002 0346     		mov	r3, r0
 2191 0004 0E46     		mov	r6, r1
 796:Core/Src/freertos.c ****   uint8_t minute = time / 60 - hour * 60;
 2192              		.loc 1 796 3 is_stmt 1 view .LVU464
 796:Core/Src/freertos.c ****   uint8_t minute = time / 60 - hour * 60;
 2193              		.loc 1 796 23 is_stmt 0 view .LVU465
 2194 0006 1548     		ldr	r0, .L105
ARM GAS  C:\Users\Vento\AppData\Local\Temp\ccxXLphG.s 			page 58


 2195              	.LVL175:
 796:Core/Src/freertos.c ****   uint8_t minute = time / 60 - hour * 60;
 2196              		.loc 1 796 23 view .LVU466
 2197 0008 A0FB0320 		umull	r2, r0, r0, r3
 796:Core/Src/freertos.c ****   uint8_t minute = time / 60 - hour * 60;
 2198              		.loc 1 796 11 view .LVU467
 2199 000c C0F3C720 		ubfx	r0, r0, #11, #8
 2200              	.LVL176:
 797:Core/Src/freertos.c ****   uint8_t second = time - hour*3600 - minute*60;
 2201              		.loc 1 797 3 is_stmt 1 view .LVU468
 797:Core/Src/freertos.c ****   uint8_t second = time - hour*3600 - minute*60;
 2202              		.loc 1 797 25 is_stmt 0 view .LVU469
 2203 0010 134D     		ldr	r5, .L105+4
 2204 0012 A5FB0325 		umull	r2, r5, r5, r3
 797:Core/Src/freertos.c ****   uint8_t second = time - hour*3600 - minute*60;
 2205              		.loc 1 797 30 view .LVU470
 2206 0016 C5F34715 		ubfx	r5, r5, #5, #8
 2207 001a C0EB0012 		rsb	r2, r0, r0, lsl #4
 2208 001e 9200     		lsls	r2, r2, #2
 2209 0020 D2B2     		uxtb	r2, r2
 797:Core/Src/freertos.c ****   uint8_t second = time - hour*3600 - minute*60;
 2210              		.loc 1 797 11 view .LVU471
 2211 0022 AD1A     		subs	r5, r5, r2
 2212 0024 EDB2     		uxtb	r5, r5
 2213              	.LVL177:
 798:Core/Src/freertos.c **** 
 2214              		.loc 1 798 3 is_stmt 1 view .LVU472
 798:Core/Src/freertos.c **** 
 2215              		.loc 1 798 25 is_stmt 0 view .LVU473
 2216 0026 A3EB0014 		sub	r4, r3, r0, lsl #4
 2217 002a E4B2     		uxtb	r4, r4
 798:Core/Src/freertos.c **** 
 2218              		.loc 1 798 37 view .LVU474
 2219 002c C5EB0513 		rsb	r3, r5, r5, lsl #4
 2220              	.LVL178:
 798:Core/Src/freertos.c **** 
 2221              		.loc 1 798 37 view .LVU475
 2222 0030 9B00     		lsls	r3, r3, #2
 2223 0032 DBB2     		uxtb	r3, r3
 798:Core/Src/freertos.c **** 
 2224              		.loc 1 798 11 view .LVU476
 2225 0034 E41A     		subs	r4, r4, r3
 2226 0036 E4B2     		uxtb	r4, r4
 2227              	.LVL179:
 800:Core/Src/freertos.c ****   *(str+2) = ':';
 2228              		.loc 1 800 3 is_stmt 1 view .LVU477
 2229 0038 0222     		movs	r2, #2
 2230 003a FFF7FEFF 		bl	intToStr0
 2231              	.LVL180:
 801:Core/Src/freertos.c ****   intToStr0(minute, str + 3, 2);
 2232              		.loc 1 801 3 view .LVU478
 801:Core/Src/freertos.c ****   intToStr0(minute, str + 3, 2);
 2233              		.loc 1 801 12 is_stmt 0 view .LVU479
 2234 003e 3A27     		movs	r7, #58
 2235 0040 B770     		strb	r7, [r6, #2]
 802:Core/Src/freertos.c ****   *(str+5) = ':';
 2236              		.loc 1 802 3 is_stmt 1 view .LVU480
ARM GAS  C:\Users\Vento\AppData\Local\Temp\ccxXLphG.s 			page 59


 2237 0042 0222     		movs	r2, #2
 2238 0044 F11C     		adds	r1, r6, #3
 2239 0046 2846     		mov	r0, r5
 2240 0048 FFF7FEFF 		bl	intToStr0
 2241              	.LVL181:
 803:Core/Src/freertos.c ****   intToStr0(second, str + 6, 2);
 2242              		.loc 1 803 3 view .LVU481
 803:Core/Src/freertos.c ****   intToStr0(second, str + 6, 2);
 2243              		.loc 1 803 12 is_stmt 0 view .LVU482
 2244 004c 7771     		strb	r7, [r6, #5]
 804:Core/Src/freertos.c **** }
 2245              		.loc 1 804 3 is_stmt 1 view .LVU483
 2246 004e 0222     		movs	r2, #2
 2247 0050 B11D     		adds	r1, r6, #6
 2248 0052 2046     		mov	r0, r4
 2249 0054 FFF7FEFF 		bl	intToStr0
 2250              	.LVL182:
 805:Core/Src/freertos.c **** 
 2251              		.loc 1 805 1 is_stmt 0 view .LVU484
 2252 0058 F8BD     		pop	{r3, r4, r5, r6, r7, pc}
 2253              	.LVL183:
 2254              	.L106:
 805:Core/Src/freertos.c **** 
 2255              		.loc 1 805 1 view .LVU485
 2256 005a 00BF     		.align	2
 2257              	.L105:
 2258 005c C5B3A291 		.word	-1851608123
 2259 0060 89888888 		.word	-2004318071
 2260              		.cfi_endproc
 2261              	.LFE85:
 2263              		.global	__aeabi_dadd
 2264              		.section	.text.LED_Indicator,"ax",%progbits
 2265              		.align	1
 2266              		.global	LED_Indicator
 2267              		.syntax unified
 2268              		.thumb
 2269              		.thumb_func
 2270              		.fpu softvfp
 2272              	LED_Indicator:
 2273              	.LVL184:
 2274              	.LFB73:
 344:Core/Src/freertos.c ****   /* USER CODE BEGIN LED_Indicator */
 2275              		.loc 1 344 1 is_stmt 1 view -0
 2276              		.cfi_startproc
 2277              		@ args = 0, pretend = 0, frame = 16
 2278              		@ frame_needed = 0, uses_anonymous_args = 0
 344:Core/Src/freertos.c ****   /* USER CODE BEGIN LED_Indicator */
 2279              		.loc 1 344 1 is_stmt 0 view .LVU487
 2280 0000 30B5     		push	{r4, r5, lr}
 2281              	.LCFI26:
 2282              		.cfi_def_cfa_offset 12
 2283              		.cfi_offset 4, -12
 2284              		.cfi_offset 5, -8
 2285              		.cfi_offset 14, -4
 2286 0002 89B0     		sub	sp, sp, #36
 2287              	.LCFI27:
 2288              		.cfi_def_cfa_offset 48
ARM GAS  C:\Users\Vento\AppData\Local\Temp\ccxXLphG.s 			page 60


 347:Core/Src/freertos.c **** 
 2289              		.loc 1 347 3 is_stmt 1 view .LVU488
 2290 0004 4FF40051 		mov	r1, #8192
 2291 0008 AB48     		ldr	r0, .L137+8
 2292              	.LVL185:
 347:Core/Src/freertos.c **** 
 2293              		.loc 1 347 3 is_stmt 0 view .LVU489
 2294 000a FFF7FEFF 		bl	HAL_GPIO_TogglePin
 2295              	.LVL186:
 349:Core/Src/freertos.c ****   {
 2296              		.loc 1 349 3 is_stmt 1 view .LVU490
 349:Core/Src/freertos.c ****   {
 2297              		.loc 1 349 16 is_stmt 0 view .LVU491
 2298 000e AB4B     		ldr	r3, .L137+12
 2299 0010 1B7B     		ldrb	r3, [r3, #12]	@ zero_extendqisi2
 349:Core/Src/freertos.c ****   {
 2300              		.loc 1 349 6 view .LVU492
 2301 0012 002B     		cmp	r3, #0
 2302 0014 00F0A080 		beq	.L108
 351:Core/Src/freertos.c ****     if (currentPage == InfoPage)
 2303              		.loc 1 351 5 is_stmt 1 view .LVU493
 351:Core/Src/freertos.c ****     if (currentPage == InfoPage)
 2304              		.loc 1 351 14 is_stmt 0 view .LVU494
 2305 0018 A94B     		ldr	r3, .L137+16
 2306 001a 1869     		ldr	r0, [r3, #16]
 351:Core/Src/freertos.c ****     if (currentPage == InfoPage)
 2307              		.loc 1 351 19 view .LVU495
 2308 001c 0130     		adds	r0, r0, #1
 2309 001e 1861     		str	r0, [r3, #16]
 352:Core/Src/freertos.c ****     {
 2310              		.loc 1 352 5 is_stmt 1 view .LVU496
 352:Core/Src/freertos.c ****     {
 2311              		.loc 1 352 21 is_stmt 0 view .LVU497
 2312 0020 A84B     		ldr	r3, .L137+20
 2313 0022 1B78     		ldrb	r3, [r3]	@ zero_extendqisi2
 352:Core/Src/freertos.c ****     {
 2314              		.loc 1 352 8 view .LVU498
 2315 0024 022B     		cmp	r3, #2
 2316 0026 23D0     		beq	.L133
 2317              	.L109:
 375:Core/Src/freertos.c ****     {
 2318              		.loc 1 375 5 is_stmt 1 view .LVU499
 375:Core/Src/freertos.c ****     {
 2319              		.loc 1 375 18 is_stmt 0 view .LVU500
 2320 0028 A54B     		ldr	r3, .L137+16
 2321 002a 1C69     		ldr	r4, [r3, #16]
 375:Core/Src/freertos.c ****     {
 2322              		.loc 1 375 8 view .LVU501
 2323 002c 782C     		cmp	r4, #120
 2324 002e 00F2C480 		bhi	.L127
 388:Core/Src/freertos.c ****     }
 2325              		.loc 1 388 7 is_stmt 1 view .LVU502
 388:Core/Src/freertos.c ****     }
 2326              		.loc 1 388 77 is_stmt 0 view .LVU503
 2327 0032 2046     		mov	r0, r4
 2328 0034 FFF7FEFF 		bl	__aeabi_ui2d
 2329              	.LVL187:
ARM GAS  C:\Users\Vento\AppData\Local\Temp\ccxXLphG.s 			page 61


 2330 0038 9DA3     		adr	r3, .L137
 2331 003a D3E90023 		ldrd	r2, [r3]
 2332 003e FFF7FEFF 		bl	__aeabi_dmul
 2333              	.LVL188:
 388:Core/Src/freertos.c ****     }
 2334              		.loc 1 388 65 view .LVU504
 2335 0042 0022     		movs	r2, #0
 2336 0044 A04B     		ldr	r3, .L137+24
 2337 0046 FFF7FEFF 		bl	__aeabi_ddiv
 2338              	.LVL189:
 2339 004a FFF7FEFF 		bl	sin
 2340              	.LVL190:
 388:Core/Src/freertos.c ****     }
 2341              		.loc 1 388 63 view .LVU505
 2342 004e 0022     		movs	r2, #0
 2343 0050 9E4B     		ldr	r3, .L137+28
 2344 0052 FFF7FEFF 		bl	__aeabi_dmul
 2345              	.LVL191:
 388:Core/Src/freertos.c ****     }
 2346              		.loc 1 388 98 view .LVU506
 2347 0056 0022     		movs	r2, #0
 2348 0058 9D4B     		ldr	r3, .L137+32
 2349 005a FFF7FEFF 		bl	__aeabi_dadd
 2350              	.LVL192:
 388:Core/Src/freertos.c ****     }
 2351              		.loc 1 388 49 view .LVU507
 2352 005e FFF7FEFF 		bl	__aeabi_d2uiz
 2353              	.LVL193:
 2354 0062 C3B2     		uxtb	r3, r0
 388:Core/Src/freertos.c ****     }
 2355              		.loc 1 388 39 view .LVU508
 2356 0064 013C     		subs	r4, r4, #1
 388:Core/Src/freertos.c ****     }
 2357              		.loc 1 388 43 view .LVU509
 2358 0066 964A     		ldr	r2, .L137+16
 2359 0068 1444     		add	r4, r4, r2
 2360 006a 5B00     		lsls	r3, r3, #1
 2361 006c 2375     		strb	r3, [r4, #20]
 2362 006e 73E0     		b	.L108
 2363              	.L133:
 2364              	.LBB4:
 354:Core/Src/freertos.c ****       intToTime(Channel01.time, t_temp);
 2365              		.loc 1 354 7 is_stmt 1 view .LVU510
 355:Core/Src/freertos.c ****       ILI9341_WriteString(90, 80, t_temp, Font_7x10, ILI9341_GREEN, ILI9341_BLACK);
 2366              		.loc 1 355 7 view .LVU511
 2367 0070 05A9     		add	r1, sp, #20
 2368 0072 FFF7FEFF 		bl	intToTime
 2369              	.LVL194:
 356:Core/Src/freertos.c ****       
 2370              		.loc 1 356 7 view .LVU512
 2371 0076 974B     		ldr	r3, .L137+36
 2372 0078 0022     		movs	r2, #0
 2373 007a 0292     		str	r2, [sp, #8]
 2374 007c 4FF4FC62 		mov	r2, #2016
 2375 0080 0192     		str	r2, [sp, #4]
 2376 0082 5A68     		ldr	r2, [r3, #4]
 2377 0084 0092     		str	r2, [sp]
ARM GAS  C:\Users\Vento\AppData\Local\Temp\ccxXLphG.s 			page 62


 2378 0086 1B68     		ldr	r3, [r3]
 2379 0088 05AA     		add	r2, sp, #20
 2380 008a 5021     		movs	r1, #80
 2381 008c 5A20     		movs	r0, #90
 2382 008e FFF7FEFF 		bl	ILI9341_WriteString
 2383              	.LVL195:
 358:Core/Src/freertos.c ****       {
 2384              		.loc 1 358 7 view .LVU513
 358:Core/Src/freertos.c ****       {
 2385              		.loc 1 358 11 is_stmt 0 view .LVU514
 2386 0092 4FF0FF31 		mov	r1, #-1
 2387 0096 904B     		ldr	r3, .L137+40
 2388 0098 1868     		ldr	r0, [r3]
 2389 009a FFF7FEFF 		bl	osMutexAcquire
 2390              	.LVL196:
 358:Core/Src/freertos.c ****       {
 2391              		.loc 1 358 9 view .LVU515
 2392 009e 0028     		cmp	r0, #0
 2393 00a0 C2D1     		bne	.L109
 358:Core/Src/freertos.c ****       {
 2394              		.loc 1 358 78 discriminator 1 view .LVU516
 2395 00a2 884B     		ldr	r3, .L137+20
 2396 00a4 1B78     		ldrb	r3, [r3]	@ zero_extendqisi2
 358:Core/Src/freertos.c ****       {
 2397              		.loc 1 358 62 discriminator 1 view .LVU517
 2398 00a6 022B     		cmp	r3, #2
 2399 00a8 BED1     		bne	.L109
 2400              	.LBB5:
 360:Core/Src/freertos.c ****         {
 2401              		.loc 1 360 21 view .LVU518
 2402 00aa 0024     		movs	r4, #0
 2403 00ac 11E0     		b	.L111
 2404              	.LVL197:
 2405              	.L112:
 367:Core/Src/freertos.c ****           ILI9341_DrawPixel(191+i, 100-Channel01.history[i], ILI9341_BLUE);
 2406              		.loc 1 367 11 is_stmt 1 discriminator 2 view .LVU519
 2407 00ae 4FF6FF72 		movw	r2, #65535
 2408 00b2 6421     		movs	r1, #100
 2409 00b4 2846     		mov	r0, r5
 2410 00b6 FFF7FEFF 		bl	ILI9341_DrawPixel
 2411              	.LVL198:
 368:Core/Src/freertos.c ****         }
 2412              		.loc 1 368 11 discriminator 2 view .LVU520
 368:Core/Src/freertos.c ****         }
 2413              		.loc 1 368 57 is_stmt 0 discriminator 2 view .LVU521
 2414 00ba 814B     		ldr	r3, .L137+16
 2415 00bc 2344     		add	r3, r3, r4
 2416 00be 197D     		ldrb	r1, [r3, #20]	@ zero_extendqisi2
 368:Core/Src/freertos.c ****         }
 2417              		.loc 1 368 11 discriminator 2 view .LVU522
 2418 00c0 C1F16401 		rsb	r1, r1, #100
 2419 00c4 1F22     		movs	r2, #31
 2420 00c6 89B2     		uxth	r1, r1
 2421 00c8 2846     		mov	r0, r5
 2422 00ca FFF7FEFF 		bl	ILI9341_DrawPixel
 2423              	.LVL199:
 360:Core/Src/freertos.c ****         {
ARM GAS  C:\Users\Vento\AppData\Local\Temp\ccxXLphG.s 			page 63


 2424              		.loc 1 360 37 is_stmt 1 discriminator 2 view .LVU523
 360:Core/Src/freertos.c ****         {
 2425              		.loc 1 360 38 is_stmt 0 discriminator 2 view .LVU524
 2426 00ce 0134     		adds	r4, r4, #1
 2427              	.LVL200:
 360:Core/Src/freertos.c ****         {
 2428              		.loc 1 360 38 discriminator 2 view .LVU525
 2429 00d0 E4B2     		uxtb	r4, r4
 2430              	.LVL201:
 2431              	.L111:
 360:Core/Src/freertos.c ****         {
 2432              		.loc 1 360 28 is_stmt 1 discriminator 1 view .LVU526
 360:Core/Src/freertos.c ****         {
 2433              		.loc 1 360 9 is_stmt 0 discriminator 1 view .LVU527
 2434 00d2 772C     		cmp	r4, #119
 2435 00d4 15D8     		bhi	.L134
 362:Core/Src/freertos.c ****           if (i < 3)
 2436              		.loc 1 362 11 is_stmt 1 view .LVU528
 2437 00d6 04F1BF05 		add	r5, r4, #191
 2438 00da 0023     		movs	r3, #0
 2439 00dc 0093     		str	r3, [sp]
 2440 00de 6423     		movs	r3, #100
 2441 00e0 2A46     		mov	r2, r5
 2442 00e2 1421     		movs	r1, #20
 2443 00e4 2846     		mov	r0, r5
 2444 00e6 FFF7FEFF 		bl	ILI9341_DrawLine
 2445              	.LVL202:
 363:Core/Src/freertos.c ****           {
 2446              		.loc 1 363 11 view .LVU529
 363:Core/Src/freertos.c ****           {
 2447              		.loc 1 363 14 is_stmt 0 view .LVU530
 2448 00ea 022C     		cmp	r4, #2
 2449 00ec DFD8     		bhi	.L112
 365:Core/Src/freertos.c ****           }
 2450              		.loc 1 365 13 is_stmt 1 view .LVU531
 2451 00ee 4FF6FF73 		movw	r3, #65535
 2452 00f2 0093     		str	r3, [sp]
 2453 00f4 1623     		movs	r3, #22
 2454 00f6 C022     		movs	r2, #192
 2455 00f8 1421     		movs	r1, #20
 2456 00fa BE20     		movs	r0, #190
 2457 00fc FFF7FEFF 		bl	ILI9341_DrawLine
 2458              	.LVL203:
 2459 0100 D5E7     		b	.L112
 2460              	.L134:
 2461              	.LBE5:
 370:Core/Src/freertos.c ****       }
 2462              		.loc 1 370 9 view .LVU532
 2463 0102 754B     		ldr	r3, .L137+40
 2464 0104 1868     		ldr	r0, [r3]
 2465 0106 FFF7FEFF 		bl	osMutexRelease
 2466              	.LVL204:
 2467 010a 8DE7     		b	.L109
 2468              	.LVL205:
 2469              	.L116:
 370:Core/Src/freertos.c ****       }
 2470              		.loc 1 370 9 is_stmt 0 view .LVU533
ARM GAS  C:\Users\Vento\AppData\Local\Temp\ccxXLphG.s 			page 64


 2471              	.LBE4:
 2472              	.LBB6:
 380:Core/Src/freertos.c ****       }
 2473              		.loc 1 380 9 is_stmt 1 discriminator 3 view .LVU534
 380:Core/Src/freertos.c ****       }
 2474              		.loc 1 380 51 is_stmt 0 discriminator 3 view .LVU535
 2475 010c 511C     		adds	r1, r2, #1
 380:Core/Src/freertos.c ****       }
 2476              		.loc 1 380 49 discriminator 3 view .LVU536
 2477 010e 6C4B     		ldr	r3, .L137+16
 2478 0110 5818     		adds	r0, r3, r1
 2479 0112 007D     		ldrb	r0, [r0, #20]	@ zero_extendqisi2
 380:Core/Src/freertos.c ****       }
 2480              		.loc 1 380 30 discriminator 3 view .LVU537
 2481 0114 1344     		add	r3, r3, r2
 2482 0116 1875     		strb	r0, [r3, #20]
 378:Core/Src/freertos.c ****       {
 2483              		.loc 1 378 35 is_stmt 1 discriminator 3 view .LVU538
 378:Core/Src/freertos.c ****       {
 2484              		.loc 1 378 36 is_stmt 0 discriminator 3 view .LVU539
 2485 0118 CAB2     		uxtb	r2, r1
 2486              	.LVL206:
 2487              	.L114:
 378:Core/Src/freertos.c ****       {
 2488              		.loc 1 378 26 is_stmt 1 discriminator 1 view .LVU540
 378:Core/Src/freertos.c ****       {
 2489              		.loc 1 378 7 is_stmt 0 discriminator 1 view .LVU541
 2490 011a 762A     		cmp	r2, #118
 2491 011c F6D9     		bls	.L116
 2492              	.LBE6:
 383:Core/Src/freertos.c ****     }
 2493              		.loc 1 383 7 is_stmt 1 view .LVU542
 383:Core/Src/freertos.c ****     }
 2494              		.loc 1 383 64 is_stmt 0 view .LVU543
 2495 011e 2046     		mov	r0, r4
 2496 0120 FFF7FEFF 		bl	__aeabi_ui2d
 2497              	.LVL207:
 383:Core/Src/freertos.c ****     }
 2498              		.loc 1 383 64 view .LVU544
 2499 0124 62A3     		adr	r3, .L137
 2500 0126 D3E90023 		ldrd	r2, [r3]
 2501 012a FFF7FEFF 		bl	__aeabi_dmul
 2502              	.LVL208:
 383:Core/Src/freertos.c ****     }
 2503              		.loc 1 383 52 view .LVU545
 2504 012e 0022     		movs	r2, #0
 2505 0130 654B     		ldr	r3, .L137+24
 2506 0132 FFF7FEFF 		bl	__aeabi_ddiv
 2507              	.LVL209:
 2508 0136 FFF7FEFF 		bl	sin
 2509              	.LVL210:
 383:Core/Src/freertos.c ****     }
 2510              		.loc 1 383 50 view .LVU546
 2511 013a 0022     		movs	r2, #0
 2512 013c 634B     		ldr	r3, .L137+28
 2513 013e FFF7FEFF 		bl	__aeabi_dmul
 2514              	.LVL211:
ARM GAS  C:\Users\Vento\AppData\Local\Temp\ccxXLphG.s 			page 65


 383:Core/Src/freertos.c ****     }
 2515              		.loc 1 383 85 view .LVU547
 2516 0142 0022     		movs	r2, #0
 2517 0144 624B     		ldr	r3, .L137+32
 2518 0146 FFF7FEFF 		bl	__aeabi_dadd
 2519              	.LVL212:
 383:Core/Src/freertos.c ****     }
 2520              		.loc 1 383 36 view .LVU548
 2521 014a FFF7FEFF 		bl	__aeabi_d2uiz
 2522              	.LVL213:
 2523 014e C3B2     		uxtb	r3, r0
 383:Core/Src/freertos.c ****     }
 2524              		.loc 1 383 30 view .LVU549
 2525 0150 5B00     		lsls	r3, r3, #1
 2526 0152 5B4A     		ldr	r2, .L137+16
 2527 0154 82F88B30 		strb	r3, [r2, #139]
 2528              	.L108:
 392:Core/Src/freertos.c ****   {
 2529              		.loc 1 392 3 is_stmt 1 view .LVU550
 392:Core/Src/freertos.c ****   {
 2530              		.loc 1 392 16 is_stmt 0 view .LVU551
 2531 0158 604B     		ldr	r3, .L137+44
 2532 015a 1B7B     		ldrb	r3, [r3, #12]	@ zero_extendqisi2
 392:Core/Src/freertos.c ****   {
 2533              		.loc 1 392 6 view .LVU552
 2534 015c 002B     		cmp	r3, #0
 2535 015e 00F0A380 		beq	.L107
 394:Core/Src/freertos.c ****     if (currentPage == InfoPage)
 2536              		.loc 1 394 5 is_stmt 1 view .LVU553
 394:Core/Src/freertos.c ****     if (currentPage == InfoPage)
 2537              		.loc 1 394 14 is_stmt 0 view .LVU554
 2538 0162 5F4B     		ldr	r3, .L137+48
 2539 0164 1869     		ldr	r0, [r3, #16]
 394:Core/Src/freertos.c ****     if (currentPage == InfoPage)
 2540              		.loc 1 394 19 view .LVU555
 2541 0166 0130     		adds	r0, r0, #1
 2542 0168 1861     		str	r0, [r3, #16]
 395:Core/Src/freertos.c ****     {
 2543              		.loc 1 395 5 is_stmt 1 view .LVU556
 395:Core/Src/freertos.c ****     {
 2544              		.loc 1 395 21 is_stmt 0 view .LVU557
 2545 016a 564B     		ldr	r3, .L137+20
 2546 016c 1B78     		ldrb	r3, [r3]	@ zero_extendqisi2
 395:Core/Src/freertos.c ****     {
 2547              		.loc 1 395 8 view .LVU558
 2548 016e 022B     		cmp	r3, #2
 2549 0170 25D0     		beq	.L135
 2550              	.L118:
 417:Core/Src/freertos.c ****     {
 2551              		.loc 1 417 5 is_stmt 1 view .LVU559
 417:Core/Src/freertos.c ****     {
 2552              		.loc 1 417 18 is_stmt 0 view .LVU560
 2553 0172 5B4B     		ldr	r3, .L137+48
 2554 0174 1C69     		ldr	r4, [r3, #16]
 417:Core/Src/freertos.c ****     {
 2555              		.loc 1 417 8 view .LVU561
 2556 0176 782C     		cmp	r4, #120
ARM GAS  C:\Users\Vento\AppData\Local\Temp\ccxXLphG.s 			page 66


 2557 0178 00F29880 		bhi	.L129
 430:Core/Src/freertos.c ****     }
 2558              		.loc 1 430 7 is_stmt 1 view .LVU562
 430:Core/Src/freertos.c ****     }
 2559              		.loc 1 430 77 is_stmt 0 view .LVU563
 2560 017c 2046     		mov	r0, r4
 2561 017e FFF7FEFF 		bl	__aeabi_ui2d
 2562              	.LVL214:
 2563 0182 4BA3     		adr	r3, .L137
 2564 0184 D3E90023 		ldrd	r2, [r3]
 2565 0188 FFF7FEFF 		bl	__aeabi_dmul
 2566              	.LVL215:
 430:Core/Src/freertos.c ****     }
 2567              		.loc 1 430 65 view .LVU564
 2568 018c 0022     		movs	r2, #0
 2569 018e 4E4B     		ldr	r3, .L137+24
 2570 0190 FFF7FEFF 		bl	__aeabi_ddiv
 2571              	.LVL216:
 2572 0194 FFF7FEFF 		bl	cos
 2573              	.LVL217:
 430:Core/Src/freertos.c ****     }
 2574              		.loc 1 430 63 view .LVU565
 2575 0198 0022     		movs	r2, #0
 2576 019a 4C4B     		ldr	r3, .L137+28
 2577 019c FFF7FEFF 		bl	__aeabi_dmul
 2578              	.LVL218:
 430:Core/Src/freertos.c ****     }
 2579              		.loc 1 430 98 view .LVU566
 2580 01a0 0022     		movs	r2, #0
 2581 01a2 4B4B     		ldr	r3, .L137+32
 2582 01a4 FFF7FEFF 		bl	__aeabi_dadd
 2583              	.LVL219:
 430:Core/Src/freertos.c ****     }
 2584              		.loc 1 430 49 view .LVU567
 2585 01a8 FFF7FEFF 		bl	__aeabi_d2uiz
 2586              	.LVL220:
 2587 01ac C3B2     		uxtb	r3, r0
 430:Core/Src/freertos.c ****     }
 2588              		.loc 1 430 39 view .LVU568
 2589 01ae 013C     		subs	r4, r4, #1
 430:Core/Src/freertos.c ****     }
 2590              		.loc 1 430 43 view .LVU569
 2591 01b0 4B4A     		ldr	r2, .L137+48
 2592 01b2 1444     		add	r4, r4, r2
 2593 01b4 5B00     		lsls	r3, r3, #1
 2594 01b6 2375     		strb	r3, [r4, #20]
 434:Core/Src/freertos.c **** 
 2595              		.loc 1 434 1 view .LVU570
 2596 01b8 76E0     		b	.L107
 2597              	.L127:
 2598              	.LBB7:
 378:Core/Src/freertos.c ****       {
 2599              		.loc 1 378 19 view .LVU571
 2600 01ba 0022     		movs	r2, #0
 2601 01bc ADE7     		b	.L114
 2602              	.L135:
 2603              	.LBE7:
ARM GAS  C:\Users\Vento\AppData\Local\Temp\ccxXLphG.s 			page 67


 2604              	.LBB8:
 397:Core/Src/freertos.c ****       intToTime(Channel02.time, t_temp);
 2605              		.loc 1 397 7 is_stmt 1 view .LVU572
 398:Core/Src/freertos.c ****       ILI9341_WriteString(90, 170, t_temp, Font_7x10, ILI9341_GREEN, ILI9341_BLACK);
 2606              		.loc 1 398 7 view .LVU573
 2607 01be 05A9     		add	r1, sp, #20
 2608 01c0 FFF7FEFF 		bl	intToTime
 2609              	.LVL221:
 399:Core/Src/freertos.c ****       if((osMutexWait(Mutex01Handle, portMAX_DELAY) == osOK) && (currentPage == InfoPage))
 2610              		.loc 1 399 7 view .LVU574
 2611 01c4 434B     		ldr	r3, .L137+36
 2612 01c6 0022     		movs	r2, #0
 2613 01c8 0292     		str	r2, [sp, #8]
 2614 01ca 4FF4FC62 		mov	r2, #2016
 2615 01ce 0192     		str	r2, [sp, #4]
 2616 01d0 5A68     		ldr	r2, [r3, #4]
 2617 01d2 0092     		str	r2, [sp]
 2618 01d4 1B68     		ldr	r3, [r3]
 2619 01d6 05AA     		add	r2, sp, #20
 2620 01d8 AA21     		movs	r1, #170
 2621 01da 5A20     		movs	r0, #90
 2622 01dc FFF7FEFF 		bl	ILI9341_WriteString
 2623              	.LVL222:
 400:Core/Src/freertos.c ****       {
 2624              		.loc 1 400 7 view .LVU575
 400:Core/Src/freertos.c ****       {
 2625              		.loc 1 400 11 is_stmt 0 view .LVU576
 2626 01e0 4FF0FF31 		mov	r1, #-1
 2627 01e4 3C4B     		ldr	r3, .L137+40
 2628 01e6 1868     		ldr	r0, [r3]
 2629 01e8 FFF7FEFF 		bl	osMutexAcquire
 2630              	.LVL223:
 400:Core/Src/freertos.c ****       {
 2631              		.loc 1 400 9 view .LVU577
 2632 01ec 0028     		cmp	r0, #0
 2633 01ee C0D1     		bne	.L118
 400:Core/Src/freertos.c ****       {
 2634              		.loc 1 400 78 discriminator 1 view .LVU578
 2635 01f0 344B     		ldr	r3, .L137+20
 2636 01f2 1B78     		ldrb	r3, [r3]	@ zero_extendqisi2
 400:Core/Src/freertos.c ****       {
 2637              		.loc 1 400 62 discriminator 1 view .LVU579
 2638 01f4 022B     		cmp	r3, #2
 2639 01f6 BCD1     		bne	.L118
 2640              	.LBB9:
 402:Core/Src/freertos.c ****         {
 2641              		.loc 1 402 21 view .LVU580
 2642 01f8 0024     		movs	r4, #0
 2643 01fa 12E0     		b	.L120
 2644              	.LVL224:
 2645              	.L121:
 409:Core/Src/freertos.c ****           ILI9341_DrawPixel(191+i, 220-Channel02.history[i], ILI9341_RED);
 2646              		.loc 1 409 11 is_stmt 1 discriminator 2 view .LVU581
 2647 01fc 4FF6FF72 		movw	r2, #65535
 2648 0200 DC21     		movs	r1, #220
 2649 0202 2846     		mov	r0, r5
 2650 0204 FFF7FEFF 		bl	ILI9341_DrawPixel
ARM GAS  C:\Users\Vento\AppData\Local\Temp\ccxXLphG.s 			page 68


 2651              	.LVL225:
 410:Core/Src/freertos.c ****         }
 2652              		.loc 1 410 11 discriminator 2 view .LVU582
 410:Core/Src/freertos.c ****         }
 2653              		.loc 1 410 57 is_stmt 0 discriminator 2 view .LVU583
 2654 0208 354B     		ldr	r3, .L137+48
 2655 020a 2344     		add	r3, r3, r4
 2656 020c 197D     		ldrb	r1, [r3, #20]	@ zero_extendqisi2
 410:Core/Src/freertos.c ****         }
 2657              		.loc 1 410 11 discriminator 2 view .LVU584
 2658 020e C1F1DC01 		rsb	r1, r1, #220
 2659 0212 4FF47842 		mov	r2, #63488
 2660 0216 89B2     		uxth	r1, r1
 2661 0218 2846     		mov	r0, r5
 2662 021a FFF7FEFF 		bl	ILI9341_DrawPixel
 2663              	.LVL226:
 402:Core/Src/freertos.c ****         {
 2664              		.loc 1 402 37 is_stmt 1 discriminator 2 view .LVU585
 402:Core/Src/freertos.c ****         {
 2665              		.loc 1 402 38 is_stmt 0 discriminator 2 view .LVU586
 2666 021e 0134     		adds	r4, r4, #1
 2667              	.LVL227:
 402:Core/Src/freertos.c ****         {
 2668              		.loc 1 402 38 discriminator 2 view .LVU587
 2669 0220 E4B2     		uxtb	r4, r4
 2670              	.LVL228:
 2671              	.L120:
 402:Core/Src/freertos.c ****         {
 2672              		.loc 1 402 28 is_stmt 1 discriminator 1 view .LVU588
 402:Core/Src/freertos.c ****         {
 2673              		.loc 1 402 9 is_stmt 0 discriminator 1 view .LVU589
 2674 0222 772C     		cmp	r4, #119
 2675 0224 15D8     		bhi	.L136
 404:Core/Src/freertos.c ****           if (i < 3)
 2676              		.loc 1 404 11 is_stmt 1 view .LVU590
 2677 0226 04F1BF05 		add	r5, r4, #191
 2678 022a 0023     		movs	r3, #0
 2679 022c 0093     		str	r3, [sp]
 2680 022e DC23     		movs	r3, #220
 2681 0230 2A46     		mov	r2, r5
 2682 0232 8C21     		movs	r1, #140
 2683 0234 2846     		mov	r0, r5
 2684 0236 FFF7FEFF 		bl	ILI9341_DrawLine
 2685              	.LVL229:
 405:Core/Src/freertos.c ****           {
 2686              		.loc 1 405 11 view .LVU591
 405:Core/Src/freertos.c ****           {
 2687              		.loc 1 405 14 is_stmt 0 view .LVU592
 2688 023a 022C     		cmp	r4, #2
 2689 023c DED8     		bhi	.L121
 407:Core/Src/freertos.c ****           }
 2690              		.loc 1 407 13 is_stmt 1 view .LVU593
 2691 023e 4FF6FF73 		movw	r3, #65535
 2692 0242 0093     		str	r3, [sp]
 2693 0244 8E23     		movs	r3, #142
 2694 0246 C022     		movs	r2, #192
 2695 0248 8C21     		movs	r1, #140
ARM GAS  C:\Users\Vento\AppData\Local\Temp\ccxXLphG.s 			page 69


 2696 024a BE20     		movs	r0, #190
 2697 024c FFF7FEFF 		bl	ILI9341_DrawLine
 2698              	.LVL230:
 2699 0250 D4E7     		b	.L121
 2700              	.L136:
 2701              	.LBE9:
 412:Core/Src/freertos.c ****       }
 2702              		.loc 1 412 9 view .LVU594
 2703 0252 214B     		ldr	r3, .L137+40
 2704 0254 1868     		ldr	r0, [r3]
 2705 0256 FFF7FEFF 		bl	osMutexRelease
 2706              	.LVL231:
 2707 025a 8AE7     		b	.L118
 2708              	.LVL232:
 2709              	.L125:
 412:Core/Src/freertos.c ****       }
 2710              		.loc 1 412 9 is_stmt 0 view .LVU595
 2711              	.LBE8:
 2712              	.LBB10:
 422:Core/Src/freertos.c ****       }
 2713              		.loc 1 422 9 is_stmt 1 discriminator 3 view .LVU596
 422:Core/Src/freertos.c ****       }
 2714              		.loc 1 422 51 is_stmt 0 discriminator 3 view .LVU597
 2715 025c 511C     		adds	r1, r2, #1
 422:Core/Src/freertos.c ****       }
 2716              		.loc 1 422 49 discriminator 3 view .LVU598
 2717 025e 204B     		ldr	r3, .L137+48
 2718 0260 5818     		adds	r0, r3, r1
 2719 0262 007D     		ldrb	r0, [r0, #20]	@ zero_extendqisi2
 422:Core/Src/freertos.c ****       }
 2720              		.loc 1 422 30 discriminator 3 view .LVU599
 2721 0264 1344     		add	r3, r3, r2
 2722 0266 1875     		strb	r0, [r3, #20]
 420:Core/Src/freertos.c ****       {
 2723              		.loc 1 420 35 is_stmt 1 discriminator 3 view .LVU600
 420:Core/Src/freertos.c ****       {
 2724              		.loc 1 420 36 is_stmt 0 discriminator 3 view .LVU601
 2725 0268 CAB2     		uxtb	r2, r1
 2726              	.LVL233:
 2727              	.L123:
 420:Core/Src/freertos.c ****       {
 2728              		.loc 1 420 26 is_stmt 1 discriminator 1 view .LVU602
 420:Core/Src/freertos.c ****       {
 2729              		.loc 1 420 7 is_stmt 0 discriminator 1 view .LVU603
 2730 026a 762A     		cmp	r2, #118
 2731 026c F6D9     		bls	.L125
 2732              	.LBE10:
 425:Core/Src/freertos.c ****     }
 2733              		.loc 1 425 7 is_stmt 1 view .LVU604
 425:Core/Src/freertos.c ****     }
 2734              		.loc 1 425 64 is_stmt 0 view .LVU605
 2735 026e 2046     		mov	r0, r4
 2736 0270 FFF7FEFF 		bl	__aeabi_ui2d
 2737              	.LVL234:
 425:Core/Src/freertos.c ****     }
 2738              		.loc 1 425 64 view .LVU606
 2739 0274 0EA3     		adr	r3, .L137
ARM GAS  C:\Users\Vento\AppData\Local\Temp\ccxXLphG.s 			page 70


 2740 0276 D3E90023 		ldrd	r2, [r3]
 2741 027a FFF7FEFF 		bl	__aeabi_dmul
 2742              	.LVL235:
 425:Core/Src/freertos.c ****     }
 2743              		.loc 1 425 52 view .LVU607
 2744 027e 0022     		movs	r2, #0
 2745 0280 114B     		ldr	r3, .L137+24
 2746 0282 FFF7FEFF 		bl	__aeabi_ddiv
 2747              	.LVL236:
 2748 0286 FFF7FEFF 		bl	cos
 2749              	.LVL237:
 425:Core/Src/freertos.c ****     }
 2750              		.loc 1 425 50 view .LVU608
 2751 028a 0022     		movs	r2, #0
 2752 028c 0F4B     		ldr	r3, .L137+28
 2753 028e FFF7FEFF 		bl	__aeabi_dmul
 2754              	.LVL238:
 425:Core/Src/freertos.c ****     }
 2755              		.loc 1 425 85 view .LVU609
 2756 0292 0022     		movs	r2, #0
 2757 0294 0E4B     		ldr	r3, .L137+32
 2758 0296 FFF7FEFF 		bl	__aeabi_dadd
 2759              	.LVL239:
 425:Core/Src/freertos.c ****     }
 2760              		.loc 1 425 36 view .LVU610
 2761 029a FFF7FEFF 		bl	__aeabi_d2uiz
 2762              	.LVL240:
 2763 029e C3B2     		uxtb	r3, r0
 425:Core/Src/freertos.c ****     }
 2764              		.loc 1 425 30 view .LVU611
 2765 02a0 5B00     		lsls	r3, r3, #1
 2766 02a2 0F4A     		ldr	r2, .L137+48
 2767 02a4 82F88B30 		strb	r3, [r2, #139]
 2768              	.L107:
 434:Core/Src/freertos.c **** 
 2769              		.loc 1 434 1 view .LVU612
 2770 02a8 09B0     		add	sp, sp, #36
 2771              	.LCFI28:
 2772              		.cfi_remember_state
 2773              		.cfi_def_cfa_offset 12
 2774              		@ sp needed
 2775 02aa 30BD     		pop	{r4, r5, pc}
 2776              	.L129:
 2777              	.LCFI29:
 2778              		.cfi_restore_state
 2779              	.LBB11:
 420:Core/Src/freertos.c ****       {
 2780              		.loc 1 420 19 view .LVU613
 2781 02ac 0022     		movs	r2, #0
 2782 02ae DCE7     		b	.L123
 2783              	.L138:
 2784              		.align	3
 2785              	.L137:
 2786 02b0 C976BE9F 		.word	-1614907703
 2787 02b4 1A2F1940 		.word	1075392282
 2788 02b8 00100140 		.word	1073811456
 2789 02bc 00000000 		.word	.LANCHOR15
ARM GAS  C:\Users\Vento\AppData\Local\Temp\ccxXLphG.s 			page 71


 2790 02c0 00000000 		.word	.LANCHOR21
 2791 02c4 00000000 		.word	.LANCHOR19
 2792 02c8 00004E40 		.word	1078853632
 2793 02cc 00002440 		.word	1076101120
 2794 02d0 00003440 		.word	1077149696
 2795 02d4 00000000 		.word	Font_7x10
 2796 02d8 00000000 		.word	.LANCHOR2
 2797 02dc 00000000 		.word	.LANCHOR16
 2798 02e0 00000000 		.word	.LANCHOR22
 2799              	.LBE11:
 2800              		.cfi_endproc
 2801              	.LFE73:
 2803              		.section	.rodata.InfoPageDisplay.str1.4,"aMS",%progbits,1
 2804              		.align	2
 2805              	.LC8:
 2806 0000 43757272 		.ascii	"Current: \000"
 2806      656E743A 
 2806      2000
 2807 000a 0000     		.align	2
 2808              	.LC9:
 2809 000c 6D4100   		.ascii	"mA\000"
 2810 000f 00       		.align	2
 2811              	.LC10:
 2812 0010 506F7765 		.ascii	"Power: \000"
 2812      723A2000 
 2813              		.align	2
 2814              	.LC11:
 2815 0018 5700     		.ascii	"W\000"
 2816 001a 0000     		.align	2
 2817              	.LC12:
 2818 001c 50657269 		.ascii	"Period: \000"
 2818      6F643A20 
 2818      00
 2819 0025 000000   		.align	2
 2820              	.LC13:
 2821 0028 7400     		.ascii	"t\000"
 2822 002a 0000     		.align	2
 2823              	.LC14:
 2824 002c 363000   		.ascii	"60\000"
 2825 002f 00       		.align	2
 2826              	.LC15:
 2827 0030 5000     		.ascii	"P\000"
 2828 0032 0000     		.align	2
 2829              	.LC16:
 2830 0034 323000   		.ascii	"20\000"
 2831 0037 00       		.align	2
 2832              	.LC17:
 2833 0038 3000     		.ascii	"0\000"
 2834 003a 0000     		.align	2
 2835              	.LC18:
 2836 003c 3C3C00   		.ascii	"<<\000"
 2837              		.section	.text.InfoPageDisplay,"ax",%progbits
 2838              		.align	1
 2839              		.global	InfoPageDisplay
 2840              		.syntax unified
 2841              		.thumb
 2842              		.thumb_func
ARM GAS  C:\Users\Vento\AppData\Local\Temp\ccxXLphG.s 			page 72


 2843              		.fpu softvfp
 2845              	InfoPageDisplay:
 2846              	.LFB78:
 543:Core/Src/freertos.c ****   ILI9341_FillScreen(ILI9341_BLACK);
 2847              		.loc 1 543 1 is_stmt 1 view -0
 2848              		.cfi_startproc
 2849              		@ args = 0, pretend = 0, frame = 24
 2850              		@ frame_needed = 0, uses_anonymous_args = 0
 2851 0000 2DE9F04F 		push	{r4, r5, r6, r7, r8, r9, r10, fp, lr}
 2852              	.LCFI30:
 2853              		.cfi_def_cfa_offset 36
 2854              		.cfi_offset 4, -36
 2855              		.cfi_offset 5, -32
 2856              		.cfi_offset 6, -28
 2857              		.cfi_offset 7, -24
 2858              		.cfi_offset 8, -20
 2859              		.cfi_offset 9, -16
 2860              		.cfi_offset 10, -12
 2861              		.cfi_offset 11, -8
 2862              		.cfi_offset 14, -4
 2863 0004 8BB0     		sub	sp, sp, #44
 2864              	.LCFI31:
 2865              		.cfi_def_cfa_offset 80
 544:Core/Src/freertos.c **** 
 2866              		.loc 1 544 3 view .LVU615
 2867 0006 0020     		movs	r0, #0
 2868 0008 FFF7FEFF 		bl	ILI9341_FillScreen
 2869              	.LVL241:
 546:Core/Src/freertos.c ****   char t_temp[9];
 2870              		.loc 1 546 3 view .LVU616
 547:Core/Src/freertos.c **** 
 2871              		.loc 1 547 3 view .LVU617
 549:Core/Src/freertos.c **** 
 2872              		.loc 1 549 3 view .LVU618
 2873 000c DFF8E0A2 		ldr	r10, .L145
 2874 0010 0024     		movs	r4, #0
 2875 0012 0294     		str	r4, [sp, #8]
 2876 0014 4FF6FF76 		movw	r6, #65535
 2877 0018 0196     		str	r6, [sp, #4]
 2878 001a DAF80430 		ldr	r3, [r10, #4]
 2879 001e 0093     		str	r3, [sp]
 2880 0020 DAF80030 		ldr	r3, [r10]
 2881 0024 B34A     		ldr	r2, .L145+4
 2882 0026 0F21     		movs	r1, #15
 2883 0028 1E20     		movs	r0, #30
 2884 002a FFF7FEFF 		bl	ILI9341_WriteString
 2885              	.LVL242:
 551:Core/Src/freertos.c ****   ftoa(Channel01.current, temp, 1);
 2886              		.loc 1 551 3 view .LVU619
 2887 002e B24D     		ldr	r5, .L145+8
 2888 0030 0294     		str	r4, [sp, #8]
 2889 0032 4FF6E078 		movw	r8, #65504
 2890 0036 CDF80480 		str	r8, [sp, #4]
 2891 003a 6B68     		ldr	r3, [r5, #4]
 2892 003c 0093     		str	r3, [sp]
 2893 003e 2B68     		ldr	r3, [r5]
 2894 0040 AE4A     		ldr	r2, .L145+12
ARM GAS  C:\Users\Vento\AppData\Local\Temp\ccxXLphG.s 			page 73


 2895 0042 2821     		movs	r1, #40
 2896 0044 1420     		movs	r0, #20
 2897 0046 FFF7FEFF 		bl	ILI9341_WriteString
 2898              	.LVL243:
 552:Core/Src/freertos.c ****   ILI9341_WriteString(90, 40, temp, Font_7x10, ILI9341_YELLOW, ILI9341_BLACK);
 2899              		.loc 1 552 3 view .LVU620
 552:Core/Src/freertos.c ****   ILI9341_WriteString(90, 40, temp, Font_7x10, ILI9341_YELLOW, ILI9341_BLACK);
 2900              		.loc 1 552 17 is_stmt 0 view .LVU621
 2901 004a DFF8B4B2 		ldr	fp, .L145+16
 552:Core/Src/freertos.c ****   ILI9341_WriteString(90, 40, temp, Font_7x10, ILI9341_YELLOW, ILI9341_BLACK);
 2902              		.loc 1 552 3 view .LVU622
 2903 004e DBE90201 		ldrd	r0, [fp, #8]
 2904 0052 FFF7FEFF 		bl	__aeabi_d2f
 2905              	.LVL244:
 2906 0056 0122     		movs	r2, #1
 2907 0058 08A9     		add	r1, sp, #32
 2908 005a FFF7FEFF 		bl	ftoa
 2909              	.LVL245:
 553:Core/Src/freertos.c ****   ILI9341_WriteString(125, 40, "mA", Font_7x10, ILI9341_YELLOW, ILI9341_BLACK);
 2910              		.loc 1 553 3 is_stmt 1 view .LVU623
 2911 005e 0294     		str	r4, [sp, #8]
 2912 0060 CDF80480 		str	r8, [sp, #4]
 2913 0064 6B68     		ldr	r3, [r5, #4]
 2914 0066 0093     		str	r3, [sp]
 2915 0068 2B68     		ldr	r3, [r5]
 2916 006a 08AA     		add	r2, sp, #32
 2917 006c 2821     		movs	r1, #40
 2918 006e 5A20     		movs	r0, #90
 2919 0070 FFF7FEFF 		bl	ILI9341_WriteString
 2920              	.LVL246:
 554:Core/Src/freertos.c **** 
 2921              		.loc 1 554 3 view .LVU624
 2922 0074 0294     		str	r4, [sp, #8]
 2923 0076 CDF80480 		str	r8, [sp, #4]
 2924 007a 6B68     		ldr	r3, [r5, #4]
 2925 007c 0093     		str	r3, [sp]
 2926 007e 2B68     		ldr	r3, [r5]
 2927 0080 A04A     		ldr	r2, .L145+20
 2928 0082 2821     		movs	r1, #40
 2929 0084 7D20     		movs	r0, #125
 2930 0086 FFF7FEFF 		bl	ILI9341_WriteString
 2931              	.LVL247:
 556:Core/Src/freertos.c ****   ftoa(Channel01.current * 220 / 1000, temp, 1);
 2932              		.loc 1 556 3 view .LVU625
 2933 008a 0294     		str	r4, [sp, #8]
 2934 008c 4FF47847 		mov	r7, #63488
 2935 0090 0197     		str	r7, [sp, #4]
 2936 0092 6B68     		ldr	r3, [r5, #4]
 2937 0094 0093     		str	r3, [sp]
 2938 0096 2B68     		ldr	r3, [r5]
 2939 0098 9B4A     		ldr	r2, .L145+24
 2940 009a 3C21     		movs	r1, #60
 2941 009c 1420     		movs	r0, #20
 2942 009e FFF7FEFF 		bl	ILI9341_WriteString
 2943              	.LVL248:
 557:Core/Src/freertos.c ****   ILI9341_WriteString(90, 60, temp, Font_7x10, ILI9341_RED, ILI9341_BLACK);
 2944              		.loc 1 557 3 view .LVU626
ARM GAS  C:\Users\Vento\AppData\Local\Temp\ccxXLphG.s 			page 74


 557:Core/Src/freertos.c ****   ILI9341_WriteString(90, 60, temp, Font_7x10, ILI9341_RED, ILI9341_BLACK);
 2945              		.loc 1 557 26 is_stmt 0 view .LVU627
 2946 00a2 0022     		movs	r2, #0
 2947 00a4 994B     		ldr	r3, .L145+28
 2948 00a6 DBE90201 		ldrd	r0, [fp, #8]
 2949 00aa FFF7FEFF 		bl	__aeabi_dmul
 2950              	.LVL249:
 557:Core/Src/freertos.c ****   ILI9341_WriteString(90, 60, temp, Font_7x10, ILI9341_RED, ILI9341_BLACK);
 2951              		.loc 1 557 32 view .LVU628
 2952 00ae 0022     		movs	r2, #0
 2953 00b0 974B     		ldr	r3, .L145+32
 2954 00b2 FFF7FEFF 		bl	__aeabi_ddiv
 2955              	.LVL250:
 557:Core/Src/freertos.c ****   ILI9341_WriteString(90, 60, temp, Font_7x10, ILI9341_RED, ILI9341_BLACK);
 2956              		.loc 1 557 3 view .LVU629
 2957 00b6 FFF7FEFF 		bl	__aeabi_d2f
 2958              	.LVL251:
 2959 00ba 0122     		movs	r2, #1
 2960 00bc 08A9     		add	r1, sp, #32
 2961 00be FFF7FEFF 		bl	ftoa
 2962              	.LVL252:
 558:Core/Src/freertos.c ****   ILI9341_WriteString(125, 60, "W", Font_7x10, ILI9341_RED, ILI9341_BLACK);
 2963              		.loc 1 558 3 is_stmt 1 view .LVU630
 2964 00c2 0294     		str	r4, [sp, #8]
 2965 00c4 0197     		str	r7, [sp, #4]
 2966 00c6 6B68     		ldr	r3, [r5, #4]
 2967 00c8 0093     		str	r3, [sp]
 2968 00ca 2B68     		ldr	r3, [r5]
 2969 00cc 08AA     		add	r2, sp, #32
 2970 00ce 3C21     		movs	r1, #60
 2971 00d0 5A20     		movs	r0, #90
 2972 00d2 FFF7FEFF 		bl	ILI9341_WriteString
 2973              	.LVL253:
 559:Core/Src/freertos.c **** 
 2974              		.loc 1 559 3 view .LVU631
 2975 00d6 0294     		str	r4, [sp, #8]
 2976 00d8 0197     		str	r7, [sp, #4]
 2977 00da 6B68     		ldr	r3, [r5, #4]
 2978 00dc 0093     		str	r3, [sp]
 2979 00de 2B68     		ldr	r3, [r5]
 2980 00e0 8C4A     		ldr	r2, .L145+36
 2981 00e2 3C21     		movs	r1, #60
 2982 00e4 7D20     		movs	r0, #125
 2983 00e6 FFF7FEFF 		bl	ILI9341_WriteString
 2984              	.LVL254:
 561:Core/Src/freertos.c ****   intToTime(Channel01.time, t_temp);
 2985              		.loc 1 561 3 view .LVU632
 2986 00ea 0294     		str	r4, [sp, #8]
 2987 00ec 4FF4FC69 		mov	r9, #2016
 2988 00f0 CDF80490 		str	r9, [sp, #4]
 2989 00f4 6B68     		ldr	r3, [r5, #4]
 2990 00f6 0093     		str	r3, [sp]
 2991 00f8 2B68     		ldr	r3, [r5]
 2992 00fa 874A     		ldr	r2, .L145+40
 2993 00fc 5021     		movs	r1, #80
 2994 00fe 1420     		movs	r0, #20
 2995 0100 FFF7FEFF 		bl	ILI9341_WriteString
ARM GAS  C:\Users\Vento\AppData\Local\Temp\ccxXLphG.s 			page 75


 2996              	.LVL255:
 562:Core/Src/freertos.c ****   ILI9341_WriteString(90, 80, t_temp, Font_7x10, ILI9341_GREEN, ILI9341_BLACK);
 2997              		.loc 1 562 3 view .LVU633
 2998 0104 05A9     		add	r1, sp, #20
 2999 0106 DBF81000 		ldr	r0, [fp, #16]
 3000 010a FFF7FEFF 		bl	intToTime
 3001              	.LVL256:
 563:Core/Src/freertos.c **** 
 3002              		.loc 1 563 3 view .LVU634
 3003 010e 0294     		str	r4, [sp, #8]
 3004 0110 CDF80490 		str	r9, [sp, #4]
 3005 0114 6B68     		ldr	r3, [r5, #4]
 3006 0116 0093     		str	r3, [sp]
 3007 0118 2B68     		ldr	r3, [r5]
 3008 011a 05AA     		add	r2, sp, #20
 3009 011c 5021     		movs	r1, #80
 3010 011e 5A20     		movs	r0, #90
 3011 0120 FFF7FEFF 		bl	ILI9341_WriteString
 3012              	.LVL257:
 567:Core/Src/freertos.c **** 
 3013              		.loc 1 567 3 view .LVU635
 3014 0124 0294     		str	r4, [sp, #8]
 3015 0126 0196     		str	r6, [sp, #4]
 3016 0128 DAF80430 		ldr	r3, [r10, #4]
 3017 012c 0093     		str	r3, [sp]
 3018 012e DAF80030 		ldr	r3, [r10]
 3019 0132 7A4A     		ldr	r2, .L145+44
 3020 0134 6921     		movs	r1, #105
 3021 0136 1E20     		movs	r0, #30
 3022 0138 FFF7FEFF 		bl	ILI9341_WriteString
 3023              	.LVL258:
 569:Core/Src/freertos.c ****   ftoa(Channel02.current, temp, 1);
 3024              		.loc 1 569 3 view .LVU636
 3025 013c 0294     		str	r4, [sp, #8]
 3026 013e CDF80480 		str	r8, [sp, #4]
 3027 0142 6B68     		ldr	r3, [r5, #4]
 3028 0144 0093     		str	r3, [sp]
 3029 0146 2B68     		ldr	r3, [r5]
 3030 0148 6C4A     		ldr	r2, .L145+12
 3031 014a 8221     		movs	r1, #130
 3032 014c 1420     		movs	r0, #20
 3033 014e FFF7FEFF 		bl	ILI9341_WriteString
 3034              	.LVL259:
 570:Core/Src/freertos.c ****   ILI9341_WriteString(90, 130, temp, Font_7x10, ILI9341_YELLOW, ILI9341_BLACK);
 3035              		.loc 1 570 3 view .LVU637
 570:Core/Src/freertos.c ****   ILI9341_WriteString(90, 130, temp, Font_7x10, ILI9341_YELLOW, ILI9341_BLACK);
 3036              		.loc 1 570 17 is_stmt 0 view .LVU638
 3037 0152 DFF8CCA1 		ldr	r10, .L145+48
 570:Core/Src/freertos.c ****   ILI9341_WriteString(90, 130, temp, Font_7x10, ILI9341_YELLOW, ILI9341_BLACK);
 3038              		.loc 1 570 3 view .LVU639
 3039 0156 DAE90201 		ldrd	r0, [r10, #8]
 3040 015a FFF7FEFF 		bl	__aeabi_d2f
 3041              	.LVL260:
 3042 015e 0122     		movs	r2, #1
 3043 0160 08A9     		add	r1, sp, #32
 3044 0162 FFF7FEFF 		bl	ftoa
 3045              	.LVL261:
ARM GAS  C:\Users\Vento\AppData\Local\Temp\ccxXLphG.s 			page 76


 571:Core/Src/freertos.c ****   ILI9341_WriteString(125, 130, "mA", Font_7x10, ILI9341_YELLOW, ILI9341_BLACK);
 3046              		.loc 1 571 3 is_stmt 1 view .LVU640
 3047 0166 0294     		str	r4, [sp, #8]
 3048 0168 CDF80480 		str	r8, [sp, #4]
 3049 016c 6B68     		ldr	r3, [r5, #4]
 3050 016e 0093     		str	r3, [sp]
 3051 0170 2B68     		ldr	r3, [r5]
 3052 0172 08AA     		add	r2, sp, #32
 3053 0174 8221     		movs	r1, #130
 3054 0176 5A20     		movs	r0, #90
 3055 0178 FFF7FEFF 		bl	ILI9341_WriteString
 3056              	.LVL262:
 572:Core/Src/freertos.c **** 
 3057              		.loc 1 572 3 view .LVU641
 3058 017c 0294     		str	r4, [sp, #8]
 3059 017e CDF80480 		str	r8, [sp, #4]
 3060 0182 6B68     		ldr	r3, [r5, #4]
 3061 0184 0093     		str	r3, [sp]
 3062 0186 2B68     		ldr	r3, [r5]
 3063 0188 5E4A     		ldr	r2, .L145+20
 3064 018a 8221     		movs	r1, #130
 3065 018c 7D20     		movs	r0, #125
 3066 018e FFF7FEFF 		bl	ILI9341_WriteString
 3067              	.LVL263:
 574:Core/Src/freertos.c ****   ftoa(Channel02.current * 220 / 1000, temp, 1);
 3068              		.loc 1 574 3 view .LVU642
 3069 0192 0294     		str	r4, [sp, #8]
 3070 0194 0197     		str	r7, [sp, #4]
 3071 0196 6B68     		ldr	r3, [r5, #4]
 3072 0198 0093     		str	r3, [sp]
 3073 019a 2B68     		ldr	r3, [r5]
 3074 019c 5A4A     		ldr	r2, .L145+24
 3075 019e 9621     		movs	r1, #150
 3076 01a0 1420     		movs	r0, #20
 3077 01a2 FFF7FEFF 		bl	ILI9341_WriteString
 3078              	.LVL264:
 575:Core/Src/freertos.c ****   ILI9341_WriteString(90, 150, temp, Font_7x10, ILI9341_RED, ILI9341_BLACK);
 3079              		.loc 1 575 3 view .LVU643
 575:Core/Src/freertos.c ****   ILI9341_WriteString(90, 150, temp, Font_7x10, ILI9341_RED, ILI9341_BLACK);
 3080              		.loc 1 575 26 is_stmt 0 view .LVU644
 3081 01a6 0022     		movs	r2, #0
 3082 01a8 584B     		ldr	r3, .L145+28
 3083 01aa DAE90201 		ldrd	r0, [r10, #8]
 3084 01ae FFF7FEFF 		bl	__aeabi_dmul
 3085              	.LVL265:
 575:Core/Src/freertos.c ****   ILI9341_WriteString(90, 150, temp, Font_7x10, ILI9341_RED, ILI9341_BLACK);
 3086              		.loc 1 575 32 view .LVU645
 3087 01b2 0022     		movs	r2, #0
 3088 01b4 564B     		ldr	r3, .L145+32
 3089 01b6 FFF7FEFF 		bl	__aeabi_ddiv
 3090              	.LVL266:
 575:Core/Src/freertos.c ****   ILI9341_WriteString(90, 150, temp, Font_7x10, ILI9341_RED, ILI9341_BLACK);
 3091              		.loc 1 575 3 view .LVU646
 3092 01ba FFF7FEFF 		bl	__aeabi_d2f
 3093              	.LVL267:
 3094 01be 0122     		movs	r2, #1
 3095 01c0 08A9     		add	r1, sp, #32
ARM GAS  C:\Users\Vento\AppData\Local\Temp\ccxXLphG.s 			page 77


 3096 01c2 FFF7FEFF 		bl	ftoa
 3097              	.LVL268:
 576:Core/Src/freertos.c ****   ILI9341_WriteString(125, 150, "W", Font_7x10, ILI9341_RED, ILI9341_BLACK);
 3098              		.loc 1 576 3 is_stmt 1 view .LVU647
 3099 01c6 0294     		str	r4, [sp, #8]
 3100 01c8 0197     		str	r7, [sp, #4]
 3101 01ca 6B68     		ldr	r3, [r5, #4]
 3102 01cc 0093     		str	r3, [sp]
 3103 01ce 2B68     		ldr	r3, [r5]
 3104 01d0 08AA     		add	r2, sp, #32
 3105 01d2 9621     		movs	r1, #150
 3106 01d4 5A20     		movs	r0, #90
 3107 01d6 FFF7FEFF 		bl	ILI9341_WriteString
 3108              	.LVL269:
 577:Core/Src/freertos.c **** 
 3109              		.loc 1 577 3 view .LVU648
 3110 01da 0294     		str	r4, [sp, #8]
 3111 01dc 0197     		str	r7, [sp, #4]
 3112 01de 6B68     		ldr	r3, [r5, #4]
 3113 01e0 0093     		str	r3, [sp]
 3114 01e2 2B68     		ldr	r3, [r5]
 3115 01e4 4B4A     		ldr	r2, .L145+36
 3116 01e6 9621     		movs	r1, #150
 3117 01e8 7D20     		movs	r0, #125
 3118 01ea FFF7FEFF 		bl	ILI9341_WriteString
 3119              	.LVL270:
 579:Core/Src/freertos.c ****   intToTime(Channel02.time, t_temp);
 3120              		.loc 1 579 3 view .LVU649
 3121 01ee 0294     		str	r4, [sp, #8]
 3122 01f0 CDF80490 		str	r9, [sp, #4]
 3123 01f4 6B68     		ldr	r3, [r5, #4]
 3124 01f6 0093     		str	r3, [sp]
 3125 01f8 2B68     		ldr	r3, [r5]
 3126 01fa 474A     		ldr	r2, .L145+40
 3127 01fc AA21     		movs	r1, #170
 3128 01fe 1420     		movs	r0, #20
 3129 0200 FFF7FEFF 		bl	ILI9341_WriteString
 3130              	.LVL271:
 580:Core/Src/freertos.c ****   ILI9341_WriteString(90, 170, t_temp, Font_7x10, ILI9341_GREEN, ILI9341_BLACK);
 3131              		.loc 1 580 3 view .LVU650
 3132 0204 05A9     		add	r1, sp, #20
 3133 0206 DAF81000 		ldr	r0, [r10, #16]
 3134 020a FFF7FEFF 		bl	intToTime
 3135              	.LVL272:
 581:Core/Src/freertos.c **** 
 3136              		.loc 1 581 3 view .LVU651
 3137 020e 0294     		str	r4, [sp, #8]
 3138 0210 CDF80490 		str	r9, [sp, #4]
 3139 0214 6B68     		ldr	r3, [r5, #4]
 3140 0216 0093     		str	r3, [sp]
 3141 0218 2B68     		ldr	r3, [r5]
 3142 021a 05AA     		add	r2, sp, #20
 3143 021c AA21     		movs	r1, #170
 3144 021e 5A20     		movs	r0, #90
 3145 0220 FFF7FEFF 		bl	ILI9341_WriteString
 3146              	.LVL273:
 584:Core/Src/freertos.c ****   ILI9341_DrawLine(160, 120, 319, 120, ILI9341_WHITE);
ARM GAS  C:\Users\Vento\AppData\Local\Temp\ccxXLphG.s 			page 78


 3147              		.loc 1 584 3 view .LVU652
 3148 0224 0096     		str	r6, [sp]
 3149 0226 EF23     		movs	r3, #239
 3150 0228 A022     		movs	r2, #160
 3151 022a 2146     		mov	r1, r4
 3152 022c 1046     		mov	r0, r2
 3153 022e FFF7FEFF 		bl	ILI9341_DrawLine
 3154              	.LVL274:
 585:Core/Src/freertos.c **** 
 3155              		.loc 1 585 3 view .LVU653
 3156 0232 0096     		str	r6, [sp]
 3157 0234 7823     		movs	r3, #120
 3158 0236 40F23F12 		movw	r2, #319
 3159 023a 1946     		mov	r1, r3
 3160 023c A020     		movs	r0, #160
 3161 023e FFF7FEFF 		bl	ILI9341_DrawLine
 3162              	.LVL275:
 588:Core/Src/freertos.c ****   ILI9341_DrawLine(313, 218, 315, 220, ILI9341_WHITE);
 3163              		.loc 1 588 3 view .LVU654
 3164 0242 0096     		str	r6, [sp]
 3165 0244 DC23     		movs	r3, #220
 3166 0246 40F23B12 		movw	r2, #315
 3167 024a 1946     		mov	r1, r3
 3168 024c BE20     		movs	r0, #190
 3169 024e FFF7FEFF 		bl	ILI9341_DrawLine
 3170              	.LVL276:
 589:Core/Src/freertos.c ****   ILI9341_DrawLine(313, 222, 315, 220, ILI9341_WHITE);
 3171              		.loc 1 589 3 view .LVU655
 3172 0252 0096     		str	r6, [sp]
 3173 0254 DC23     		movs	r3, #220
 3174 0256 40F23B12 		movw	r2, #315
 3175 025a DA21     		movs	r1, #218
 3176 025c 40F23910 		movw	r0, #313
 3177 0260 FFF7FEFF 		bl	ILI9341_DrawLine
 3178              	.LVL277:
 590:Core/Src/freertos.c ****   ILI9341_WriteString(310, 227, "t", Font_7x10, ILI9341_WHITE, ILI9341_BLACK);
 3179              		.loc 1 590 3 view .LVU656
 3180 0264 0096     		str	r6, [sp]
 3181 0266 DC23     		movs	r3, #220
 3182 0268 40F23B12 		movw	r2, #315
 3183 026c DE21     		movs	r1, #222
 3184 026e 40F23910 		movw	r0, #313
 3185 0272 FFF7FEFF 		bl	ILI9341_DrawLine
 3186              	.LVL278:
 591:Core/Src/freertos.c ****   ILI9341_DrawLine(250, 220, 250, 223, ILI9341_WHITE);
 3187              		.loc 1 591 3 view .LVU657
 3188 0276 0294     		str	r4, [sp, #8]
 3189 0278 0196     		str	r6, [sp, #4]
 3190 027a 6B68     		ldr	r3, [r5, #4]
 3191 027c 0093     		str	r3, [sp]
 3192 027e 2B68     		ldr	r3, [r5]
 3193 0280 284A     		ldr	r2, .L145+52
 3194 0282 E321     		movs	r1, #227
 3195 0284 4FF49B70 		mov	r0, #310
 3196 0288 FFF7FEFF 		bl	ILI9341_WriteString
 3197              	.LVL279:
 592:Core/Src/freertos.c ****   ILI9341_WriteString(243, 227, "60", Font_7x10, ILI9341_WHITE, ILI9341_BLACK);
ARM GAS  C:\Users\Vento\AppData\Local\Temp\ccxXLphG.s 			page 79


 3198              		.loc 1 592 3 view .LVU658
 3199 028c 0096     		str	r6, [sp]
 3200 028e DF23     		movs	r3, #223
 3201 0290 FA22     		movs	r2, #250
 3202 0292 DC21     		movs	r1, #220
 3203 0294 1046     		mov	r0, r2
 3204 0296 FFF7FEFF 		bl	ILI9341_DrawLine
 3205              	.LVL280:
 593:Core/Src/freertos.c ****   
 3206              		.loc 1 593 3 view .LVU659
 3207 029a 0294     		str	r4, [sp, #8]
 3208 029c 0196     		str	r6, [sp, #4]
 3209 029e 6B68     		ldr	r3, [r5, #4]
 3210 02a0 0093     		str	r3, [sp]
 3211 02a2 2B68     		ldr	r3, [r5]
 3212 02a4 204A     		ldr	r2, .L145+56
 3213 02a6 E321     		movs	r1, #227
 3214 02a8 F320     		movs	r0, #243
 3215 02aa FFF7FEFF 		bl	ILI9341_WriteString
 3216              	.LVL281:
 595:Core/Src/freertos.c ****   ILI9341_DrawLine(190, 140, 192, 142, ILI9341_WHITE);
 3217              		.loc 1 595 3 view .LVU660
 3218 02ae 0096     		str	r6, [sp]
 3219 02b0 DC23     		movs	r3, #220
 3220 02b2 BE22     		movs	r2, #190
 3221 02b4 8C21     		movs	r1, #140
 3222 02b6 1046     		mov	r0, r2
 3223 02b8 FFF7FEFF 		bl	ILI9341_DrawLine
 3224              	.LVL282:
 596:Core/Src/freertos.c ****   ILI9341_DrawLine(190, 140, 188, 142, ILI9341_WHITE);
 3225              		.loc 1 596 3 view .LVU661
 3226 02bc 0096     		str	r6, [sp]
 3227 02be 8E23     		movs	r3, #142
 3228 02c0 C022     		movs	r2, #192
 3229 02c2 8C21     		movs	r1, #140
 3230 02c4 BE20     		movs	r0, #190
 3231 02c6 FFF7FEFF 		bl	ILI9341_DrawLine
 3232              	.LVL283:
 597:Core/Src/freertos.c ****   ILI9341_WriteString(178, 135, "P", Font_7x10, ILI9341_WHITE, ILI9341_BLACK);
 3233              		.loc 1 597 3 view .LVU662
 3234 02ca 0096     		str	r6, [sp]
 3235 02cc 8E23     		movs	r3, #142
 3236 02ce BC22     		movs	r2, #188
 3237 02d0 8C21     		movs	r1, #140
 3238 02d2 BE20     		movs	r0, #190
 3239 02d4 FFF7FEFF 		bl	ILI9341_DrawLine
 3240              	.LVL284:
 598:Core/Src/freertos.c ****   ILI9341_DrawLine(187, 180, 190, 180, ILI9341_WHITE);
 3241              		.loc 1 598 3 view .LVU663
 3242 02d8 0294     		str	r4, [sp, #8]
 3243 02da 0196     		str	r6, [sp, #4]
 3244 02dc 6B68     		ldr	r3, [r5, #4]
 3245 02de 0093     		str	r3, [sp]
 3246 02e0 2B68     		ldr	r3, [r5]
 3247 02e2 124A     		ldr	r2, .L145+60
 3248 02e4 8721     		movs	r1, #135
 3249 02e6 B220     		movs	r0, #178
ARM GAS  C:\Users\Vento\AppData\Local\Temp\ccxXLphG.s 			page 80


 3250 02e8 FFF7FEFF 		bl	ILI9341_WriteString
 3251              	.LVL285:
 3252 02ec 20E0     		b	.L146
 3253              	.L147:
 3254 02ee 00BF     		.align	2
 3255              	.L145:
 3256 02f0 00000000 		.word	Font_11x18
 3257 02f4 00000000 		.word	.LC0
 3258 02f8 00000000 		.word	Font_7x10
 3259 02fc 00000000 		.word	.LC8
 3260 0300 00000000 		.word	.LANCHOR21
 3261 0304 0C000000 		.word	.LC9
 3262 0308 10000000 		.word	.LC10
 3263 030c 00806B40 		.word	1080786944
 3264 0310 00408F40 		.word	1083129856
 3265 0314 18000000 		.word	.LC11
 3266 0318 1C000000 		.word	.LC12
 3267 031c 0C000000 		.word	.LC1
 3268 0320 00000000 		.word	.LANCHOR22
 3269 0324 28000000 		.word	.LC13
 3270 0328 2C000000 		.word	.LC14
 3271 032c 30000000 		.word	.LC15
 3272              	.L146:
 599:Core/Src/freertos.c ****   ILI9341_WriteString(171, 176, "20", Font_7x10, ILI9341_WHITE, ILI9341_BLACK);
 3273              		.loc 1 599 3 view .LVU664
 3274 0330 0096     		str	r6, [sp]
 3275 0332 B423     		movs	r3, #180
 3276 0334 BE22     		movs	r2, #190
 3277 0336 1946     		mov	r1, r3
 3278 0338 BB20     		movs	r0, #187
 3279 033a FFF7FEFF 		bl	ILI9341_DrawLine
 3280              	.LVL286:
 600:Core/Src/freertos.c **** 
 3281              		.loc 1 600 3 view .LVU665
 3282 033e 0294     		str	r4, [sp, #8]
 3283 0340 0196     		str	r6, [sp, #4]
 3284 0342 6B68     		ldr	r3, [r5, #4]
 3285 0344 0093     		str	r3, [sp]
 3286 0346 2B68     		ldr	r3, [r5]
 3287 0348 5F4A     		ldr	r2, .L148
 3288 034a B021     		movs	r1, #176
 3289 034c AB20     		movs	r0, #171
 3290 034e FFF7FEFF 		bl	ILI9341_WriteString
 3291              	.LVL287:
 602:Core/Src/freertos.c **** 
 3292              		.loc 1 602 3 view .LVU666
 3293 0352 0294     		str	r4, [sp, #8]
 3294 0354 0196     		str	r6, [sp, #4]
 3295 0356 6B68     		ldr	r3, [r5, #4]
 3296 0358 0093     		str	r3, [sp]
 3297 035a 2B68     		ldr	r3, [r5]
 3298 035c 5B4A     		ldr	r2, .L148+4
 3299 035e E321     		movs	r1, #227
 3300 0360 B220     		movs	r0, #178
 3301 0362 FFF7FEFF 		bl	ILI9341_WriteString
 3302              	.LVL288:
 604:Core/Src/freertos.c ****   {
ARM GAS  C:\Users\Vento\AppData\Local\Temp\ccxXLphG.s 			page 81


 3303              		.loc 1 604 3 view .LVU667
 3304              	.LBB12:
 604:Core/Src/freertos.c ****   {
 3305              		.loc 1 604 7 view .LVU668
 604:Core/Src/freertos.c ****   {
 3306              		.loc 1 604 3 is_stmt 0 view .LVU669
 3307 0366 0DE0     		b	.L140
 3308              	.LVL289:
 3309              	.L141:
 606:Core/Src/freertos.c ****   }
 3310              		.loc 1 606 5 is_stmt 1 discriminator 3 view .LVU670
 606:Core/Src/freertos.c ****   }
 3311              		.loc 1 606 51 is_stmt 0 discriminator 3 view .LVU671
 3312 0368 594B     		ldr	r3, .L148+8
 3313 036a 2344     		add	r3, r3, r4
 3314 036c 197D     		ldrb	r1, [r3, #20]	@ zero_extendqisi2
 606:Core/Src/freertos.c ****   }
 3315              		.loc 1 606 5 discriminator 3 view .LVU672
 3316 036e C1F1DC01 		rsb	r1, r1, #220
 3317 0372 4FF47842 		mov	r2, #63488
 3318 0376 89B2     		uxth	r1, r1
 3319 0378 04F1BF00 		add	r0, r4, #191
 3320 037c FFF7FEFF 		bl	ILI9341_DrawPixel
 3321              	.LVL290:
 604:Core/Src/freertos.c ****   {
 3322              		.loc 1 604 31 is_stmt 1 discriminator 3 view .LVU673
 604:Core/Src/freertos.c ****   {
 3323              		.loc 1 604 32 is_stmt 0 discriminator 3 view .LVU674
 3324 0380 0134     		adds	r4, r4, #1
 3325              	.LVL291:
 604:Core/Src/freertos.c ****   {
 3326              		.loc 1 604 32 discriminator 3 view .LVU675
 3327 0382 E4B2     		uxtb	r4, r4
 3328              	.LVL292:
 3329              	.L140:
 604:Core/Src/freertos.c ****   {
 3330              		.loc 1 604 22 is_stmt 1 discriminator 1 view .LVU676
 604:Core/Src/freertos.c ****   {
 3331              		.loc 1 604 3 is_stmt 0 discriminator 1 view .LVU677
 3332 0384 772C     		cmp	r4, #119
 3333 0386 EFD9     		bls	.L141
 3334              	.LBE12:
 610:Core/Src/freertos.c ****   ILI9341_DrawLine(313, 98, 315, 100, ILI9341_WHITE);
 3335              		.loc 1 610 3 is_stmt 1 view .LVU678
 3336 0388 4FF6FF75 		movw	r5, #65535
 3337 038c 0095     		str	r5, [sp]
 3338 038e 6423     		movs	r3, #100
 3339 0390 40F23B12 		movw	r2, #315
 3340 0394 1946     		mov	r1, r3
 3341 0396 BE20     		movs	r0, #190
 3342 0398 FFF7FEFF 		bl	ILI9341_DrawLine
 3343              	.LVL293:
 611:Core/Src/freertos.c ****   ILI9341_DrawLine(313, 102, 315, 100, ILI9341_WHITE);
 3344              		.loc 1 611 3 view .LVU679
 3345 039c 0095     		str	r5, [sp]
 3346 039e 6423     		movs	r3, #100
 3347 03a0 40F23B12 		movw	r2, #315
ARM GAS  C:\Users\Vento\AppData\Local\Temp\ccxXLphG.s 			page 82


 3348 03a4 6221     		movs	r1, #98
 3349 03a6 40F23910 		movw	r0, #313
 3350 03aa FFF7FEFF 		bl	ILI9341_DrawLine
 3351              	.LVL294:
 612:Core/Src/freertos.c ****   ILI9341_WriteString(310, 107, "t", Font_7x10, ILI9341_WHITE, ILI9341_BLACK);
 3352              		.loc 1 612 3 view .LVU680
 3353 03ae 0095     		str	r5, [sp]
 3354 03b0 6423     		movs	r3, #100
 3355 03b2 40F23B12 		movw	r2, #315
 3356 03b6 6621     		movs	r1, #102
 3357 03b8 40F23910 		movw	r0, #313
 3358 03bc FFF7FEFF 		bl	ILI9341_DrawLine
 3359              	.LVL295:
 613:Core/Src/freertos.c ****   ILI9341_DrawLine(250, 100, 250, 103, ILI9341_WHITE);
 3360              		.loc 1 613 3 view .LVU681
 3361 03c0 444E     		ldr	r6, .L148+12
 3362 03c2 0024     		movs	r4, #0
 3363              	.LVL296:
 613:Core/Src/freertos.c ****   ILI9341_DrawLine(250, 100, 250, 103, ILI9341_WHITE);
 3364              		.loc 1 613 3 is_stmt 0 view .LVU682
 3365 03c4 0294     		str	r4, [sp, #8]
 3366 03c6 0195     		str	r5, [sp, #4]
 3367 03c8 7368     		ldr	r3, [r6, #4]
 3368 03ca 0093     		str	r3, [sp]
 3369 03cc 3368     		ldr	r3, [r6]
 3370 03ce 424A     		ldr	r2, .L148+16
 3371 03d0 6B21     		movs	r1, #107
 3372 03d2 4FF49B70 		mov	r0, #310
 3373 03d6 FFF7FEFF 		bl	ILI9341_WriteString
 3374              	.LVL297:
 614:Core/Src/freertos.c ****   ILI9341_WriteString(243, 107, "60", Font_7x10, ILI9341_WHITE, ILI9341_BLACK);
 3375              		.loc 1 614 3 is_stmt 1 view .LVU683
 3376 03da 0095     		str	r5, [sp]
 3377 03dc 6723     		movs	r3, #103
 3378 03de FA22     		movs	r2, #250
 3379 03e0 6421     		movs	r1, #100
 3380 03e2 1046     		mov	r0, r2
 3381 03e4 FFF7FEFF 		bl	ILI9341_DrawLine
 3382              	.LVL298:
 615:Core/Src/freertos.c ****   
 3383              		.loc 1 615 3 view .LVU684
 3384 03e8 0294     		str	r4, [sp, #8]
 3385 03ea 0195     		str	r5, [sp, #4]
 3386 03ec 7368     		ldr	r3, [r6, #4]
 3387 03ee 0093     		str	r3, [sp]
 3388 03f0 3368     		ldr	r3, [r6]
 3389 03f2 3A4A     		ldr	r2, .L148+20
 3390 03f4 6B21     		movs	r1, #107
 3391 03f6 F320     		movs	r0, #243
 3392 03f8 FFF7FEFF 		bl	ILI9341_WriteString
 3393              	.LVL299:
 617:Core/Src/freertos.c ****   ILI9341_DrawLine(190, 20, 192, 22, ILI9341_WHITE);
 3394              		.loc 1 617 3 view .LVU685
 3395 03fc 0095     		str	r5, [sp]
 3396 03fe 6423     		movs	r3, #100
 3397 0400 BE22     		movs	r2, #190
 3398 0402 1421     		movs	r1, #20
ARM GAS  C:\Users\Vento\AppData\Local\Temp\ccxXLphG.s 			page 83


 3399 0404 1046     		mov	r0, r2
 3400 0406 FFF7FEFF 		bl	ILI9341_DrawLine
 3401              	.LVL300:
 618:Core/Src/freertos.c ****   ILI9341_DrawLine(190, 20, 188, 22, ILI9341_WHITE);
 3402              		.loc 1 618 3 view .LVU686
 3403 040a 0095     		str	r5, [sp]
 3404 040c 1623     		movs	r3, #22
 3405 040e C022     		movs	r2, #192
 3406 0410 1421     		movs	r1, #20
 3407 0412 BE20     		movs	r0, #190
 3408 0414 FFF7FEFF 		bl	ILI9341_DrawLine
 3409              	.LVL301:
 619:Core/Src/freertos.c ****   ILI9341_WriteString(178, 15, "P", Font_7x10, ILI9341_WHITE, ILI9341_BLACK);
 3410              		.loc 1 619 3 view .LVU687
 3411 0418 0095     		str	r5, [sp]
 3412 041a 1623     		movs	r3, #22
 3413 041c BC22     		movs	r2, #188
 3414 041e 1421     		movs	r1, #20
 3415 0420 BE20     		movs	r0, #190
 3416 0422 FFF7FEFF 		bl	ILI9341_DrawLine
 3417              	.LVL302:
 620:Core/Src/freertos.c ****   ILI9341_DrawLine(187, 60, 190, 60, ILI9341_WHITE);
 3418              		.loc 1 620 3 view .LVU688
 3419 0426 0294     		str	r4, [sp, #8]
 3420 0428 0195     		str	r5, [sp, #4]
 3421 042a 7368     		ldr	r3, [r6, #4]
 3422 042c 0093     		str	r3, [sp]
 3423 042e 3368     		ldr	r3, [r6]
 3424 0430 2B4A     		ldr	r2, .L148+24
 3425 0432 0F21     		movs	r1, #15
 3426 0434 B220     		movs	r0, #178
 3427 0436 FFF7FEFF 		bl	ILI9341_WriteString
 3428              	.LVL303:
 621:Core/Src/freertos.c ****   ILI9341_WriteString(171, 56, "20", Font_7x10, ILI9341_WHITE, ILI9341_BLACK);
 3429              		.loc 1 621 3 view .LVU689
 3430 043a 0095     		str	r5, [sp]
 3431 043c 3C23     		movs	r3, #60
 3432 043e BE22     		movs	r2, #190
 3433 0440 1946     		mov	r1, r3
 3434 0442 BB20     		movs	r0, #187
 3435 0444 FFF7FEFF 		bl	ILI9341_DrawLine
 3436              	.LVL304:
 622:Core/Src/freertos.c **** 
 3437              		.loc 1 622 3 view .LVU690
 3438 0448 0294     		str	r4, [sp, #8]
 3439 044a 0195     		str	r5, [sp, #4]
 3440 044c 7368     		ldr	r3, [r6, #4]
 3441 044e 0093     		str	r3, [sp]
 3442 0450 3368     		ldr	r3, [r6]
 3443 0452 1D4A     		ldr	r2, .L148
 3444 0454 3821     		movs	r1, #56
 3445 0456 AB20     		movs	r0, #171
 3446 0458 FFF7FEFF 		bl	ILI9341_WriteString
 3447              	.LVL305:
 624:Core/Src/freertos.c **** 
 3448              		.loc 1 624 3 view .LVU691
 3449 045c 0294     		str	r4, [sp, #8]
ARM GAS  C:\Users\Vento\AppData\Local\Temp\ccxXLphG.s 			page 84


 3450 045e 0195     		str	r5, [sp, #4]
 3451 0460 7368     		ldr	r3, [r6, #4]
 3452 0462 0093     		str	r3, [sp]
 3453 0464 3368     		ldr	r3, [r6]
 3454 0466 194A     		ldr	r2, .L148+4
 3455 0468 6B21     		movs	r1, #107
 3456 046a B220     		movs	r0, #178
 3457 046c FFF7FEFF 		bl	ILI9341_WriteString
 3458              	.LVL306:
 626:Core/Src/freertos.c ****   {
 3459              		.loc 1 626 3 view .LVU692
 3460              	.LBB13:
 626:Core/Src/freertos.c ****   {
 3461              		.loc 1 626 7 view .LVU693
 626:Core/Src/freertos.c ****   {
 3462              		.loc 1 626 3 is_stmt 0 view .LVU694
 3463 0470 0CE0     		b	.L142
 3464              	.LVL307:
 3465              	.L143:
 628:Core/Src/freertos.c ****   }
 3466              		.loc 1 628 5 is_stmt 1 discriminator 3 view .LVU695
 628:Core/Src/freertos.c ****   }
 3467              		.loc 1 628 51 is_stmt 0 discriminator 3 view .LVU696
 3468 0472 1C4B     		ldr	r3, .L148+28
 3469 0474 2344     		add	r3, r3, r4
 3470 0476 197D     		ldrb	r1, [r3, #20]	@ zero_extendqisi2
 628:Core/Src/freertos.c ****   }
 3471              		.loc 1 628 5 discriminator 3 view .LVU697
 3472 0478 C1F16401 		rsb	r1, r1, #100
 3473 047c 1F22     		movs	r2, #31
 3474 047e 89B2     		uxth	r1, r1
 3475 0480 04F1BF00 		add	r0, r4, #191
 3476 0484 FFF7FEFF 		bl	ILI9341_DrawPixel
 3477              	.LVL308:
 626:Core/Src/freertos.c ****   {
 3478              		.loc 1 626 31 is_stmt 1 discriminator 3 view .LVU698
 626:Core/Src/freertos.c ****   {
 3479              		.loc 1 626 32 is_stmt 0 discriminator 3 view .LVU699
 3480 0488 0134     		adds	r4, r4, #1
 3481              	.LVL309:
 626:Core/Src/freertos.c ****   {
 3482              		.loc 1 626 32 discriminator 3 view .LVU700
 3483 048a E4B2     		uxtb	r4, r4
 3484              	.LVL310:
 3485              	.L142:
 626:Core/Src/freertos.c ****   {
 3486              		.loc 1 626 22 is_stmt 1 discriminator 1 view .LVU701
 626:Core/Src/freertos.c ****   {
 3487              		.loc 1 626 3 is_stmt 0 discriminator 1 view .LVU702
 3488 048c 772C     		cmp	r4, #119
 3489 048e F0D9     		bls	.L143
 3490              	.LBE13:
 632:Core/Src/freertos.c ****   ILI9341_WriteString(Info_Control.pos_x-10, Info_Control.pos_y-7, "<<", Font_11x18, ILI9341_BLACK,
 3491              		.loc 1 632 3 is_stmt 1 view .LVU703
 3492 0490 154C     		ldr	r4, .L148+32
 3493              	.LVL311:
 632:Core/Src/freertos.c ****   ILI9341_WriteString(Info_Control.pos_x-10, Info_Control.pos_y-7, "<<", Font_11x18, ILI9341_BLACK,
ARM GAS  C:\Users\Vento\AppData\Local\Temp\ccxXLphG.s 			page 85


 3494              		.loc 1 632 3 is_stmt 0 view .LVU704
 3495 0492 6389     		ldrh	r3, [r4, #10]
 3496 0494 A288     		ldrh	r2, [r4, #4]
 3497 0496 6188     		ldrh	r1, [r4, #2]
 3498 0498 2088     		ldrh	r0, [r4]
 3499 049a FFF7FEFF 		bl	ILI9341_FillCircle
 3500              	.LVL312:
 633:Core/Src/freertos.c **** 
 3501              		.loc 1 633 3 is_stmt 1 view .LVU705
 633:Core/Src/freertos.c **** 
 3502              		.loc 1 633 35 is_stmt 0 view .LVU706
 3503 049e 2088     		ldrh	r0, [r4]
 633:Core/Src/freertos.c **** 
 3504              		.loc 1 633 58 view .LVU707
 3505 04a0 6188     		ldrh	r1, [r4, #2]
 633:Core/Src/freertos.c **** 
 3506              		.loc 1 633 3 view .LVU708
 3507 04a2 124B     		ldr	r3, .L148+36
 3508 04a4 0739     		subs	r1, r1, #7
 3509 04a6 0A38     		subs	r0, r0, #10
 3510 04a8 6289     		ldrh	r2, [r4, #10]
 3511 04aa 0292     		str	r2, [sp, #8]
 3512 04ac 0022     		movs	r2, #0
 3513 04ae 0192     		str	r2, [sp, #4]
 3514 04b0 5A68     		ldr	r2, [r3, #4]
 3515 04b2 0092     		str	r2, [sp]
 3516 04b4 1B68     		ldr	r3, [r3]
 3517 04b6 0E4A     		ldr	r2, .L148+40
 3518 04b8 89B2     		uxth	r1, r1
 3519 04ba 80B2     		uxth	r0, r0
 3520 04bc FFF7FEFF 		bl	ILI9341_WriteString
 3521              	.LVL313:
 635:Core/Src/freertos.c **** 
 3522              		.loc 1 635 1 view .LVU709
 3523 04c0 0BB0     		add	sp, sp, #44
 3524              	.LCFI32:
 3525              		.cfi_def_cfa_offset 36
 3526              		@ sp needed
 3527 04c2 BDE8F08F 		pop	{r4, r5, r6, r7, r8, r9, r10, fp, pc}
 3528              	.L149:
 3529 04c6 00BF     		.align	2
 3530              	.L148:
 3531 04c8 34000000 		.word	.LC16
 3532 04cc 38000000 		.word	.LC17
 3533 04d0 00000000 		.word	.LANCHOR22
 3534 04d4 00000000 		.word	Font_7x10
 3535 04d8 28000000 		.word	.LC13
 3536 04dc 2C000000 		.word	.LC14
 3537 04e0 30000000 		.word	.LC15
 3538 04e4 00000000 		.word	.LANCHOR21
 3539 04e8 00000000 		.word	.LANCHOR20
 3540 04ec 00000000 		.word	Font_11x18
 3541 04f0 3C000000 		.word	.LC18
 3542              		.cfi_endproc
 3543              	.LFE78:
 3545              		.section	.text.Display_Task,"ax",%progbits
 3546              		.align	1
ARM GAS  C:\Users\Vento\AppData\Local\Temp\ccxXLphG.s 			page 86


 3547              		.global	Display_Task
 3548              		.syntax unified
 3549              		.thumb
 3550              		.thumb_func
 3551              		.fpu softvfp
 3553              	Display_Task:
 3554              	.LVL314:
 3555              	.LFB70:
 218:Core/Src/freertos.c ****   /* USER CODE BEGIN Display_Task */
 3556              		.loc 1 218 1 is_stmt 1 view -0
 3557              		.cfi_startproc
 3558              		@ Volatile: function does not return.
 3559              		@ args = 0, pretend = 0, frame = 0
 3560              		@ frame_needed = 0, uses_anonymous_args = 0
 218:Core/Src/freertos.c ****   /* USER CODE BEGIN Display_Task */
 3561              		.loc 1 218 1 is_stmt 0 view .LVU711
 3562 0000 08B5     		push	{r3, lr}
 3563              	.LCFI33:
 3564              		.cfi_def_cfa_offset 8
 3565              		.cfi_offset 3, -8
 3566              		.cfi_offset 14, -4
 220:Core/Src/freertos.c ****   osTimerStart(TimeoutHandle, LCD_TimeOut);
 3567              		.loc 1 220 3 is_stmt 1 view .LVU712
 3568 0002 4FF47A71 		mov	r1, #1000
 3569 0006 174B     		ldr	r3, .L156
 3570 0008 1868     		ldr	r0, [r3]
 3571              	.LVL315:
 220:Core/Src/freertos.c ****   osTimerStart(TimeoutHandle, LCD_TimeOut);
 3572              		.loc 1 220 3 is_stmt 0 view .LVU713
 3573 000a FFF7FEFF 		bl	osTimerStart
 3574              	.LVL316:
 221:Core/Src/freertos.c ****   ILI9341_Unselect();
 3575              		.loc 1 221 3 is_stmt 1 view .LVU714
 3576 000e 1649     		ldr	r1, .L156+4
 3577 0010 164B     		ldr	r3, .L156+8
 3578 0012 1868     		ldr	r0, [r3]
 3579 0014 FFF7FEFF 		bl	osTimerStart
 3580              	.LVL317:
 222:Core/Src/freertos.c ****   ILI9341_TouchUnselect();
 3581              		.loc 1 222 3 view .LVU715
 3582 0018 FFF7FEFF 		bl	ILI9341_Unselect
 3583              	.LVL318:
 223:Core/Src/freertos.c ****   ILI9341_Init();
 3584              		.loc 1 223 3 view .LVU716
 3585 001c FFF7FEFF 		bl	ILI9341_TouchUnselect
 3586              	.LVL319:
 224:Core/Src/freertos.c **** 
 3587              		.loc 1 224 3 view .LVU717
 3588 0020 FFF7FEFF 		bl	ILI9341_Init
 3589              	.LVL320:
 3590 0024 0BE0     		b	.L154
 3591              	.L151:
 237:Core/Src/freertos.c ****         break;
 3592              		.loc 1 237 9 view .LVU718
 3593 0026 FFF7FEFF 		bl	SettingPageDisplay
 3594              	.LVL321:
 238:Core/Src/freertos.c **** 
ARM GAS  C:\Users\Vento\AppData\Local\Temp\ccxXLphG.s 			page 87


 3595              		.loc 1 238 9 view .LVU719
 3596              	.L153:
 247:Core/Src/freertos.c ****     vTaskSuspend(myDisplayHandle);
 3597              		.loc 1 247 5 view .LVU720
 3598 002a 4FF47A71 		mov	r1, #1000
 3599 002e 0D4B     		ldr	r3, .L156
 3600 0030 1868     		ldr	r0, [r3]
 3601 0032 FFF7FEFF 		bl	osTimerStart
 3602              	.LVL322:
 248:Core/Src/freertos.c ****   }
 3603              		.loc 1 248 5 view .LVU721
 3604 0036 0E4B     		ldr	r3, .L156+12
 3605 0038 1868     		ldr	r0, [r3]
 3606 003a FFF7FEFF 		bl	vTaskSuspend
 3607              	.LVL323:
 227:Core/Src/freertos.c ****   {
 3608              		.loc 1 227 8 view .LVU722
 3609              	.L154:
 227:Core/Src/freertos.c ****   {
 3610              		.loc 1 227 3 view .LVU723
 229:Core/Src/freertos.c ****     switch (currentPage)
 3611              		.loc 1 229 5 view .LVU724
 3612 003e 094B     		ldr	r3, .L156
 3613 0040 1868     		ldr	r0, [r3]
 3614 0042 FFF7FEFF 		bl	osTimerStop
 3615              	.LVL324:
 230:Core/Src/freertos.c ****     {
 3616              		.loc 1 230 5 view .LVU725
 3617 0046 0B4B     		ldr	r3, .L156+16
 3618 0048 1B78     		ldrb	r3, [r3]	@ zero_extendqisi2
 3619 004a 012B     		cmp	r3, #1
 3620 004c EBD0     		beq	.L151
 3621 004e 022B     		cmp	r3, #2
 3622 0050 04D0     		beq	.L152
 3623 0052 002B     		cmp	r3, #0
 3624 0054 E9D1     		bne	.L153
 233:Core/Src/freertos.c ****         break;
 3625              		.loc 1 233 9 view .LVU726
 3626 0056 FFF7FEFF 		bl	ControlPageDisplay
 3627              	.LVL325:
 234:Core/Src/freertos.c **** 
 3628              		.loc 1 234 9 view .LVU727
 3629 005a E6E7     		b	.L153
 3630              	.L152:
 241:Core/Src/freertos.c ****         break;
 3631              		.loc 1 241 9 view .LVU728
 3632 005c FFF7FEFF 		bl	InfoPageDisplay
 3633              	.LVL326:
 242:Core/Src/freertos.c **** 
 3634              		.loc 1 242 9 view .LVU729
 3635 0060 E3E7     		b	.L153
 3636              	.L157:
 3637 0062 00BF     		.align	2
 3638              	.L156:
 3639 0064 00000000 		.word	.LANCHOR6
 3640 0068 20BF0200 		.word	180000
 3641 006c 00000000 		.word	.LANCHOR8
ARM GAS  C:\Users\Vento\AppData\Local\Temp\ccxXLphG.s 			page 88


 3642 0070 00000000 		.word	.LANCHOR10
 3643 0074 00000000 		.word	.LANCHOR19
 3644              		.cfi_endproc
 3645              	.LFE70:
 3647              		.global	BinarySem_attributes
 3648              		.section	.rodata.str1.4,"aMS",%progbits,1
 3649              		.align	2
 3650              	.LC19:
 3651 0000 42696E61 		.ascii	"BinarySem\000"
 3651      72795365 
 3651      6D00
 3652              		.global	BinarySemHandle
 3653              		.global	Mutex01_attributes
 3654 000a 0000     		.align	2
 3655              	.LC20:
 3656 000c 4D757465 		.ascii	"Mutex01\000"
 3656      78303100 
 3657              		.global	Mutex01Handle
 3658              		.global	Timeout_attributes
 3659              		.align	2
 3660              	.LC21:
 3661 0014 54696D65 		.ascii	"Timeout\000"
 3661      6F757400 
 3662              		.global	TimeoutHandle
 3663              		.global	myTimer_attributes
 3664              		.align	2
 3665              	.LC22:
 3666 001c 6D795469 		.ascii	"myTimer\000"
 3666      6D657200 
 3667              		.global	myTimerHandle
 3668              		.global	Button_attributes
 3669              		.align	2
 3670              	.LC23:
 3671 0024 42757474 		.ascii	"Button\000"
 3671      6F6E00
 3672              		.global	ButtonHandle
 3673              		.global	myPLC_attributes
 3674 002b 00       		.align	2
 3675              	.LC24:
 3676 002c 6D79504C 		.ascii	"myPLC\000"
 3676      4300
 3677              		.global	myPLCHandle
 3678              		.global	myDisplay_attributes
 3679 0032 0000     		.align	2
 3680              	.LC25:
 3681 0034 6D794469 		.ascii	"myDisplay\000"
 3681      73706C61 
 3681      7900
 3682              		.global	myDisplayHandle
 3683              		.global	Channel02
 3684              		.global	Channel01
 3685              		.global	currentPage
 3686              		.global	DeviceState
 3687              		.global	Control_Setting
 3688              		.global	Info_Control
 3689              		.global	Control_Info
 3690              		.global	Channel_2
ARM GAS  C:\Users\Vento\AppData\Local\Temp\ccxXLphG.s 			page 89


 3691              		.global	Channel_1
 3692              		.section	.bss.BinarySemHandle,"aw",%nobits
 3693              		.align	2
 3694              		.set	.LANCHOR4,. + 0
 3697              	BinarySemHandle:
 3698 0000 00000000 		.space	4
 3699              		.section	.bss.ButtonHandle,"aw",%nobits
 3700              		.align	2
 3701              		.set	.LANCHOR14,. + 0
 3704              	ButtonHandle:
 3705 0000 00000000 		.space	4
 3706              		.section	.bss.Channel01,"aw",%nobits
 3707              		.align	3
 3708              		.set	.LANCHOR21,. + 0
 3711              	Channel01:
 3712 0000 00000000 		.space	144
 3712      00000000 
 3712      00000000 
 3712      00000000 
 3712      00000000 
 3713              		.section	.bss.Channel02,"aw",%nobits
 3714              		.align	3
 3715              		.set	.LANCHOR22,. + 0
 3718              	Channel02:
 3719 0000 00000000 		.space	144
 3719      00000000 
 3719      00000000 
 3719      00000000 
 3719      00000000 
 3720              		.section	.bss.Mutex01Handle,"aw",%nobits
 3721              		.align	2
 3722              		.set	.LANCHOR2,. + 0
 3725              	Mutex01Handle:
 3726 0000 00000000 		.space	4
 3727              		.section	.bss.TimeoutHandle,"aw",%nobits
 3728              		.align	2
 3729              		.set	.LANCHOR8,. + 0
 3732              	TimeoutHandle:
 3733 0000 00000000 		.space	4
 3734              		.section	.bss.currentPage,"aw",%nobits
 3735              		.set	.LANCHOR19,. + 0
 3738              	currentPage:
 3739 0000 00       		.space	1
 3740              		.section	.bss.myDisplayHandle,"aw",%nobits
 3741              		.align	2
 3742              		.set	.LANCHOR10,. + 0
 3745              	myDisplayHandle:
 3746 0000 00000000 		.space	4
 3747              		.section	.bss.myPLCHandle,"aw",%nobits
 3748              		.align	2
 3749              		.set	.LANCHOR12,. + 0
 3752              	myPLCHandle:
 3753 0000 00000000 		.space	4
 3754              		.section	.bss.myTimerHandle,"aw",%nobits
 3755              		.align	2
 3756              		.set	.LANCHOR6,. + 0
 3759              	myTimerHandle:
ARM GAS  C:\Users\Vento\AppData\Local\Temp\ccxXLphG.s 			page 90


 3760 0000 00000000 		.space	4
 3761              		.section	.data.Channel_1,"aw"
 3762              		.align	2
 3763              		.set	.LANCHOR15,. + 0
 3766              	Channel_1:
 3767 0000 5000     		.short	80
 3768 0002 7800     		.short	120
 3769 0004 3200     		.short	50
 3770 0006 0000     		.short	0
 3771 0008 0000     		.short	0
 3772 000a 00F8     		.short	-2048
 3773 000c 00       		.byte	0
 3774 000d 000000   		.space	3
 3775 0010 00000000 		.word	0
 3776              		.section	.data.Channel_2,"aw"
 3777              		.align	2
 3778              		.set	.LANCHOR16,. + 0
 3781              	Channel_2:
 3782 0000 F000     		.short	240
 3783 0002 7800     		.short	120
 3784 0004 3200     		.short	50
 3785 0006 0000     		.short	0
 3786 0008 0000     		.short	0
 3787 000a 00F8     		.short	-2048
 3788 000c 00       		.byte	0
 3789 000d 000000   		.space	3
 3790 0010 00000000 		.word	0
 3791              		.section	.data.Control_Info,"aw"
 3792              		.align	2
 3793              		.set	.LANCHOR18,. + 0
 3796              	Control_Info:
 3797 0000 2B01     		.short	299
 3798 0002 DB00     		.short	219
 3799 0004 1400     		.short	20
 3800 0006 0000     		.short	0
 3801 0008 0000     		.short	0
 3802 000a 7C7D     		.short	32124
 3803 000c 00       		.byte	0
 3804 000d 000000   		.space	3
 3805 0010 00000000 		.word	0
 3806              		.section	.data.Control_Setting,"aw"
 3807              		.align	2
 3808              		.set	.LANCHOR17,. + 0
 3811              	Control_Setting:
 3812 0000 A000     		.short	160
 3813 0002 CD00     		.short	205
 3814 0004 0000     		.short	0
 3815 0006 6400     		.short	100
 3816 0008 1E00     		.short	30
 3817 000a E0FF     		.short	-32
 3818 000c 00       		.byte	0
 3819 000d 000000   		.space	3
 3820 0010 00000000 		.word	0
 3821              		.section	.data.DeviceState,"aw"
 3822              		.set	.LANCHOR0,. + 0
 3825              	DeviceState:
 3826 0000 01       		.byte	1
ARM GAS  C:\Users\Vento\AppData\Local\Temp\ccxXLphG.s 			page 91


 3827              		.section	.data.Info_Control,"aw"
 3828              		.align	2
 3829              		.set	.LANCHOR20,. + 0
 3832              	Info_Control:
 3833 0000 1400     		.short	20
 3834 0002 DB00     		.short	219
 3835 0004 1400     		.short	20
 3836 0006 0000     		.short	0
 3837 0008 0000     		.short	0
 3838 000a 7C7D     		.short	32124
 3839 000c 00       		.byte	0
 3840 000d 000000   		.space	3
 3841 0010 00000000 		.word	0
 3842              		.section	.rodata.BinarySem_attributes,"a"
 3843              		.align	2
 3844              		.set	.LANCHOR3,. + 0
 3847              	BinarySem_attributes:
 3848 0000 00000000 		.word	.LC19
 3849 0004 00000000 		.space	12
 3849      00000000 
 3849      00000000 
 3850              		.section	.rodata.Button_attributes,"a"
 3851              		.align	2
 3852              		.set	.LANCHOR13,. + 0
 3855              	Button_attributes:
 3856 0000 24000000 		.word	.LC23
 3857 0004 00000000 		.space	16
 3857      00000000 
 3857      00000000 
 3857      00000000 
 3858 0014 58020000 		.word	600
 3859 0018 20000000 		.word	32
 3860 001c 00000000 		.space	8
 3860      00000000 
 3861              		.section	.rodata.Mutex01_attributes,"a"
 3862              		.align	2
 3863              		.set	.LANCHOR1,. + 0
 3866              	Mutex01_attributes:
 3867 0000 0C000000 		.word	.LC20
 3868 0004 00000000 		.space	12
 3868      00000000 
 3868      00000000 
 3869              		.section	.rodata.Timeout_attributes,"a"
 3870              		.align	2
 3871              		.set	.LANCHOR7,. + 0
 3874              	Timeout_attributes:
 3875 0000 14000000 		.word	.LC21
 3876 0004 00000000 		.space	12
 3876      00000000 
 3876      00000000 
 3877              		.section	.rodata.myDisplay_attributes,"a"
 3878              		.align	2
 3879              		.set	.LANCHOR9,. + 0
 3882              	myDisplay_attributes:
 3883 0000 34000000 		.word	.LC25
 3884 0004 00000000 		.space	16
 3884      00000000 
ARM GAS  C:\Users\Vento\AppData\Local\Temp\ccxXLphG.s 			page 92


 3884      00000000 
 3884      00000000 
 3885 0014 20030000 		.word	800
 3886 0018 18000000 		.word	24
 3887 001c 00000000 		.space	8
 3887      00000000 
 3888              		.section	.rodata.myPLC_attributes,"a"
 3889              		.align	2
 3890              		.set	.LANCHOR11,. + 0
 3893              	myPLC_attributes:
 3894 0000 2C000000 		.word	.LC24
 3895 0004 00000000 		.space	16
 3895      00000000 
 3895      00000000 
 3895      00000000 
 3896 0014 20030000 		.word	800
 3897 0018 18000000 		.word	24
 3898 001c 00000000 		.space	8
 3898      00000000 
 3899              		.section	.rodata.myTimer_attributes,"a"
 3900              		.align	2
 3901              		.set	.LANCHOR5,. + 0
 3904              	myTimer_attributes:
 3905 0000 1C000000 		.word	.LC22
 3906 0004 00000000 		.space	12
 3906      00000000 
 3906      00000000 
 3907              		.text
 3908              	.Letext0:
 3909              		.file 2 "d:\\tools\\gcc-arm-none-eabi-10.3-2021.07\\arm-none-eabi\\include\\machine\\_default_type
 3910              		.file 3 "d:\\tools\\gcc-arm-none-eabi-10.3-2021.07\\arm-none-eabi\\include\\sys\\_stdint.h"
 3911              		.file 4 "Middlewares/Third_Party/FreeRTOS/Source/portable/GCC/ARM_CM3/portmacro.h"
 3912              		.file 5 "Drivers/CMSIS/Device/ST/STM32F1xx/Include/stm32f103xb.h"
 3913              		.file 6 "Drivers/STM32F1xx_HAL_Driver/Inc/stm32f1xx_hal_def.h"
 3914              		.file 7 "Drivers/STM32F1xx_HAL_Driver/Inc/stm32f1xx_hal_dma.h"
 3915              		.file 8 "Drivers/STM32F1xx_HAL_Driver/Inc/stm32f1xx_hal_spi.h"
 3916              		.file 9 "Middlewares/Third_Party/FreeRTOS/Source/CMSIS_RTOS_V2/cmsis_os2.h"
 3917              		.file 10 "Core/Inc/font.h"
 3918              		.file 11 "Core/Inc/touch.h"
 3919              		.file 12 "Middlewares/Third_Party/FreeRTOS/Source/include/task.h"
 3920              		.file 13 "Core/Inc/lcd.h"
 3921              		.file 14 "Drivers/STM32F1xx_HAL_Driver/Inc/stm32f1xx_hal_gpio.h"
 3922              		.file 15 "d:\\tools\\gcc-arm-none-eabi-10.3-2021.07\\arm-none-eabi\\include\\math.h"
 3923              		.file 16 "Drivers/STM32F1xx_HAL_Driver/Inc/stm32f1xx_hal.h"
ARM GAS  C:\Users\Vento\AppData\Local\Temp\ccxXLphG.s 			page 93


DEFINED SYMBOLS
                            *ABS*:00000000 freertos.c
C:\Users\Vento\AppData\Local\Temp\ccxXLphG.s:16     .text.PLC_Task:00000000 $t
C:\Users\Vento\AppData\Local\Temp\ccxXLphG.s:24     .text.PLC_Task:00000000 PLC_Task
C:\Users\Vento\AppData\Local\Temp\ccxXLphG.s:52     .text.LCD_Timeout:00000000 $t
C:\Users\Vento\AppData\Local\Temp\ccxXLphG.s:59     .text.LCD_Timeout:00000000 LCD_Timeout
C:\Users\Vento\AppData\Local\Temp\ccxXLphG.s:90     .text.LCD_Timeout:00000018 $d
C:\Users\Vento\AppData\Local\Temp\ccxXLphG.s:96     .text.MX_FREERTOS_Init:00000000 $t
C:\Users\Vento\AppData\Local\Temp\ccxXLphG.s:103    .text.MX_FREERTOS_Init:00000000 MX_FREERTOS_Init
C:\Users\Vento\AppData\Local\Temp\ccxXLphG.s:189    .text.MX_FREERTOS_Init:00000068 $d
C:\Users\Vento\AppData\Local\Temp\ccxXLphG.s:2272   .text.LED_Indicator:00000000 LED_Indicator
C:\Users\Vento\AppData\Local\Temp\ccxXLphG.s:3553   .text.Display_Task:00000000 Display_Task
C:\Users\Vento\AppData\Local\Temp\ccxXLphG.s:1734   .text.IRQ_Task:00000000 IRQ_Task
C:\Users\Vento\AppData\Local\Temp\ccxXLphG.s:212    .text.HAL_GPIO_EXTI_Callback:00000000 $t
C:\Users\Vento\AppData\Local\Temp\ccxXLphG.s:219    .text.HAL_GPIO_EXTI_Callback:00000000 HAL_GPIO_EXTI_Callback
C:\Users\Vento\AppData\Local\Temp\ccxXLphG.s:250    .text.HAL_GPIO_EXTI_Callback:00000014 $d
C:\Users\Vento\AppData\Local\Temp\ccxXLphG.s:255    .rodata.ControlPageDisplay.str1.4:00000000 $d
C:\Users\Vento\AppData\Local\Temp\ccxXLphG.s:274    .text.ControlPageDisplay:00000000 $t
C:\Users\Vento\AppData\Local\Temp\ccxXLphG.s:281    .text.ControlPageDisplay:00000000 ControlPageDisplay
C:\Users\Vento\AppData\Local\Temp\ccxXLphG.s:550    .text.ControlPageDisplay:0000019c $d
C:\Users\Vento\AppData\Local\Temp\ccxXLphG.s:565    .text.ControlPageHandler:00000000 $t
C:\Users\Vento\AppData\Local\Temp\ccxXLphG.s:572    .text.ControlPageHandler:00000000 ControlPageHandler
C:\Users\Vento\AppData\Local\Temp\ccxXLphG.s:890    .text.ControlPageHandler:000001b0 $d
C:\Users\Vento\AppData\Local\Temp\ccxXLphG.s:903    .text.InfoPageHandler:00000000 $t
C:\Users\Vento\AppData\Local\Temp\ccxXLphG.s:910    .text.InfoPageHandler:00000000 InfoPageHandler
C:\Users\Vento\AppData\Local\Temp\ccxXLphG.s:988    .text.InfoPageHandler:00000058 $d
C:\Users\Vento\AppData\Local\Temp\ccxXLphG.s:996    .text.reverse:00000000 $t
C:\Users\Vento\AppData\Local\Temp\ccxXLphG.s:1003   .text.reverse:00000000 reverse
C:\Users\Vento\AppData\Local\Temp\ccxXLphG.s:1052   .text.intToStr:00000000 $t
C:\Users\Vento\AppData\Local\Temp\ccxXLphG.s:1059   .text.intToStr:00000000 intToStr
C:\Users\Vento\AppData\Local\Temp\ccxXLphG.s:1151   .text.intToStr:00000048 $d
C:\Users\Vento\AppData\Local\Temp\ccxXLphG.s:1156   .rodata.SettingPageDisplay.str1.4:00000000 $d
C:\Users\Vento\AppData\Local\Temp\ccxXLphG.s:1168   .text.SettingPageDisplay:00000000 $t
C:\Users\Vento\AppData\Local\Temp\ccxXLphG.s:1175   .text.SettingPageDisplay:00000000 SettingPageDisplay
C:\Users\Vento\AppData\Local\Temp\ccxXLphG.s:1416   .text.SettingPageDisplay:00000188 $d
C:\Users\Vento\AppData\Local\Temp\ccxXLphG.s:1432   .text.SettingPageHandler:00000000 $t
C:\Users\Vento\AppData\Local\Temp\ccxXLphG.s:1439   .text.SettingPageHandler:00000000 SettingPageHandler
C:\Users\Vento\AppData\Local\Temp\ccxXLphG.s:1712   .text.SettingPageHandler:00000180 $d
C:\Users\Vento\AppData\Local\Temp\ccxXLphG.s:1727   .text.IRQ_Task:00000000 $t
C:\Users\Vento\AppData\Local\Temp\ccxXLphG.s:1921   .text.IRQ_Task:000000e8 $d
C:\Users\Vento\AppData\Local\Temp\ccxXLphG.s:1941   .text.ftoa:00000000 $t
C:\Users\Vento\AppData\Local\Temp\ccxXLphG.s:1948   .text.ftoa:00000000 ftoa
C:\Users\Vento\AppData\Local\Temp\ccxXLphG.s:2057   .text.ftoa:00000070 $d
C:\Users\Vento\AppData\Local\Temp\ccxXLphG.s:2062   .text.intToStr0:00000000 $t
C:\Users\Vento\AppData\Local\Temp\ccxXLphG.s:2069   .text.intToStr0:00000000 intToStr0
C:\Users\Vento\AppData\Local\Temp\ccxXLphG.s:2161   .text.intToStr0:00000048 $d
C:\Users\Vento\AppData\Local\Temp\ccxXLphG.s:2166   .text.intToTime:00000000 $t
C:\Users\Vento\AppData\Local\Temp\ccxXLphG.s:2173   .text.intToTime:00000000 intToTime
C:\Users\Vento\AppData\Local\Temp\ccxXLphG.s:2258   .text.intToTime:0000005c $d
C:\Users\Vento\AppData\Local\Temp\ccxXLphG.s:2265   .text.LED_Indicator:00000000 $t
C:\Users\Vento\AppData\Local\Temp\ccxXLphG.s:2786   .text.LED_Indicator:000002b0 $d
C:\Users\Vento\AppData\Local\Temp\ccxXLphG.s:2804   .rodata.InfoPageDisplay.str1.4:00000000 $d
C:\Users\Vento\AppData\Local\Temp\ccxXLphG.s:2838   .text.InfoPageDisplay:00000000 $t
C:\Users\Vento\AppData\Local\Temp\ccxXLphG.s:2845   .text.InfoPageDisplay:00000000 InfoPageDisplay
C:\Users\Vento\AppData\Local\Temp\ccxXLphG.s:3256   .text.InfoPageDisplay:000002f0 $d
C:\Users\Vento\AppData\Local\Temp\ccxXLphG.s:3274   .text.InfoPageDisplay:00000330 $t
C:\Users\Vento\AppData\Local\Temp\ccxXLphG.s:3531   .text.InfoPageDisplay:000004c8 $d
ARM GAS  C:\Users\Vento\AppData\Local\Temp\ccxXLphG.s 			page 94


C:\Users\Vento\AppData\Local\Temp\ccxXLphG.s:3546   .text.Display_Task:00000000 $t
C:\Users\Vento\AppData\Local\Temp\ccxXLphG.s:3639   .text.Display_Task:00000064 $d
C:\Users\Vento\AppData\Local\Temp\ccxXLphG.s:3847   .rodata.BinarySem_attributes:00000000 BinarySem_attributes
C:\Users\Vento\AppData\Local\Temp\ccxXLphG.s:3649   .rodata.str1.4:00000000 $d
C:\Users\Vento\AppData\Local\Temp\ccxXLphG.s:3697   .bss.BinarySemHandle:00000000 BinarySemHandle
C:\Users\Vento\AppData\Local\Temp\ccxXLphG.s:3866   .rodata.Mutex01_attributes:00000000 Mutex01_attributes
C:\Users\Vento\AppData\Local\Temp\ccxXLphG.s:3725   .bss.Mutex01Handle:00000000 Mutex01Handle
C:\Users\Vento\AppData\Local\Temp\ccxXLphG.s:3874   .rodata.Timeout_attributes:00000000 Timeout_attributes
C:\Users\Vento\AppData\Local\Temp\ccxXLphG.s:3732   .bss.TimeoutHandle:00000000 TimeoutHandle
C:\Users\Vento\AppData\Local\Temp\ccxXLphG.s:3904   .rodata.myTimer_attributes:00000000 myTimer_attributes
C:\Users\Vento\AppData\Local\Temp\ccxXLphG.s:3759   .bss.myTimerHandle:00000000 myTimerHandle
C:\Users\Vento\AppData\Local\Temp\ccxXLphG.s:3855   .rodata.Button_attributes:00000000 Button_attributes
C:\Users\Vento\AppData\Local\Temp\ccxXLphG.s:3704   .bss.ButtonHandle:00000000 ButtonHandle
C:\Users\Vento\AppData\Local\Temp\ccxXLphG.s:3893   .rodata.myPLC_attributes:00000000 myPLC_attributes
C:\Users\Vento\AppData\Local\Temp\ccxXLphG.s:3752   .bss.myPLCHandle:00000000 myPLCHandle
C:\Users\Vento\AppData\Local\Temp\ccxXLphG.s:3882   .rodata.myDisplay_attributes:00000000 myDisplay_attributes
C:\Users\Vento\AppData\Local\Temp\ccxXLphG.s:3745   .bss.myDisplayHandle:00000000 myDisplayHandle
C:\Users\Vento\AppData\Local\Temp\ccxXLphG.s:3718   .bss.Channel02:00000000 Channel02
C:\Users\Vento\AppData\Local\Temp\ccxXLphG.s:3711   .bss.Channel01:00000000 Channel01
C:\Users\Vento\AppData\Local\Temp\ccxXLphG.s:3738   .bss.currentPage:00000000 currentPage
C:\Users\Vento\AppData\Local\Temp\ccxXLphG.s:3825   .data.DeviceState:00000000 DeviceState
C:\Users\Vento\AppData\Local\Temp\ccxXLphG.s:3811   .data.Control_Setting:00000000 Control_Setting
C:\Users\Vento\AppData\Local\Temp\ccxXLphG.s:3832   .data.Info_Control:00000000 Info_Control
C:\Users\Vento\AppData\Local\Temp\ccxXLphG.s:3796   .data.Control_Info:00000000 Control_Info
C:\Users\Vento\AppData\Local\Temp\ccxXLphG.s:3781   .data.Channel_2:00000000 Channel_2
C:\Users\Vento\AppData\Local\Temp\ccxXLphG.s:3766   .data.Channel_1:00000000 Channel_1
C:\Users\Vento\AppData\Local\Temp\ccxXLphG.s:3693   .bss.BinarySemHandle:00000000 $d
C:\Users\Vento\AppData\Local\Temp\ccxXLphG.s:3700   .bss.ButtonHandle:00000000 $d
C:\Users\Vento\AppData\Local\Temp\ccxXLphG.s:3707   .bss.Channel01:00000000 $d
C:\Users\Vento\AppData\Local\Temp\ccxXLphG.s:3714   .bss.Channel02:00000000 $d
C:\Users\Vento\AppData\Local\Temp\ccxXLphG.s:3721   .bss.Mutex01Handle:00000000 $d
C:\Users\Vento\AppData\Local\Temp\ccxXLphG.s:3728   .bss.TimeoutHandle:00000000 $d
C:\Users\Vento\AppData\Local\Temp\ccxXLphG.s:3739   .bss.currentPage:00000000 $d
C:\Users\Vento\AppData\Local\Temp\ccxXLphG.s:3741   .bss.myDisplayHandle:00000000 $d
C:\Users\Vento\AppData\Local\Temp\ccxXLphG.s:3748   .bss.myPLCHandle:00000000 $d
C:\Users\Vento\AppData\Local\Temp\ccxXLphG.s:3755   .bss.myTimerHandle:00000000 $d
C:\Users\Vento\AppData\Local\Temp\ccxXLphG.s:3762   .data.Channel_1:00000000 $d
C:\Users\Vento\AppData\Local\Temp\ccxXLphG.s:3777   .data.Channel_2:00000000 $d
C:\Users\Vento\AppData\Local\Temp\ccxXLphG.s:3792   .data.Control_Info:00000000 $d
C:\Users\Vento\AppData\Local\Temp\ccxXLphG.s:3807   .data.Control_Setting:00000000 $d
C:\Users\Vento\AppData\Local\Temp\ccxXLphG.s:3828   .data.Info_Control:00000000 $d
C:\Users\Vento\AppData\Local\Temp\ccxXLphG.s:3843   .rodata.BinarySem_attributes:00000000 $d
C:\Users\Vento\AppData\Local\Temp\ccxXLphG.s:3851   .rodata.Button_attributes:00000000 $d
C:\Users\Vento\AppData\Local\Temp\ccxXLphG.s:3862   .rodata.Mutex01_attributes:00000000 $d
C:\Users\Vento\AppData\Local\Temp\ccxXLphG.s:3870   .rodata.Timeout_attributes:00000000 $d
C:\Users\Vento\AppData\Local\Temp\ccxXLphG.s:3878   .rodata.myDisplay_attributes:00000000 $d
C:\Users\Vento\AppData\Local\Temp\ccxXLphG.s:3889   .rodata.myPLC_attributes:00000000 $d
C:\Users\Vento\AppData\Local\Temp\ccxXLphG.s:3900   .rodata.myTimer_attributes:00000000 $d

UNDEFINED SYMBOLS
osDelay
HAL_GPIO_WritePin
osMutexNew
osSemaphoreNew
osTimerNew
osThreadNew
osSemaphoreRelease
ARM GAS  C:\Users\Vento\AppData\Local\Temp\ccxXLphG.s 			page 95


ILI9341_FillScreen
ILI9341_WriteString
ILI9341_FillCircle
ILI9341_FillRectangle
Font_11x18
vTaskResume
osMutexAcquire
osMutexRelease
__aeabi_ui2d
__aeabi_ddiv
__aeabi_dmul
__aeabi_dsub
__aeabi_d2uiz
ILI9341_DrawRectangle
osTimerStart
osSemaphoreAcquire
HAL_GetTick
HAL_GPIO_ReadPin
HAL_SPI_DeInit
HAL_SPI_Init
ILI9341_TouchGetCoordinates
osTimerDelete
hspi2
__aeabi_f2iz
__aeabi_i2f
__aeabi_fsub
__aeabi_i2d
__aeabi_f2d
__aeabi_d2f
pow
__aeabi_dadd
HAL_GPIO_TogglePin
sin
ILI9341_DrawPixel
ILI9341_DrawLine
cos
Font_7x10
ILI9341_Unselect
ILI9341_TouchUnselect
ILI9341_Init
vTaskSuspend
osTimerStop
