ARM GAS  C:\Users\Vento\AppData\Local\Temp\cc4kJFdO.s 			page 1


   1              		.cpu cortex-m3
   2              		.eabi_attribute 20, 1
   3              		.eabi_attribute 21, 1
   4              		.eabi_attribute 23, 3
   5              		.eabi_attribute 24, 1
   6              		.eabi_attribute 25, 1
   7              		.eabi_attribute 26, 1
   8              		.eabi_attribute 30, 1
   9              		.eabi_attribute 34, 1
  10              		.eabi_attribute 18, 4
  11              		.file	"freertos.c"
  12              		.text
  13              	.Ltext0:
  14              		.cfi_sections	.debug_frame
  15              		.section	.text.PLC_Task,"ax",%progbits
  16              		.align	1
  17              		.global	PLC_Task
  18              		.arch armv7-m
  19              		.syntax unified
  20              		.thumb
  21              		.thumb_func
  22              		.fpu softvfp
  24              	PLC_Task:
  25              	.LFB71:
  26              		.file 1 "Core/Src/freertos.c"
   1:Core/Src/freertos.c **** /* USER CODE BEGIN Header */
   2:Core/Src/freertos.c **** /**
   3:Core/Src/freertos.c ****   ******************************************************************************
   4:Core/Src/freertos.c ****   * File Name          : freertos.c
   5:Core/Src/freertos.c ****   * Description        : Code for freertos applications
   6:Core/Src/freertos.c ****   ******************************************************************************
   7:Core/Src/freertos.c ****   * @attention
   8:Core/Src/freertos.c ****   *
   9:Core/Src/freertos.c ****   * Copyright (c) 2022 STMicroelectronics.
  10:Core/Src/freertos.c ****   * All rights reserved.
  11:Core/Src/freertos.c ****   *
  12:Core/Src/freertos.c ****   * This software is licensed under terms that can be found in the LICENSE file
  13:Core/Src/freertos.c ****   * in the root directory of this software component.
  14:Core/Src/freertos.c ****   * If no LICENSE file comes with this software, it is provided AS-IS.
  15:Core/Src/freertos.c ****   *
  16:Core/Src/freertos.c ****   ******************************************************************************
  17:Core/Src/freertos.c ****   */
  18:Core/Src/freertos.c **** /* USER CODE END Header */
  19:Core/Src/freertos.c **** 
  20:Core/Src/freertos.c **** /* Includes ------------------------------------------------------------------*/
  21:Core/Src/freertos.c **** #include "FreeRTOS.h"
  22:Core/Src/freertos.c **** #include "task.h"
  23:Core/Src/freertos.c **** #include "main.h"
  24:Core/Src/freertos.c **** #include "cmsis_os.h"
  25:Core/Src/freertos.c **** 
  26:Core/Src/freertos.c **** /* Private includes ----------------------------------------------------------*/
  27:Core/Src/freertos.c **** /* USER CODE BEGIN Includes */
  28:Core/Src/freertos.c **** #include "lcd.h"
  29:Core/Src/freertos.c **** #include "math.h"
  30:Core/Src/freertos.c **** 
  31:Core/Src/freertos.c **** /* USER CODE END Includes */
  32:Core/Src/freertos.c **** 
ARM GAS  C:\Users\Vento\AppData\Local\Temp\cc4kJFdO.s 			page 2


  33:Core/Src/freertos.c **** /* Private typedef -----------------------------------------------------------*/
  34:Core/Src/freertos.c **** /* USER CODE BEGIN PTD */
  35:Core/Src/freertos.c **** typedef enum
  36:Core/Src/freertos.c **** {
  37:Core/Src/freertos.c ****   SLEEPING = 0,
  38:Core/Src/freertos.c ****   RUNNING = 1,
  39:Core/Src/freertos.c **** } Mode;
  40:Core/Src/freertos.c **** 
  41:Core/Src/freertos.c **** typedef struct
  42:Core/Src/freertos.c **** {
  43:Core/Src/freertos.c ****   uint8_t PWM_percent;
  44:Core/Src/freertos.c ****   double current;
  45:Core/Src/freertos.c ****   uint32_t time;
  46:Core/Src/freertos.c ****   uint8_t history[120];
  47:Core/Src/freertos.c **** } Channel;
  48:Core/Src/freertos.c **** /* USER CODE END PTD */
  49:Core/Src/freertos.c **** 
  50:Core/Src/freertos.c **** /* Private define ------------------------------------------------------------*/
  51:Core/Src/freertos.c **** /* USER CODE BEGIN PD */
  52:Core/Src/freertos.c **** #define ABS(x) ((x) > 0 ? (x) : -(x))
  53:Core/Src/freertos.c **** 
  54:Core/Src/freertos.c **** #define ControlPage   0
  55:Core/Src/freertos.c **** #define SettingPage   1
  56:Core/Src/freertos.c **** #define InfoPage      2
  57:Core/Src/freertos.c **** 
  58:Core/Src/freertos.c **** #define LCD_TimeOut   180000
  59:Core/Src/freertos.c **** /* USER CODE END PD */
  60:Core/Src/freertos.c **** 
  61:Core/Src/freertos.c **** /* Private macro -------------------------------------------------------------*/
  62:Core/Src/freertos.c **** /* USER CODE BEGIN PM */
  63:Core/Src/freertos.c **** 
  64:Core/Src/freertos.c **** /* USER CODE END PM */
  65:Core/Src/freertos.c **** 
  66:Core/Src/freertos.c **** /* Private variables ---------------------------------------------------------*/
  67:Core/Src/freertos.c **** /* USER CODE BEGIN Variables */
  68:Core/Src/freertos.c **** extern SPI_HandleTypeDef hspi2;
  69:Core/Src/freertos.c **** 
  70:Core/Src/freertos.c **** myButton_t Channel_1 = {80, 120, 50, 0, 0, ILI9341_RED, false, NULL};
  71:Core/Src/freertos.c **** myButton_t Channel_2 = {240, 120, 50, 0, 0, ILI9341_RED, false, NULL};
  72:Core/Src/freertos.c **** myButton_t Control_Info = {299, 219, 20, 0, 0, ILI9341_LIGHTBLUE, NULL, NULL};
  73:Core/Src/freertos.c **** myButton_t Info_Control = {20, 219, 20, 0, 0, ILI9341_LIGHTBLUE, NULL, NULL};
  74:Core/Src/freertos.c **** myButton_t Control_Setting = {160, 205, 0, 100, 30, ILI9341_YELLOW, NULL, NULL};
  75:Core/Src/freertos.c **** Mode DeviceState = RUNNING;
  76:Core/Src/freertos.c **** uint8_t currentPage = 0;
  77:Core/Src/freertos.c **** Channel Channel01 = {26, 138.2, 0};
  78:Core/Src/freertos.c **** Channel Channel02 = {61, 54.9, 0};
  79:Core/Src/freertos.c **** 
  80:Core/Src/freertos.c **** 
  81:Core/Src/freertos.c **** /* USER CODE END Variables */
  82:Core/Src/freertos.c **** /* Definitions for myDisplay */
  83:Core/Src/freertos.c **** osThreadId_t myDisplayHandle;
  84:Core/Src/freertos.c **** const osThreadAttr_t myDisplay_attributes = {
  85:Core/Src/freertos.c ****   .name = "myDisplay",
  86:Core/Src/freertos.c ****   .stack_size = 200 * 4,
  87:Core/Src/freertos.c ****   .priority = (osPriority_t) osPriorityNormal,
  88:Core/Src/freertos.c **** };
  89:Core/Src/freertos.c **** /* Definitions for myPLC */
ARM GAS  C:\Users\Vento\AppData\Local\Temp\cc4kJFdO.s 			page 3


  90:Core/Src/freertos.c **** osThreadId_t myPLCHandle;
  91:Core/Src/freertos.c **** const osThreadAttr_t myPLC_attributes = {
  92:Core/Src/freertos.c ****   .name = "myPLC",
  93:Core/Src/freertos.c ****   .stack_size = 200 * 4,
  94:Core/Src/freertos.c ****   .priority = (osPriority_t) osPriorityNormal,
  95:Core/Src/freertos.c **** };
  96:Core/Src/freertos.c **** /* Definitions for Button */
  97:Core/Src/freertos.c **** osThreadId_t ButtonHandle;
  98:Core/Src/freertos.c **** const osThreadAttr_t Button_attributes = {
  99:Core/Src/freertos.c ****   .name = "Button",
 100:Core/Src/freertos.c ****   .stack_size = 150 * 4,
 101:Core/Src/freertos.c ****   .priority = (osPriority_t) osPriorityAboveNormal,
 102:Core/Src/freertos.c **** };
 103:Core/Src/freertos.c **** /* Definitions for myTimer */
 104:Core/Src/freertos.c **** osTimerId_t myTimerHandle;
 105:Core/Src/freertos.c **** const osTimerAttr_t myTimer_attributes = {
 106:Core/Src/freertos.c ****   .name = "myTimer"
 107:Core/Src/freertos.c **** };
 108:Core/Src/freertos.c **** /* Definitions for Timeout */
 109:Core/Src/freertos.c **** osTimerId_t TimeoutHandle;
 110:Core/Src/freertos.c **** const osTimerAttr_t Timeout_attributes = {
 111:Core/Src/freertos.c ****   .name = "Timeout"
 112:Core/Src/freertos.c **** };
 113:Core/Src/freertos.c **** /* Definitions for BinarySem */
 114:Core/Src/freertos.c **** osSemaphoreId_t BinarySemHandle;
 115:Core/Src/freertos.c **** const osSemaphoreAttr_t BinarySem_attributes = {
 116:Core/Src/freertos.c ****   .name = "BinarySem"
 117:Core/Src/freertos.c **** };
 118:Core/Src/freertos.c **** 
 119:Core/Src/freertos.c **** /* Private function prototypes -----------------------------------------------*/
 120:Core/Src/freertos.c **** /* USER CODE BEGIN FunctionPrototypes */
 121:Core/Src/freertos.c **** void ControlPageDisplay(void);
 122:Core/Src/freertos.c **** void SettingPageDisplay(void);
 123:Core/Src/freertos.c **** void InfoPageDisplay(void);
 124:Core/Src/freertos.c **** 
 125:Core/Src/freertos.c **** void ControlPageHandler(uint16_t x, uint16_t y);
 126:Core/Src/freertos.c **** void SettingPageHandler(uint16_t x, uint16_t y);
 127:Core/Src/freertos.c **** void InfoPageHandler(uint16_t x, uint16_t y);
 128:Core/Src/freertos.c **** 
 129:Core/Src/freertos.c **** void reverse(char* str, int len);
 130:Core/Src/freertos.c **** int intToStr(uint8_t x, char str[], int d);
 131:Core/Src/freertos.c **** void ftoa(float n, char* res, int afterpoint);
 132:Core/Src/freertos.c **** 
 133:Core/Src/freertos.c **** void intToTime(uint32_t time, char* str);
 134:Core/Src/freertos.c **** int intToStr0(uint8_t x, char str[], int d);
 135:Core/Src/freertos.c **** /* USER CODE END FunctionPrototypes */
 136:Core/Src/freertos.c **** 
 137:Core/Src/freertos.c **** void Display_Task(void *argument);
 138:Core/Src/freertos.c **** void PLC_Task(void *argument);
 139:Core/Src/freertos.c **** void IRQ_Task(void *argument);
 140:Core/Src/freertos.c **** void LED_Indicator(void *argument);
 141:Core/Src/freertos.c **** void LCD_Timeout(void *argument);
 142:Core/Src/freertos.c **** 
 143:Core/Src/freertos.c **** void MX_FREERTOS_Init(void); /* (MISRA C 2004 rule 8.1) */
 144:Core/Src/freertos.c **** 
 145:Core/Src/freertos.c **** /**
 146:Core/Src/freertos.c ****   * @brief  FreeRTOS initialization
ARM GAS  C:\Users\Vento\AppData\Local\Temp\cc4kJFdO.s 			page 4


 147:Core/Src/freertos.c ****   * @param  None
 148:Core/Src/freertos.c ****   * @retval None
 149:Core/Src/freertos.c ****   */
 150:Core/Src/freertos.c **** void MX_FREERTOS_Init(void) {
 151:Core/Src/freertos.c ****   /* USER CODE BEGIN Init */
 152:Core/Src/freertos.c **** 
 153:Core/Src/freertos.c ****   /* USER CODE END Init */
 154:Core/Src/freertos.c **** 
 155:Core/Src/freertos.c ****   /* USER CODE BEGIN RTOS_MUTEX */
 156:Core/Src/freertos.c ****   /* add mutexes, ... */
 157:Core/Src/freertos.c ****   /* USER CODE END RTOS_MUTEX */
 158:Core/Src/freertos.c **** 
 159:Core/Src/freertos.c ****   /* Create the semaphores(s) */
 160:Core/Src/freertos.c ****   /* creation of BinarySem */
 161:Core/Src/freertos.c ****   BinarySemHandle = osSemaphoreNew(1, 0, &BinarySem_attributes);
 162:Core/Src/freertos.c **** 
 163:Core/Src/freertos.c ****   /* USER CODE BEGIN RTOS_SEMAPHORES */
 164:Core/Src/freertos.c ****   /* add semaphores, ... */
 165:Core/Src/freertos.c ****   /* USER CODE END RTOS_SEMAPHORES */
 166:Core/Src/freertos.c **** 
 167:Core/Src/freertos.c ****   /* Create the timer(s) */
 168:Core/Src/freertos.c ****   /* creation of myTimer */
 169:Core/Src/freertos.c ****   myTimerHandle = osTimerNew(LED_Indicator, osTimerPeriodic, NULL, &myTimer_attributes);
 170:Core/Src/freertos.c **** 
 171:Core/Src/freertos.c ****   /* creation of Timeout */
 172:Core/Src/freertos.c ****   TimeoutHandle = osTimerNew(LCD_Timeout, osTimerOnce, NULL, &Timeout_attributes);
 173:Core/Src/freertos.c **** 
 174:Core/Src/freertos.c ****   /* USER CODE BEGIN RTOS_TIMERS */
 175:Core/Src/freertos.c ****   /* start timers, add new ones, ... */
 176:Core/Src/freertos.c ****   /* USER CODE END RTOS_TIMERS */
 177:Core/Src/freertos.c **** 
 178:Core/Src/freertos.c ****   /* USER CODE BEGIN RTOS_QUEUES */
 179:Core/Src/freertos.c ****   /* add queues, ... */
 180:Core/Src/freertos.c ****   /* USER CODE END RTOS_QUEUES */
 181:Core/Src/freertos.c **** 
 182:Core/Src/freertos.c ****   /* Create the thread(s) */
 183:Core/Src/freertos.c ****   /* creation of myDisplay */
 184:Core/Src/freertos.c ****   myDisplayHandle = osThreadNew(Display_Task, NULL, &myDisplay_attributes);
 185:Core/Src/freertos.c **** 
 186:Core/Src/freertos.c ****   /* creation of myPLC */
 187:Core/Src/freertos.c ****   myPLCHandle = osThreadNew(PLC_Task, NULL, &myPLC_attributes);
 188:Core/Src/freertos.c **** 
 189:Core/Src/freertos.c ****   /* creation of Button */
 190:Core/Src/freertos.c ****   ButtonHandle = osThreadNew(IRQ_Task, NULL, &Button_attributes);
 191:Core/Src/freertos.c **** 
 192:Core/Src/freertos.c ****   /* USER CODE BEGIN RTOS_THREADS */
 193:Core/Src/freertos.c ****   /* add threads, ... */
 194:Core/Src/freertos.c ****   /* USER CODE END RTOS_THREADS */
 195:Core/Src/freertos.c **** 
 196:Core/Src/freertos.c ****   /* USER CODE BEGIN RTOS_EVENTS */
 197:Core/Src/freertos.c ****   /* add events, ... */
 198:Core/Src/freertos.c ****   /* USER CODE END RTOS_EVENTS */
 199:Core/Src/freertos.c **** 
 200:Core/Src/freertos.c **** }
 201:Core/Src/freertos.c **** 
 202:Core/Src/freertos.c **** /* USER CODE BEGIN Header_Display_Task */
 203:Core/Src/freertos.c **** /**
ARM GAS  C:\Users\Vento\AppData\Local\Temp\cc4kJFdO.s 			page 5


 204:Core/Src/freertos.c ****   * @brief  Function implementing the myDisplay thread.
 205:Core/Src/freertos.c ****   * @param  argument: Not used
 206:Core/Src/freertos.c ****   * @retval None
 207:Core/Src/freertos.c ****   */
 208:Core/Src/freertos.c **** /* USER CODE END Header_Display_Task */
 209:Core/Src/freertos.c **** void Display_Task(void *argument)
 210:Core/Src/freertos.c **** {
 211:Core/Src/freertos.c ****   /* USER CODE BEGIN Display_Task */
 212:Core/Src/freertos.c ****   osTimerStart(myTimerHandle, 1000);
 213:Core/Src/freertos.c ****   osTimerStart(TimeoutHandle, LCD_TimeOut);
 214:Core/Src/freertos.c ****   ILI9341_Unselect();
 215:Core/Src/freertos.c ****   ILI9341_TouchUnselect();
 216:Core/Src/freertos.c ****   ILI9341_Init();
 217:Core/Src/freertos.c **** 
 218:Core/Src/freertos.c ****   /* Infinite loop */
 219:Core/Src/freertos.c ****   for(;;)
 220:Core/Src/freertos.c ****   {
 221:Core/Src/freertos.c ****     osTimerStop(myTimerHandle);
 222:Core/Src/freertos.c ****     switch (currentPage)
 223:Core/Src/freertos.c ****     {
 224:Core/Src/freertos.c ****       case ControlPage:
 225:Core/Src/freertos.c ****         ControlPageDisplay();
 226:Core/Src/freertos.c ****         break;
 227:Core/Src/freertos.c **** 
 228:Core/Src/freertos.c ****       case SettingPage:
 229:Core/Src/freertos.c ****         SettingPageDisplay();
 230:Core/Src/freertos.c ****         break;
 231:Core/Src/freertos.c **** 
 232:Core/Src/freertos.c ****       case InfoPage:
 233:Core/Src/freertos.c ****         InfoPageDisplay();
 234:Core/Src/freertos.c ****         break;
 235:Core/Src/freertos.c **** 
 236:Core/Src/freertos.c ****       default:
 237:Core/Src/freertos.c ****         break;
 238:Core/Src/freertos.c ****     }
 239:Core/Src/freertos.c ****     osTimerStart(myTimerHandle, 1000);
 240:Core/Src/freertos.c ****     vTaskSuspend(myDisplayHandle);
 241:Core/Src/freertos.c ****   }
 242:Core/Src/freertos.c ****   /* USER CODE END Display_Task */
 243:Core/Src/freertos.c **** }
 244:Core/Src/freertos.c **** 
 245:Core/Src/freertos.c **** /* USER CODE BEGIN Header_PLC_Task */
 246:Core/Src/freertos.c **** /**
 247:Core/Src/freertos.c **** * @brief Function implementing the myPLC thread.
 248:Core/Src/freertos.c **** * @param argument: Not used
 249:Core/Src/freertos.c **** * @retval None
 250:Core/Src/freertos.c **** */
 251:Core/Src/freertos.c **** /* USER CODE END Header_PLC_Task */
 252:Core/Src/freertos.c **** void PLC_Task(void *argument)
 253:Core/Src/freertos.c **** {
  27              		.loc 1 253 1 view -0
  28              		.cfi_startproc
  29              		@ Volatile: function does not return.
  30              		@ args = 0, pretend = 0, frame = 0
  31              		@ frame_needed = 0, uses_anonymous_args = 0
  32              	.LVL0:
  33              		.loc 1 253 1 is_stmt 0 view .LVU1
ARM GAS  C:\Users\Vento\AppData\Local\Temp\cc4kJFdO.s 			page 6


  34 0000 08B5     		push	{r3, lr}
  35              	.LCFI0:
  36              		.cfi_def_cfa_offset 8
  37              		.cfi_offset 3, -8
  38              		.cfi_offset 14, -4
  39              	.LVL1:
  40              	.L2:
 254:Core/Src/freertos.c ****   /* USER CODE BEGIN PLC_Task */
 255:Core/Src/freertos.c ****   /* Infinite loop */
 256:Core/Src/freertos.c ****   for(;;)
  41              		.loc 1 256 3 is_stmt 1 discriminator 1 view .LVU2
 257:Core/Src/freertos.c ****   {
 258:Core/Src/freertos.c ****     osDelay(1);
  42              		.loc 1 258 5 discriminator 1 view .LVU3
  43 0002 0120     		movs	r0, #1
  44 0004 FFF7FEFF 		bl	osDelay
  45              	.LVL2:
 256:Core/Src/freertos.c ****   {
  46              		.loc 1 256 8 discriminator 1 view .LVU4
  47 0008 FBE7     		b	.L2
  48              		.cfi_endproc
  49              	.LFE71:
  51              		.section	.text.LCD_Timeout,"ax",%progbits
  52              		.align	1
  53              		.global	LCD_Timeout
  54              		.syntax unified
  55              		.thumb
  56              		.thumb_func
  57              		.fpu softvfp
  59              	LCD_Timeout:
  60              	.LVL3:
  61              	.LFB74:
 259:Core/Src/freertos.c ****   }
 260:Core/Src/freertos.c ****   /* USER CODE END PLC_Task */
 261:Core/Src/freertos.c **** }
 262:Core/Src/freertos.c **** 
 263:Core/Src/freertos.c **** /* USER CODE BEGIN Header_IRQ_Task */
 264:Core/Src/freertos.c **** /**
 265:Core/Src/freertos.c **** * @brief Function implementing the Button thread.
 266:Core/Src/freertos.c **** * @param argument: Not used
 267:Core/Src/freertos.c **** * @retval None
 268:Core/Src/freertos.c **** */
 269:Core/Src/freertos.c **** /* USER CODE END Header_IRQ_Task */
 270:Core/Src/freertos.c **** void IRQ_Task(void *argument)
 271:Core/Src/freertos.c **** {
 272:Core/Src/freertos.c ****   /* USER CODE BEGIN IRQ_Task */
 273:Core/Src/freertos.c ****   uint16_t x, y;
 274:Core/Src/freertos.c ****   uint32_t currentTick = 0, lastTick = 0;
 275:Core/Src/freertos.c ****   /* Infinite loop */
 276:Core/Src/freertos.c ****   for(;;)
 277:Core/Src/freertos.c ****   {
 278:Core/Src/freertos.c ****     osDelay(100);
 279:Core/Src/freertos.c ****     if (osSemaphoreAcquire(BinarySemHandle, portMAX_DELAY) == osOK)
 280:Core/Src/freertos.c ****     {
 281:Core/Src/freertos.c ****       osDelay(100);
 282:Core/Src/freertos.c ****       currentTick = HAL_GetTick();
 283:Core/Src/freertos.c ****       if (HAL_GPIO_ReadPin(TOUCH_IRQ_GPIO_Port, TOUCH_IRQ_Pin) == 0 && ((currentTick - lastTick) >=
ARM GAS  C:\Users\Vento\AppData\Local\Temp\cc4kJFdO.s 			page 7


 284:Core/Src/freertos.c ****       {
 285:Core/Src/freertos.c ****         lastTick = currentTick;
 286:Core/Src/freertos.c **** 
 287:Core/Src/freertos.c ****         HAL_SPI_DeInit(&hspi2);
 288:Core/Src/freertos.c ****         hspi2.Init.BaudRatePrescaler = SPI_BAUDRATEPRESCALER_128;
 289:Core/Src/freertos.c ****         HAL_SPI_Init(&hspi2);
 290:Core/Src/freertos.c ****         while(ILI9341_TouchGetCoordinates(&x, &y) != true);
 291:Core/Src/freertos.c ****         HAL_SPI_DeInit(&hspi2);
 292:Core/Src/freertos.c ****         hspi2.Init.BaudRatePrescaler = SPI_BAUDRATEPRESCALER_2;
 293:Core/Src/freertos.c ****         HAL_SPI_Init(&hspi2);
 294:Core/Src/freertos.c **** 
 295:Core/Src/freertos.c ****         osTimerDelete(TimeoutHandle);
 296:Core/Src/freertos.c ****         TimeoutHandle = osTimerNew(LCD_Timeout, osTimerOnce, NULL, &Timeout_attributes);
 297:Core/Src/freertos.c **** 
 298:Core/Src/freertos.c ****         if (DeviceState == SLEEPING)
 299:Core/Src/freertos.c ****         {
 300:Core/Src/freertos.c ****           DeviceState = RUNNING;
 301:Core/Src/freertos.c ****           HAL_GPIO_WritePin(LCD_LED_GPIO_Port, LCD_LED_Pin, 1);
 302:Core/Src/freertos.c ****         }
 303:Core/Src/freertos.c ****         else
 304:Core/Src/freertos.c ****         {
 305:Core/Src/freertos.c ****           switch (currentPage)
 306:Core/Src/freertos.c ****           {
 307:Core/Src/freertos.c ****             case ControlPage:
 308:Core/Src/freertos.c ****               ControlPageHandler(x, y);
 309:Core/Src/freertos.c ****               break;
 310:Core/Src/freertos.c **** 
 311:Core/Src/freertos.c ****             case SettingPage:
 312:Core/Src/freertos.c ****               SettingPageHandler(x, y);
 313:Core/Src/freertos.c ****               break;
 314:Core/Src/freertos.c **** 
 315:Core/Src/freertos.c ****             case InfoPage:
 316:Core/Src/freertos.c ****               InfoPageHandler(x, y);
 317:Core/Src/freertos.c ****               break;
 318:Core/Src/freertos.c **** 
 319:Core/Src/freertos.c ****             default:
 320:Core/Src/freertos.c ****               break;
 321:Core/Src/freertos.c ****           }
 322:Core/Src/freertos.c ****         }
 323:Core/Src/freertos.c **** 
 324:Core/Src/freertos.c ****         osTimerStart(TimeoutHandle, LCD_TimeOut);
 325:Core/Src/freertos.c ****         
 326:Core/Src/freertos.c ****       }
 327:Core/Src/freertos.c ****       
 328:Core/Src/freertos.c ****     }
 329:Core/Src/freertos.c ****     //osSemaphoreRelease(BinarySemHandle);
 330:Core/Src/freertos.c ****   }
 331:Core/Src/freertos.c ****   /* USER CODE END IRQ_Task */
 332:Core/Src/freertos.c **** }
 333:Core/Src/freertos.c **** 
 334:Core/Src/freertos.c **** /* LED_Indicator function */
 335:Core/Src/freertos.c **** void LED_Indicator(void *argument)
 336:Core/Src/freertos.c **** {
 337:Core/Src/freertos.c ****   /* USER CODE BEGIN LED_Indicator */
 338:Core/Src/freertos.c **** 
 339:Core/Src/freertos.c ****   HAL_GPIO_TogglePin(LED_GPIO_Port, LED_Pin);
 340:Core/Src/freertos.c **** 
ARM GAS  C:\Users\Vento\AppData\Local\Temp\cc4kJFdO.s 			page 8


 341:Core/Src/freertos.c ****   if (Channel_1.state == true)
 342:Core/Src/freertos.c ****   {
 343:Core/Src/freertos.c ****     Channel01.time++;
 344:Core/Src/freertos.c ****     if (currentPage == InfoPage)
 345:Core/Src/freertos.c ****     {
 346:Core/Src/freertos.c ****       char t_temp[9];
 347:Core/Src/freertos.c ****       intToTime(Channel01.time, t_temp);
 348:Core/Src/freertos.c ****       ILI9341_WriteString(90, 80, t_temp, Font_7x10, ILI9341_GREEN, ILI9341_BLACK);
 349:Core/Src/freertos.c ****       for(uint8_t i = 0; i < 120; i++)
 350:Core/Src/freertos.c ****       {
 351:Core/Src/freertos.c ****         ILI9341_DrawLine(191+i, 20, 191+i, 100, ILI9341_BLACK);
 352:Core/Src/freertos.c ****         if (i < 3)
 353:Core/Src/freertos.c ****         {
 354:Core/Src/freertos.c ****           ILI9341_DrawLine(190, 20, 192, 22, ILI9341_WHITE);
 355:Core/Src/freertos.c ****         }
 356:Core/Src/freertos.c ****         ILI9341_DrawPixel(191+i, 100, ILI9341_WHITE);
 357:Core/Src/freertos.c ****         ILI9341_DrawPixel(191+i, 100-Channel01.history[i], ILI9341_BLUE);
 358:Core/Src/freertos.c ****       }
 359:Core/Src/freertos.c ****     }
 360:Core/Src/freertos.c **** 
 361:Core/Src/freertos.c ****     if (Channel01.time > 120)
 362:Core/Src/freertos.c ****     {
 363:Core/Src/freertos.c ****       //make room for new data
 364:Core/Src/freertos.c ****       for(uint8_t i = 0; i < 119; i++)
 365:Core/Src/freertos.c ****       {
 366:Core/Src/freertos.c ****         Channel01.history[i] = Channel01.history[i+1];
 367:Core/Src/freertos.c ****       }
 368:Core/Src/freertos.c ****       //new data into 119 slot
 369:Core/Src/freertos.c ****       Channel01.history[119] = 2 * (uint8_t)( 10 * sin((2*3.148*Channel01.time)/60) + 20);
 370:Core/Src/freertos.c ****     }
 371:Core/Src/freertos.c ****     else
 372:Core/Src/freertos.c ****     {
 373:Core/Src/freertos.c ****       //new data into the next slot
 374:Core/Src/freertos.c ****       Channel01.history[Channel01.time-1] = 2 * (uint8_t)( 10 * sin((2*3.148*Channel01.time)/60) + 
 375:Core/Src/freertos.c ****     }
 376:Core/Src/freertos.c ****   }
 377:Core/Src/freertos.c **** 
 378:Core/Src/freertos.c ****   if (Channel_2.state == true)
 379:Core/Src/freertos.c ****   {
 380:Core/Src/freertos.c ****     Channel02.time++;
 381:Core/Src/freertos.c ****     if (currentPage == InfoPage)
 382:Core/Src/freertos.c ****     {
 383:Core/Src/freertos.c ****       char t_temp[9];
 384:Core/Src/freertos.c ****       intToTime(Channel02.time, t_temp);
 385:Core/Src/freertos.c ****       ILI9341_WriteString(90, 170, t_temp, Font_7x10, ILI9341_GREEN, ILI9341_BLACK);
 386:Core/Src/freertos.c ****       for(uint8_t i = 0; i < 120; i++)
 387:Core/Src/freertos.c ****       {
 388:Core/Src/freertos.c ****         ILI9341_DrawLine(191+i, 140, 191+i, 220, ILI9341_BLACK);
 389:Core/Src/freertos.c ****         if (i < 3)
 390:Core/Src/freertos.c ****         {
 391:Core/Src/freertos.c ****           ILI9341_DrawLine(190, 140, 192, 142, ILI9341_WHITE);
 392:Core/Src/freertos.c ****         }
 393:Core/Src/freertos.c ****         ILI9341_DrawPixel(191+i, 220, ILI9341_WHITE);
 394:Core/Src/freertos.c ****         ILI9341_DrawPixel(191+i, 220-Channel02.history[i], ILI9341_RED);
 395:Core/Src/freertos.c ****       }
 396:Core/Src/freertos.c ****     }
 397:Core/Src/freertos.c **** 
ARM GAS  C:\Users\Vento\AppData\Local\Temp\cc4kJFdO.s 			page 9


 398:Core/Src/freertos.c ****     if (Channel02.time > 120)
 399:Core/Src/freertos.c ****     {
 400:Core/Src/freertos.c ****       //make room for new data
 401:Core/Src/freertos.c ****       for(uint8_t i = 0; i < 119; i++)
 402:Core/Src/freertos.c ****       {
 403:Core/Src/freertos.c ****         Channel02.history[i] = Channel02.history[i+1];
 404:Core/Src/freertos.c ****       }
 405:Core/Src/freertos.c ****       //new data into 119 slot
 406:Core/Src/freertos.c ****       Channel02.history[119] = 2 * (uint8_t)( 10 * cos((2*3.148*Channel02.time)/60) + 20);
 407:Core/Src/freertos.c ****     }
 408:Core/Src/freertos.c ****     else
 409:Core/Src/freertos.c ****     {
 410:Core/Src/freertos.c ****       //new data into the next slot
 411:Core/Src/freertos.c ****       Channel02.history[Channel02.time-1] = 2 * (uint8_t)( 10 * cos((2*3.148*Channel02.time)/60) + 
 412:Core/Src/freertos.c ****     }
 413:Core/Src/freertos.c ****   }
 414:Core/Src/freertos.c ****   /* USER CODE END LED_Indicator */
 415:Core/Src/freertos.c **** }
 416:Core/Src/freertos.c **** 
 417:Core/Src/freertos.c **** /* LCD_Timeout function */
 418:Core/Src/freertos.c **** void LCD_Timeout(void *argument)
 419:Core/Src/freertos.c **** {
  62              		.loc 1 419 1 view -0
  63              		.cfi_startproc
  64              		@ args = 0, pretend = 0, frame = 0
  65              		@ frame_needed = 0, uses_anonymous_args = 0
  66              		.loc 1 419 1 is_stmt 0 view .LVU6
  67 0000 08B5     		push	{r3, lr}
  68              	.LCFI1:
  69              		.cfi_def_cfa_offset 8
  70              		.cfi_offset 3, -8
  71              		.cfi_offset 14, -4
 420:Core/Src/freertos.c ****   /* USER CODE BEGIN LCD_Timeout */
 421:Core/Src/freertos.c **** 
 422:Core/Src/freertos.c ****   HAL_GPIO_WritePin(LCD_LED_GPIO_Port, LCD_LED_Pin, 0);
  72              		.loc 1 422 3 is_stmt 1 view .LVU7
  73 0002 0022     		movs	r2, #0
  74 0004 4FF40041 		mov	r1, #32768
  75 0008 0348     		ldr	r0, .L6
  76              	.LVL4:
  77              		.loc 1 422 3 is_stmt 0 view .LVU8
  78 000a FFF7FEFF 		bl	HAL_GPIO_WritePin
  79              	.LVL5:
 423:Core/Src/freertos.c ****   DeviceState = SLEEPING;
  80              		.loc 1 423 3 is_stmt 1 view .LVU9
  81              		.loc 1 423 15 is_stmt 0 view .LVU10
  82 000e 034B     		ldr	r3, .L6+4
  83 0010 0022     		movs	r2, #0
  84 0012 1A70     		strb	r2, [r3]
 424:Core/Src/freertos.c **** 
 425:Core/Src/freertos.c ****   /* USER CODE END LCD_Timeout */
 426:Core/Src/freertos.c **** }
  85              		.loc 1 426 1 view .LVU11
  86 0014 08BD     		pop	{r3, pc}
  87              	.L7:
  88 0016 00BF     		.align	2
  89              	.L6:
ARM GAS  C:\Users\Vento\AppData\Local\Temp\cc4kJFdO.s 			page 10


  90 0018 00080140 		.word	1073809408
  91 001c 00000000 		.word	.LANCHOR0
  92              		.cfi_endproc
  93              	.LFE74:
  95              		.section	.text.MX_FREERTOS_Init,"ax",%progbits
  96              		.align	1
  97              		.global	MX_FREERTOS_Init
  98              		.syntax unified
  99              		.thumb
 100              		.thumb_func
 101              		.fpu softvfp
 103              	MX_FREERTOS_Init:
 104              	.LFB69:
 150:Core/Src/freertos.c ****   /* USER CODE BEGIN Init */
 105              		.loc 1 150 29 is_stmt 1 view -0
 106              		.cfi_startproc
 107              		@ args = 0, pretend = 0, frame = 0
 108              		@ frame_needed = 0, uses_anonymous_args = 0
 109 0000 08B5     		push	{r3, lr}
 110              	.LCFI2:
 111              		.cfi_def_cfa_offset 8
 112              		.cfi_offset 3, -8
 113              		.cfi_offset 14, -4
 161:Core/Src/freertos.c **** 
 114              		.loc 1 161 3 view .LVU13
 161:Core/Src/freertos.c **** 
 115              		.loc 1 161 21 is_stmt 0 view .LVU14
 116 0002 164A     		ldr	r2, .L10
 117 0004 0021     		movs	r1, #0
 118 0006 0120     		movs	r0, #1
 119 0008 FFF7FEFF 		bl	osSemaphoreNew
 120              	.LVL6:
 161:Core/Src/freertos.c **** 
 121              		.loc 1 161 19 view .LVU15
 122 000c 144B     		ldr	r3, .L10+4
 123 000e 1860     		str	r0, [r3]
 169:Core/Src/freertos.c **** 
 124              		.loc 1 169 3 is_stmt 1 view .LVU16
 169:Core/Src/freertos.c **** 
 125              		.loc 1 169 19 is_stmt 0 view .LVU17
 126 0010 144B     		ldr	r3, .L10+8
 127 0012 0022     		movs	r2, #0
 128 0014 0121     		movs	r1, #1
 129 0016 1448     		ldr	r0, .L10+12
 130 0018 FFF7FEFF 		bl	osTimerNew
 131              	.LVL7:
 169:Core/Src/freertos.c **** 
 132              		.loc 1 169 17 view .LVU18
 133 001c 134B     		ldr	r3, .L10+16
 134 001e 1860     		str	r0, [r3]
 172:Core/Src/freertos.c **** 
 135              		.loc 1 172 3 is_stmt 1 view .LVU19
 172:Core/Src/freertos.c **** 
 136              		.loc 1 172 19 is_stmt 0 view .LVU20
 137 0020 134B     		ldr	r3, .L10+20
 138 0022 0022     		movs	r2, #0
 139 0024 1146     		mov	r1, r2
ARM GAS  C:\Users\Vento\AppData\Local\Temp\cc4kJFdO.s 			page 11


 140 0026 1348     		ldr	r0, .L10+24
 141 0028 FFF7FEFF 		bl	osTimerNew
 142              	.LVL8:
 172:Core/Src/freertos.c **** 
 143              		.loc 1 172 17 view .LVU21
 144 002c 124B     		ldr	r3, .L10+28
 145 002e 1860     		str	r0, [r3]
 184:Core/Src/freertos.c **** 
 146              		.loc 1 184 3 is_stmt 1 view .LVU22
 184:Core/Src/freertos.c **** 
 147              		.loc 1 184 21 is_stmt 0 view .LVU23
 148 0030 124A     		ldr	r2, .L10+32
 149 0032 0021     		movs	r1, #0
 150 0034 1248     		ldr	r0, .L10+36
 151 0036 FFF7FEFF 		bl	osThreadNew
 152              	.LVL9:
 184:Core/Src/freertos.c **** 
 153              		.loc 1 184 19 view .LVU24
 154 003a 124B     		ldr	r3, .L10+40
 155 003c 1860     		str	r0, [r3]
 187:Core/Src/freertos.c **** 
 156              		.loc 1 187 3 is_stmt 1 view .LVU25
 187:Core/Src/freertos.c **** 
 157              		.loc 1 187 17 is_stmt 0 view .LVU26
 158 003e 124A     		ldr	r2, .L10+44
 159 0040 0021     		movs	r1, #0
 160 0042 1248     		ldr	r0, .L10+48
 161 0044 FFF7FEFF 		bl	osThreadNew
 162              	.LVL10:
 187:Core/Src/freertos.c **** 
 163              		.loc 1 187 15 view .LVU27
 164 0048 114B     		ldr	r3, .L10+52
 165 004a 1860     		str	r0, [r3]
 190:Core/Src/freertos.c **** 
 166              		.loc 1 190 3 is_stmt 1 view .LVU28
 190:Core/Src/freertos.c **** 
 167              		.loc 1 190 18 is_stmt 0 view .LVU29
 168 004c 114A     		ldr	r2, .L10+56
 169 004e 0021     		movs	r1, #0
 170 0050 1148     		ldr	r0, .L10+60
 171 0052 FFF7FEFF 		bl	osThreadNew
 172              	.LVL11:
 190:Core/Src/freertos.c **** 
 173              		.loc 1 190 16 view .LVU30
 174 0056 114B     		ldr	r3, .L10+64
 175 0058 1860     		str	r0, [r3]
 200:Core/Src/freertos.c **** 
 176              		.loc 1 200 1 view .LVU31
 177 005a 08BD     		pop	{r3, pc}
 178              	.L11:
 179              		.align	2
 180              	.L10:
 181 005c 00000000 		.word	.LANCHOR1
 182 0060 00000000 		.word	.LANCHOR2
 183 0064 00000000 		.word	.LANCHOR3
 184 0068 00000000 		.word	LED_Indicator
 185 006c 00000000 		.word	.LANCHOR4
ARM GAS  C:\Users\Vento\AppData\Local\Temp\cc4kJFdO.s 			page 12


 186 0070 00000000 		.word	.LANCHOR5
 187 0074 00000000 		.word	LCD_Timeout
 188 0078 00000000 		.word	.LANCHOR6
 189 007c 00000000 		.word	.LANCHOR7
 190 0080 00000000 		.word	Display_Task
 191 0084 00000000 		.word	.LANCHOR8
 192 0088 00000000 		.word	.LANCHOR9
 193 008c 00000000 		.word	PLC_Task
 194 0090 00000000 		.word	.LANCHOR10
 195 0094 00000000 		.word	.LANCHOR11
 196 0098 00000000 		.word	IRQ_Task
 197 009c 00000000 		.word	.LANCHOR12
 198              		.cfi_endproc
 199              	.LFE69:
 201              		.section	.text.HAL_GPIO_EXTI_Callback,"ax",%progbits
 202              		.align	1
 203              		.global	HAL_GPIO_EXTI_Callback
 204              		.syntax unified
 205              		.thumb
 206              		.thumb_func
 207              		.fpu softvfp
 209              	HAL_GPIO_EXTI_Callback:
 210              	.LVL12:
 211              	.LFB75:
 427:Core/Src/freertos.c **** 
 428:Core/Src/freertos.c **** /* Private application code --------------------------------------------------*/
 429:Core/Src/freertos.c **** /* USER CODE BEGIN Application */
 430:Core/Src/freertos.c **** 
 431:Core/Src/freertos.c **** void HAL_GPIO_EXTI_Callback(uint16_t GPIO_Pin)
 432:Core/Src/freertos.c **** {
 212              		.loc 1 432 1 is_stmt 1 view -0
 213              		.cfi_startproc
 214              		@ args = 0, pretend = 0, frame = 0
 215              		@ frame_needed = 0, uses_anonymous_args = 0
 433:Core/Src/freertos.c ****   if ((GPIO_Pin == TOUCH_IRQ_Pin))
 216              		.loc 1 433 3 view .LVU33
 217              		.loc 1 433 6 is_stmt 0 view .LVU34
 218 0000 0828     		cmp	r0, #8
 219 0002 00D0     		beq	.L18
 220 0004 7047     		bx	lr
 221              	.L18:
 432:Core/Src/freertos.c ****   if ((GPIO_Pin == TOUCH_IRQ_Pin))
 222              		.loc 1 432 1 view .LVU35
 223 0006 08B5     		push	{r3, lr}
 224              	.LCFI3:
 225              		.cfi_def_cfa_offset 8
 226              		.cfi_offset 3, -8
 227              		.cfi_offset 14, -4
 434:Core/Src/freertos.c ****   {
 435:Core/Src/freertos.c ****     osSemaphoreRelease(BinarySemHandle);
 228              		.loc 1 435 5 is_stmt 1 view .LVU36
 229 0008 024B     		ldr	r3, .L19
 230 000a 1868     		ldr	r0, [r3]
 231              	.LVL13:
 232              		.loc 1 435 5 is_stmt 0 view .LVU37
 233 000c FFF7FEFF 		bl	osSemaphoreRelease
 234              	.LVL14:
ARM GAS  C:\Users\Vento\AppData\Local\Temp\cc4kJFdO.s 			page 13


 436:Core/Src/freertos.c ****   }
 437:Core/Src/freertos.c **** }
 235              		.loc 1 437 1 view .LVU38
 236 0010 08BD     		pop	{r3, pc}
 237              	.L20:
 238 0012 00BF     		.align	2
 239              	.L19:
 240 0014 00000000 		.word	.LANCHOR2
 241              		.cfi_endproc
 242              	.LFE75:
 244              		.section	.rodata.ControlPageDisplay.str1.4,"aMS",%progbits,1
 245              		.align	2
 246              	.LC0:
 247 0000 4348414E 		.ascii	"CHANNEL 1\000"
 247      4E454C20 
 247      3100
 248 000a 0000     		.align	2
 249              	.LC1:
 250 000c 4348414E 		.ascii	"CHANNEL 2\000"
 250      4E454C20 
 250      3200
 251 0016 0000     		.align	2
 252              	.LC2:
 253 0018 4F4E00   		.ascii	"ON\000"
 254 001b 00       		.align	2
 255              	.LC3:
 256 001c 4F464600 		.ascii	"OFF\000"
 257              		.align	2
 258              	.LC4:
 259 0020 53455454 		.ascii	"SETTING\000"
 259      494E4700 
 260              		.align	2
 261              	.LC5:
 262 0028 3E3E00   		.ascii	">>\000"
 263              		.section	.text.ControlPageDisplay,"ax",%progbits
 264              		.align	1
 265              		.global	ControlPageDisplay
 266              		.syntax unified
 267              		.thumb
 268              		.thumb_func
 269              		.fpu softvfp
 271              	ControlPageDisplay:
 272              	.LFB76:
 438:Core/Src/freertos.c **** 
 439:Core/Src/freertos.c **** void ControlPageDisplay(void)
 440:Core/Src/freertos.c **** {
 273              		.loc 1 440 1 is_stmt 1 view -0
 274              		.cfi_startproc
 275              		@ args = 0, pretend = 0, frame = 0
 276              		@ frame_needed = 0, uses_anonymous_args = 0
 277 0000 70B5     		push	{r4, r5, r6, lr}
 278              	.LCFI4:
 279              		.cfi_def_cfa_offset 16
 280              		.cfi_offset 4, -16
 281              		.cfi_offset 5, -12
 282              		.cfi_offset 6, -8
 283              		.cfi_offset 14, -4
ARM GAS  C:\Users\Vento\AppData\Local\Temp\cc4kJFdO.s 			page 14


 284 0002 84B0     		sub	sp, sp, #16
 285              	.LCFI5:
 286              		.cfi_def_cfa_offset 32
 441:Core/Src/freertos.c ****   ILI9341_FillScreen(ILI9341_BLACK);
 287              		.loc 1 441 3 view .LVU40
 288 0004 0020     		movs	r0, #0
 289 0006 FFF7FEFF 		bl	ILI9341_FillScreen
 290              	.LVL15:
 442:Core/Src/freertos.c **** 
 443:Core/Src/freertos.c ****   ILI9341_WriteString(34, 30, "CHANNEL 1", Font_11x18, ILI9341_WHITE, ILI9341_BLACK);
 291              		.loc 1 443 3 view .LVU41
 292 000a 644C     		ldr	r4, .L27
 293 000c 0026     		movs	r6, #0
 294 000e 0296     		str	r6, [sp, #8]
 295 0010 4FF6FF75 		movw	r5, #65535
 296 0014 0195     		str	r5, [sp, #4]
 297 0016 6368     		ldr	r3, [r4, #4]
 298 0018 0093     		str	r3, [sp]
 299 001a 2368     		ldr	r3, [r4]
 300 001c 604A     		ldr	r2, .L27+4
 301 001e 1E21     		movs	r1, #30
 302 0020 2220     		movs	r0, #34
 303 0022 FFF7FEFF 		bl	ILI9341_WriteString
 304              	.LVL16:
 444:Core/Src/freertos.c ****   ILI9341_WriteString(194, 30, "CHANNEL 2", Font_11x18, ILI9341_WHITE, ILI9341_BLACK);
 305              		.loc 1 444 3 view .LVU42
 306 0026 0296     		str	r6, [sp, #8]
 307 0028 0195     		str	r5, [sp, #4]
 308 002a 6368     		ldr	r3, [r4, #4]
 309 002c 0093     		str	r3, [sp]
 310 002e 2368     		ldr	r3, [r4]
 311 0030 5C4A     		ldr	r2, .L27+8
 312 0032 1E21     		movs	r1, #30
 313 0034 C220     		movs	r0, #194
 314 0036 FFF7FEFF 		bl	ILI9341_WriteString
 315              	.LVL17:
 445:Core/Src/freertos.c **** 
 446:Core/Src/freertos.c ****   if (Channel_1.state == true)
 316              		.loc 1 446 3 view .LVU43
 317              		.loc 1 446 16 is_stmt 0 view .LVU44
 318 003a 5B4B     		ldr	r3, .L27+12
 319 003c 1B7B     		ldrb	r3, [r3, #12]	@ zero_extendqisi2
 320              		.loc 1 446 6 view .LVU45
 321 003e 002B     		cmp	r3, #0
 322 0040 76D0     		beq	.L22
 447:Core/Src/freertos.c ****   {
 448:Core/Src/freertos.c ****     ILI9341_FillCircle(Channel_1.pos_x, Channel_1.pos_y, Channel_1.shape_r, ILI9341_GREEN);
 323              		.loc 1 448 5 is_stmt 1 view .LVU46
 324 0042 594C     		ldr	r4, .L27+12
 325 0044 4FF4FC63 		mov	r3, #2016
 326 0048 A288     		ldrh	r2, [r4, #4]
 327 004a 6188     		ldrh	r1, [r4, #2]
 328 004c 2088     		ldrh	r0, [r4]
 329 004e FFF7FEFF 		bl	ILI9341_FillCircle
 330              	.LVL18:
 449:Core/Src/freertos.c ****     ILI9341_WriteString(Channel_1.pos_x-10, Channel_1.pos_y-5, "ON", Font_11x18, ILI9341_BLACK, ILI
 331              		.loc 1 449 5 view .LVU47
ARM GAS  C:\Users\Vento\AppData\Local\Temp\cc4kJFdO.s 			page 15


 332              		.loc 1 449 34 is_stmt 0 view .LVU48
 333 0052 2088     		ldrh	r0, [r4]
 334              		.loc 1 449 54 view .LVU49
 335 0054 6188     		ldrh	r1, [r4, #2]
 336              		.loc 1 449 5 view .LVU50
 337 0056 514B     		ldr	r3, .L27
 338 0058 0539     		subs	r1, r1, #5
 339 005a 0A38     		subs	r0, r0, #10
 340 005c 4FF4FC62 		mov	r2, #2016
 341 0060 0292     		str	r2, [sp, #8]
 342 0062 0196     		str	r6, [sp, #4]
 343 0064 5A68     		ldr	r2, [r3, #4]
 344 0066 0092     		str	r2, [sp]
 345 0068 1B68     		ldr	r3, [r3]
 346 006a 504A     		ldr	r2, .L27+16
 347 006c 89B2     		uxth	r1, r1
 348 006e 80B2     		uxth	r0, r0
 349 0070 FFF7FEFF 		bl	ILI9341_WriteString
 350              	.LVL19:
 351              	.L23:
 450:Core/Src/freertos.c ****   }
 451:Core/Src/freertos.c ****   else
 452:Core/Src/freertos.c ****   {
 453:Core/Src/freertos.c ****     ILI9341_FillCircle(Channel_1.pos_x, Channel_1.pos_y, Channel_1.shape_r, ILI9341_RED);
 454:Core/Src/freertos.c ****     ILI9341_WriteString(Channel_1.pos_x-15, Channel_1.pos_y-5, "OFF", Font_11x18, ILI9341_BLACK, IL
 455:Core/Src/freertos.c ****   }
 456:Core/Src/freertos.c **** 
 457:Core/Src/freertos.c ****   if (Channel_2.state == true)
 352              		.loc 1 457 3 is_stmt 1 view .LVU51
 353              		.loc 1 457 16 is_stmt 0 view .LVU52
 354 0074 4E4B     		ldr	r3, .L27+20
 355 0076 1B7B     		ldrb	r3, [r3, #12]	@ zero_extendqisi2
 356              		.loc 1 457 6 view .LVU53
 357 0078 002B     		cmp	r3, #0
 358 007a 74D0     		beq	.L24
 458:Core/Src/freertos.c ****   {
 459:Core/Src/freertos.c ****     ILI9341_FillCircle(Channel_2.pos_x, Channel_2.pos_y, Channel_2.shape_r, ILI9341_GREEN);
 359              		.loc 1 459 5 is_stmt 1 view .LVU54
 360 007c 4C4C     		ldr	r4, .L27+20
 361 007e 4FF4FC63 		mov	r3, #2016
 362 0082 A288     		ldrh	r2, [r4, #4]
 363 0084 6188     		ldrh	r1, [r4, #2]
 364 0086 2088     		ldrh	r0, [r4]
 365 0088 FFF7FEFF 		bl	ILI9341_FillCircle
 366              	.LVL20:
 460:Core/Src/freertos.c ****     ILI9341_WriteString(Channel_2.pos_x-10, Channel_2.pos_y-5, "ON", Font_11x18, ILI9341_BLACK, ILI
 367              		.loc 1 460 5 view .LVU55
 368              		.loc 1 460 34 is_stmt 0 view .LVU56
 369 008c 2088     		ldrh	r0, [r4]
 370              		.loc 1 460 54 view .LVU57
 371 008e 6188     		ldrh	r1, [r4, #2]
 372              		.loc 1 460 5 view .LVU58
 373 0090 424B     		ldr	r3, .L27
 374 0092 0539     		subs	r1, r1, #5
 375 0094 0A38     		subs	r0, r0, #10
 376 0096 4FF4FC62 		mov	r2, #2016
 377 009a 0292     		str	r2, [sp, #8]
ARM GAS  C:\Users\Vento\AppData\Local\Temp\cc4kJFdO.s 			page 16


 378 009c 0022     		movs	r2, #0
 379 009e 0192     		str	r2, [sp, #4]
 380 00a0 5A68     		ldr	r2, [r3, #4]
 381 00a2 0092     		str	r2, [sp]
 382 00a4 1B68     		ldr	r3, [r3]
 383 00a6 414A     		ldr	r2, .L27+16
 384 00a8 89B2     		uxth	r1, r1
 385 00aa 80B2     		uxth	r0, r0
 386 00ac FFF7FEFF 		bl	ILI9341_WriteString
 387              	.LVL21:
 388              	.L25:
 461:Core/Src/freertos.c ****   }
 462:Core/Src/freertos.c ****   else
 463:Core/Src/freertos.c ****   {
 464:Core/Src/freertos.c ****     ILI9341_FillCircle(Channel_2.pos_x, Channel_2.pos_y, Channel_2.shape_r, ILI9341_RED);
 465:Core/Src/freertos.c ****     ILI9341_WriteString(Channel_2.pos_x-15, Channel_2.pos_y-5, "OFF", Font_11x18, ILI9341_BLACK, IL
 466:Core/Src/freertos.c ****   }
 467:Core/Src/freertos.c **** 
 468:Core/Src/freertos.c ****   ILI9341_FillRectangle(Control_Setting.pos_x - (Control_Setting.shape_w/2), 
 389              		.loc 1 468 3 is_stmt 1 view .LVU59
 390              		.loc 1 468 40 is_stmt 0 view .LVU60
 391 00b0 404C     		ldr	r4, .L27+24
 392 00b2 2088     		ldrh	r0, [r4]
 393              		.loc 1 468 65 view .LVU61
 394 00b4 E288     		ldrh	r2, [r4, #6]
 469:Core/Src/freertos.c ****                         Control_Setting.pos_y - (Control_Setting.shape_h/2), 
 395              		.loc 1 469 40 view .LVU62
 396 00b6 6188     		ldrh	r1, [r4, #2]
 397              		.loc 1 469 65 view .LVU63
 398 00b8 2389     		ldrh	r3, [r4, #8]
 468:Core/Src/freertos.c ****                         Control_Setting.pos_y - (Control_Setting.shape_h/2), 
 399              		.loc 1 468 3 view .LVU64
 400 00ba A1EB5301 		sub	r1, r1, r3, lsr #1
 401 00be A0EB5200 		sub	r0, r0, r2, lsr #1
 402 00c2 6589     		ldrh	r5, [r4, #10]
 403 00c4 0095     		str	r5, [sp]
 404 00c6 89B2     		uxth	r1, r1
 405 00c8 80B2     		uxth	r0, r0
 406 00ca FFF7FEFF 		bl	ILI9341_FillRectangle
 407              	.LVL22:
 470:Core/Src/freertos.c ****                         Control_Setting.shape_w, 
 471:Core/Src/freertos.c ****                         Control_Setting.shape_h, 
 472:Core/Src/freertos.c ****                         Control_Setting.color);
 473:Core/Src/freertos.c ****   ILI9341_WriteString(Control_Setting.pos_x - (Control_Setting.shape_w/2) + 12, 
 408              		.loc 1 473 3 is_stmt 1 view .LVU65
 409              		.loc 1 473 38 is_stmt 0 view .LVU66
 410 00ce 2088     		ldrh	r0, [r4]
 411              		.loc 1 473 63 view .LVU67
 412 00d0 E388     		ldrh	r3, [r4, #6]
 413              		.loc 1 473 45 view .LVU68
 414 00d2 A0EB5300 		sub	r0, r0, r3, lsr #1
 415 00d6 80B2     		uxth	r0, r0
 474:Core/Src/freertos.c ****                       Control_Setting.pos_y - (Control_Setting.shape_h/2) + 7, 
 416              		.loc 1 474 38 view .LVU69
 417 00d8 6188     		ldrh	r1, [r4, #2]
 418              		.loc 1 474 63 view .LVU70
 419 00da 2389     		ldrh	r3, [r4, #8]
ARM GAS  C:\Users\Vento\AppData\Local\Temp\cc4kJFdO.s 			page 17


 420              		.loc 1 474 45 view .LVU71
 421 00dc A1EB5301 		sub	r1, r1, r3, lsr #1
 422 00e0 89B2     		uxth	r1, r1
 473:Core/Src/freertos.c ****                       Control_Setting.pos_y - (Control_Setting.shape_h/2) + 7, 
 423              		.loc 1 473 3 view .LVU72
 424 00e2 2E4D     		ldr	r5, .L27
 425 00e4 0731     		adds	r1, r1, #7
 426 00e6 0C30     		adds	r0, r0, #12
 427 00e8 6389     		ldrh	r3, [r4, #10]
 428 00ea 0293     		str	r3, [sp, #8]
 429 00ec 0026     		movs	r6, #0
 430 00ee 0196     		str	r6, [sp, #4]
 431 00f0 6B68     		ldr	r3, [r5, #4]
 432 00f2 0093     		str	r3, [sp]
 433 00f4 2B68     		ldr	r3, [r5]
 434 00f6 304A     		ldr	r2, .L27+28
 435 00f8 89B2     		uxth	r1, r1
 436 00fa 80B2     		uxth	r0, r0
 437 00fc FFF7FEFF 		bl	ILI9341_WriteString
 438              	.LVL23:
 475:Core/Src/freertos.c ****                       "SETTING", 
 476:Core/Src/freertos.c ****                       Font_11x18, 
 477:Core/Src/freertos.c ****                       ILI9341_BLACK, 
 478:Core/Src/freertos.c ****                       Control_Setting.color);
 479:Core/Src/freertos.c **** 
 480:Core/Src/freertos.c ****   ILI9341_FillCircle(Control_Info.pos_x, Control_Info.pos_y, Control_Info.shape_r, Control_Info.col
 439              		.loc 1 480 3 is_stmt 1 view .LVU73
 440 0100 2E4C     		ldr	r4, .L27+32
 441 0102 6389     		ldrh	r3, [r4, #10]
 442 0104 A288     		ldrh	r2, [r4, #4]
 443 0106 6188     		ldrh	r1, [r4, #2]
 444 0108 2088     		ldrh	r0, [r4]
 445 010a FFF7FEFF 		bl	ILI9341_FillCircle
 446              	.LVL24:
 481:Core/Src/freertos.c ****   ILI9341_WriteString(Control_Info.pos_x-10, Control_Info.pos_y-7, ">>", Font_11x18, ILI9341_BLACK,
 447              		.loc 1 481 3 view .LVU74
 448              		.loc 1 481 35 is_stmt 0 view .LVU75
 449 010e 2088     		ldrh	r0, [r4]
 450              		.loc 1 481 58 view .LVU76
 451 0110 6188     		ldrh	r1, [r4, #2]
 452              		.loc 1 481 3 view .LVU77
 453 0112 0739     		subs	r1, r1, #7
 454 0114 0A38     		subs	r0, r0, #10
 455 0116 6389     		ldrh	r3, [r4, #10]
 456 0118 0293     		str	r3, [sp, #8]
 457 011a 0196     		str	r6, [sp, #4]
 458 011c 6B68     		ldr	r3, [r5, #4]
 459 011e 0093     		str	r3, [sp]
 460 0120 2B68     		ldr	r3, [r5]
 461 0122 274A     		ldr	r2, .L27+36
 462 0124 89B2     		uxth	r1, r1
 463 0126 80B2     		uxth	r0, r0
 464 0128 FFF7FEFF 		bl	ILI9341_WriteString
 465              	.LVL25:
 482:Core/Src/freertos.c **** 
 483:Core/Src/freertos.c **** }
 466              		.loc 1 483 1 view .LVU78
ARM GAS  C:\Users\Vento\AppData\Local\Temp\cc4kJFdO.s 			page 18


 467 012c 04B0     		add	sp, sp, #16
 468              	.LCFI6:
 469              		.cfi_remember_state
 470              		.cfi_def_cfa_offset 16
 471              		@ sp needed
 472 012e 70BD     		pop	{r4, r5, r6, pc}
 473              	.L22:
 474              	.LCFI7:
 475              		.cfi_restore_state
 453:Core/Src/freertos.c ****     ILI9341_WriteString(Channel_1.pos_x-15, Channel_1.pos_y-5, "OFF", Font_11x18, ILI9341_BLACK, IL
 476              		.loc 1 453 5 is_stmt 1 view .LVU79
 477 0130 1D4C     		ldr	r4, .L27+12
 478 0132 4FF47843 		mov	r3, #63488
 479 0136 A288     		ldrh	r2, [r4, #4]
 480 0138 6188     		ldrh	r1, [r4, #2]
 481 013a 2088     		ldrh	r0, [r4]
 482 013c FFF7FEFF 		bl	ILI9341_FillCircle
 483              	.LVL26:
 454:Core/Src/freertos.c ****   }
 484              		.loc 1 454 5 view .LVU80
 454:Core/Src/freertos.c ****   }
 485              		.loc 1 454 34 is_stmt 0 view .LVU81
 486 0140 2088     		ldrh	r0, [r4]
 454:Core/Src/freertos.c ****   }
 487              		.loc 1 454 54 view .LVU82
 488 0142 6188     		ldrh	r1, [r4, #2]
 454:Core/Src/freertos.c ****   }
 489              		.loc 1 454 5 view .LVU83
 490 0144 154B     		ldr	r3, .L27
 491 0146 0539     		subs	r1, r1, #5
 492 0148 0F38     		subs	r0, r0, #15
 493 014a 4FF47842 		mov	r2, #63488
 494 014e 0292     		str	r2, [sp, #8]
 495 0150 0022     		movs	r2, #0
 496 0152 0192     		str	r2, [sp, #4]
 497 0154 5A68     		ldr	r2, [r3, #4]
 498 0156 0092     		str	r2, [sp]
 499 0158 1B68     		ldr	r3, [r3]
 500 015a 1A4A     		ldr	r2, .L27+40
 501 015c 89B2     		uxth	r1, r1
 502 015e 80B2     		uxth	r0, r0
 503 0160 FFF7FEFF 		bl	ILI9341_WriteString
 504              	.LVL27:
 505 0164 86E7     		b	.L23
 506              	.L24:
 464:Core/Src/freertos.c ****     ILI9341_WriteString(Channel_2.pos_x-15, Channel_2.pos_y-5, "OFF", Font_11x18, ILI9341_BLACK, IL
 507              		.loc 1 464 5 is_stmt 1 view .LVU84
 508 0166 124C     		ldr	r4, .L27+20
 509 0168 4FF47843 		mov	r3, #63488
 510 016c A288     		ldrh	r2, [r4, #4]
 511 016e 6188     		ldrh	r1, [r4, #2]
 512 0170 2088     		ldrh	r0, [r4]
 513 0172 FFF7FEFF 		bl	ILI9341_FillCircle
 514              	.LVL28:
 465:Core/Src/freertos.c ****   }
 515              		.loc 1 465 5 view .LVU85
 465:Core/Src/freertos.c ****   }
ARM GAS  C:\Users\Vento\AppData\Local\Temp\cc4kJFdO.s 			page 19


 516              		.loc 1 465 34 is_stmt 0 view .LVU86
 517 0176 2088     		ldrh	r0, [r4]
 465:Core/Src/freertos.c ****   }
 518              		.loc 1 465 54 view .LVU87
 519 0178 6188     		ldrh	r1, [r4, #2]
 465:Core/Src/freertos.c ****   }
 520              		.loc 1 465 5 view .LVU88
 521 017a 084B     		ldr	r3, .L27
 522 017c 0539     		subs	r1, r1, #5
 523 017e 0F38     		subs	r0, r0, #15
 524 0180 4FF47842 		mov	r2, #63488
 525 0184 0292     		str	r2, [sp, #8]
 526 0186 0022     		movs	r2, #0
 527 0188 0192     		str	r2, [sp, #4]
 528 018a 5A68     		ldr	r2, [r3, #4]
 529 018c 0092     		str	r2, [sp]
 530 018e 1B68     		ldr	r3, [r3]
 531 0190 0C4A     		ldr	r2, .L27+40
 532 0192 89B2     		uxth	r1, r1
 533 0194 80B2     		uxth	r0, r0
 534 0196 FFF7FEFF 		bl	ILI9341_WriteString
 535              	.LVL29:
 536 019a 89E7     		b	.L25
 537              	.L28:
 538              		.align	2
 539              	.L27:
 540 019c 00000000 		.word	Font_11x18
 541 01a0 00000000 		.word	.LC0
 542 01a4 0C000000 		.word	.LC1
 543 01a8 00000000 		.word	.LANCHOR13
 544 01ac 18000000 		.word	.LC2
 545 01b0 00000000 		.word	.LANCHOR14
 546 01b4 00000000 		.word	.LANCHOR15
 547 01b8 20000000 		.word	.LC4
 548 01bc 00000000 		.word	.LANCHOR16
 549 01c0 28000000 		.word	.LC5
 550 01c4 1C000000 		.word	.LC3
 551              		.cfi_endproc
 552              	.LFE76:
 554              		.section	.text.ControlPageHandler,"ax",%progbits
 555              		.align	1
 556              		.global	ControlPageHandler
 557              		.syntax unified
 558              		.thumb
 559              		.thumb_func
 560              		.fpu softvfp
 562              	ControlPageHandler:
 563              	.LVL30:
 564              	.LFB79:
 484:Core/Src/freertos.c **** 
 485:Core/Src/freertos.c **** void SettingPageDisplay(void)
 486:Core/Src/freertos.c **** {
 487:Core/Src/freertos.c ****   ILI9341_FillScreen(ILI9341_BLACK);
 488:Core/Src/freertos.c **** 
 489:Core/Src/freertos.c ****   char temp[4];
 490:Core/Src/freertos.c **** 
 491:Core/Src/freertos.c ****   ILI9341_WriteString(110, 15, "CHANNEL 1", Font_11x18, ILI9341_WHITE, ILI9341_BLACK);
ARM GAS  C:\Users\Vento\AppData\Local\Temp\cc4kJFdO.s 			page 20


 492:Core/Src/freertos.c **** 
 493:Core/Src/freertos.c ****   ILI9341_WriteString(10, 40, "Level: ", Font_11x18, ILI9341_WHITE, ILI9341_BLACK);
 494:Core/Src/freertos.c ****   intToStr(Channel01.PWM_percent, temp, 3);
 495:Core/Src/freertos.c ****   ILI9341_WriteString(109, 40, temp, Font_11x18, ILI9341_WHITE, ILI9341_BLACK);
 496:Core/Src/freertos.c **** 
 497:Core/Src/freertos.c ****   ILI9341_DrawRectangle(20, 70, 280, 20, ILI9341_WHITE);
 498:Core/Src/freertos.c ****   ILI9341_FillRectangle(22, 72, 278*((double)Channel01.PWM_percent/100) - 1, 17, ILI9341_GREEN);
 499:Core/Src/freertos.c **** 
 500:Core/Src/freertos.c ****   ILI9341_WriteString(110, 105, "CHANNEL 2", Font_11x18, ILI9341_WHITE, ILI9341_BLACK);
 501:Core/Src/freertos.c **** 
 502:Core/Src/freertos.c ****   ILI9341_WriteString(10, 130, "Level: ", Font_11x18, ILI9341_WHITE, ILI9341_BLACK);
 503:Core/Src/freertos.c ****   intToStr(Channel02.PWM_percent, temp, 3);
 504:Core/Src/freertos.c ****   ILI9341_WriteString(109, 130, temp, Font_11x18, ILI9341_WHITE, ILI9341_BLACK);
 505:Core/Src/freertos.c **** 
 506:Core/Src/freertos.c ****   ILI9341_DrawRectangle(20, 160, 280, 20, ILI9341_WHITE);
 507:Core/Src/freertos.c ****   ILI9341_FillRectangle(22, 162, 278*((double)Channel02.PWM_percent/100) - 1, 17, ILI9341_GREEN);
 508:Core/Src/freertos.c **** 
 509:Core/Src/freertos.c **** 
 510:Core/Src/freertos.c ****   ILI9341_FillRectangle(Control_Setting.pos_x - (Control_Setting.shape_w/2), 
 511:Core/Src/freertos.c ****                         Control_Setting.pos_y - (Control_Setting.shape_h/2), 
 512:Core/Src/freertos.c ****                         Control_Setting.shape_w, 
 513:Core/Src/freertos.c ****                         Control_Setting.shape_h, 
 514:Core/Src/freertos.c ****                         Control_Setting.color);
 515:Core/Src/freertos.c ****   ILI9341_WriteString(Control_Setting.pos_x - (Control_Setting.shape_w/2) + 12, 
 516:Core/Src/freertos.c ****                       Control_Setting.pos_y - (Control_Setting.shape_h/2) + 7, 
 517:Core/Src/freertos.c ****                       "CONTROL", 
 518:Core/Src/freertos.c ****                       Font_11x18, 
 519:Core/Src/freertos.c ****                       ILI9341_BLACK, 
 520:Core/Src/freertos.c ****                       Control_Setting.color);
 521:Core/Src/freertos.c **** }
 522:Core/Src/freertos.c **** 
 523:Core/Src/freertos.c **** void InfoPageDisplay(void)
 524:Core/Src/freertos.c **** {
 525:Core/Src/freertos.c ****   ILI9341_FillScreen(ILI9341_BLACK);
 526:Core/Src/freertos.c **** 
 527:Core/Src/freertos.c ****   char temp[6];
 528:Core/Src/freertos.c ****   char t_temp[9];
 529:Core/Src/freertos.c **** 
 530:Core/Src/freertos.c ****   ILI9341_WriteString(30, 15, "CHANNEL 1", Font_11x18, ILI9341_WHITE, ILI9341_BLACK);
 531:Core/Src/freertos.c **** 
 532:Core/Src/freertos.c ****   ILI9341_WriteString(20, 40, "Current: ", Font_7x10, ILI9341_YELLOW, ILI9341_BLACK);
 533:Core/Src/freertos.c ****   ftoa(Channel01.current, temp, 1);
 534:Core/Src/freertos.c ****   ILI9341_WriteString(90, 40, temp, Font_7x10, ILI9341_YELLOW, ILI9341_BLACK);
 535:Core/Src/freertos.c ****   ILI9341_WriteString(125, 40, "mA", Font_7x10, ILI9341_YELLOW, ILI9341_BLACK);
 536:Core/Src/freertos.c **** 
 537:Core/Src/freertos.c ****   ILI9341_WriteString(20, 60, "Power: ", Font_7x10, ILI9341_RED, ILI9341_BLACK);
 538:Core/Src/freertos.c ****   ftoa(Channel01.current * 220 / 1000, temp, 1);
 539:Core/Src/freertos.c ****   ILI9341_WriteString(90, 60, temp, Font_7x10, ILI9341_RED, ILI9341_BLACK);
 540:Core/Src/freertos.c ****   ILI9341_WriteString(125, 60, "W", Font_7x10, ILI9341_RED, ILI9341_BLACK);
 541:Core/Src/freertos.c **** 
 542:Core/Src/freertos.c ****   ILI9341_WriteString(20, 80, "Period: ", Font_7x10, ILI9341_GREEN, ILI9341_BLACK);
 543:Core/Src/freertos.c ****   intToTime(Channel01.time, t_temp);
 544:Core/Src/freertos.c ****   ILI9341_WriteString(90, 80, t_temp, Font_7x10, ILI9341_GREEN, ILI9341_BLACK);
 545:Core/Src/freertos.c **** 
 546:Core/Src/freertos.c **** 
 547:Core/Src/freertos.c **** 
 548:Core/Src/freertos.c ****   ILI9341_WriteString(30, 105, "CHANNEL 2", Font_11x18, ILI9341_WHITE, ILI9341_BLACK);
ARM GAS  C:\Users\Vento\AppData\Local\Temp\cc4kJFdO.s 			page 21


 549:Core/Src/freertos.c **** 
 550:Core/Src/freertos.c ****   ILI9341_WriteString(20, 130, "Current: ", Font_7x10, ILI9341_YELLOW, ILI9341_BLACK);
 551:Core/Src/freertos.c ****   ftoa(Channel02.current, temp, 1);
 552:Core/Src/freertos.c ****   ILI9341_WriteString(90, 130, temp, Font_7x10, ILI9341_YELLOW, ILI9341_BLACK);
 553:Core/Src/freertos.c ****   ILI9341_WriteString(125, 130, "mA", Font_7x10, ILI9341_YELLOW, ILI9341_BLACK);
 554:Core/Src/freertos.c **** 
 555:Core/Src/freertos.c ****   ILI9341_WriteString(20, 150, "Power: ", Font_7x10, ILI9341_RED, ILI9341_BLACK);
 556:Core/Src/freertos.c ****   ftoa(Channel02.current * 220 / 1000, temp, 1);
 557:Core/Src/freertos.c ****   ILI9341_WriteString(90, 150, temp, Font_7x10, ILI9341_RED, ILI9341_BLACK);
 558:Core/Src/freertos.c ****   ILI9341_WriteString(125, 150, "W", Font_7x10, ILI9341_RED, ILI9341_BLACK);
 559:Core/Src/freertos.c **** 
 560:Core/Src/freertos.c ****   ILI9341_WriteString(20, 170, "Period: ", Font_7x10, ILI9341_GREEN, ILI9341_BLACK);
 561:Core/Src/freertos.c ****   intToTime(Channel02.time, t_temp);
 562:Core/Src/freertos.c ****   ILI9341_WriteString(90, 170, t_temp, Font_7x10, ILI9341_GREEN, ILI9341_BLACK);
 563:Core/Src/freertos.c **** 
 564:Core/Src/freertos.c **** 
 565:Core/Src/freertos.c ****   ILI9341_DrawLine(160, 0, 160, 239, ILI9341_WHITE);
 566:Core/Src/freertos.c ****   ILI9341_DrawLine(160, 120, 319, 120, ILI9341_WHITE);
 567:Core/Src/freertos.c **** 
 568:Core/Src/freertos.c **** 
 569:Core/Src/freertos.c ****   ILI9341_DrawLine(190, 220, 315, 220, ILI9341_WHITE);
 570:Core/Src/freertos.c ****   ILI9341_DrawLine(313, 218, 315, 220, ILI9341_WHITE);
 571:Core/Src/freertos.c ****   ILI9341_DrawLine(313, 222, 315, 220, ILI9341_WHITE);
 572:Core/Src/freertos.c ****   ILI9341_WriteString(310, 227, "t", Font_7x10, ILI9341_WHITE, ILI9341_BLACK);
 573:Core/Src/freertos.c ****   ILI9341_DrawLine(250, 220, 250, 223, ILI9341_WHITE);
 574:Core/Src/freertos.c ****   ILI9341_WriteString(243, 227, "60", Font_7x10, ILI9341_WHITE, ILI9341_BLACK);
 575:Core/Src/freertos.c ****   
 576:Core/Src/freertos.c ****   ILI9341_DrawLine(190, 140, 190, 220, ILI9341_WHITE);
 577:Core/Src/freertos.c ****   ILI9341_DrawLine(190, 140, 192, 142, ILI9341_WHITE);
 578:Core/Src/freertos.c ****   ILI9341_DrawLine(190, 140, 188, 142, ILI9341_WHITE);
 579:Core/Src/freertos.c ****   ILI9341_WriteString(178, 135, "P", Font_7x10, ILI9341_WHITE, ILI9341_BLACK);
 580:Core/Src/freertos.c ****   ILI9341_DrawLine(187, 180, 190, 180, ILI9341_WHITE);
 581:Core/Src/freertos.c ****   ILI9341_WriteString(171, 176, "20", Font_7x10, ILI9341_WHITE, ILI9341_BLACK);
 582:Core/Src/freertos.c **** 
 583:Core/Src/freertos.c ****   ILI9341_WriteString(178, 227, "0", Font_7x10, ILI9341_WHITE, ILI9341_BLACK);
 584:Core/Src/freertos.c **** 
 585:Core/Src/freertos.c ****   for(uint8_t i = 0; i < 120; i++)
 586:Core/Src/freertos.c ****   {
 587:Core/Src/freertos.c ****     ILI9341_DrawPixel(191+i, 220-Channel02.history[i], ILI9341_RED);
 588:Core/Src/freertos.c ****   }
 589:Core/Src/freertos.c **** 
 590:Core/Src/freertos.c **** 
 591:Core/Src/freertos.c ****   ILI9341_DrawLine(190, 100, 315, 100, ILI9341_WHITE);
 592:Core/Src/freertos.c ****   ILI9341_DrawLine(313, 98, 315, 100, ILI9341_WHITE);
 593:Core/Src/freertos.c ****   ILI9341_DrawLine(313, 102, 315, 100, ILI9341_WHITE);
 594:Core/Src/freertos.c ****   ILI9341_WriteString(310, 107, "t", Font_7x10, ILI9341_WHITE, ILI9341_BLACK);
 595:Core/Src/freertos.c ****   ILI9341_DrawLine(250, 100, 250, 103, ILI9341_WHITE);
 596:Core/Src/freertos.c ****   ILI9341_WriteString(243, 107, "60", Font_7x10, ILI9341_WHITE, ILI9341_BLACK);
 597:Core/Src/freertos.c ****   
 598:Core/Src/freertos.c ****   ILI9341_DrawLine(190, 20, 190, 100, ILI9341_WHITE);
 599:Core/Src/freertos.c ****   ILI9341_DrawLine(190, 20, 192, 22, ILI9341_WHITE);
 600:Core/Src/freertos.c ****   ILI9341_DrawLine(190, 20, 188, 22, ILI9341_WHITE);
 601:Core/Src/freertos.c ****   ILI9341_WriteString(178, 15, "P", Font_7x10, ILI9341_WHITE, ILI9341_BLACK);
 602:Core/Src/freertos.c ****   ILI9341_DrawLine(187, 60, 190, 60, ILI9341_WHITE);
 603:Core/Src/freertos.c ****   ILI9341_WriteString(171, 56, "20", Font_7x10, ILI9341_WHITE, ILI9341_BLACK);
 604:Core/Src/freertos.c **** 
 605:Core/Src/freertos.c ****   ILI9341_WriteString(178, 107, "0", Font_7x10, ILI9341_WHITE, ILI9341_BLACK);
ARM GAS  C:\Users\Vento\AppData\Local\Temp\cc4kJFdO.s 			page 22


 606:Core/Src/freertos.c **** 
 607:Core/Src/freertos.c ****   for(uint8_t i = 0; i < 120; i++)
 608:Core/Src/freertos.c ****   {
 609:Core/Src/freertos.c ****     ILI9341_DrawPixel(191+i, 100-Channel01.history[i], ILI9341_BLUE);
 610:Core/Src/freertos.c ****   }
 611:Core/Src/freertos.c ****   
 612:Core/Src/freertos.c **** 
 613:Core/Src/freertos.c ****   ILI9341_FillCircle(Info_Control.pos_x, Info_Control.pos_y, Info_Control.shape_r, Info_Control.col
 614:Core/Src/freertos.c ****   ILI9341_WriteString(Info_Control.pos_x-10, Info_Control.pos_y-7, "<<", Font_11x18, ILI9341_BLACK,
 615:Core/Src/freertos.c **** 
 616:Core/Src/freertos.c **** }
 617:Core/Src/freertos.c **** 
 618:Core/Src/freertos.c **** void ControlPageHandler(uint16_t x, uint16_t y)
 619:Core/Src/freertos.c **** {
 565              		.loc 1 619 1 is_stmt 1 view -0
 566              		.cfi_startproc
 567              		@ args = 0, pretend = 0, frame = 0
 568              		@ frame_needed = 0, uses_anonymous_args = 0
 569              		.loc 1 619 1 is_stmt 0 view .LVU90
 570 0000 F0B5     		push	{r4, r5, r6, r7, lr}
 571              	.LCFI8:
 572              		.cfi_def_cfa_offset 20
 573              		.cfi_offset 4, -20
 574              		.cfi_offset 5, -16
 575              		.cfi_offset 6, -12
 576              		.cfi_offset 7, -8
 577              		.cfi_offset 14, -4
 578 0002 85B0     		sub	sp, sp, #20
 579              	.LCFI9:
 580              		.cfi_def_cfa_offset 40
 581 0004 0546     		mov	r5, r0
 582 0006 0C46     		mov	r4, r1
 620:Core/Src/freertos.c ****   if ((((ABS(y - Channel_1.pos_x))^2) + ((ABS(x - Channel_1.pos_y))^2)) <= ((Channel_1.shape_r)^2))
 583              		.loc 1 620 3 is_stmt 1 view .LVU91
 584              		.loc 1 620 10 is_stmt 0 view .LVU92
 585 0008 694E     		ldr	r6, .L39
 586 000a 3088     		ldrh	r0, [r6]
 587              	.LVL31:
 588              		.loc 1 620 10 view .LVU93
 589 000c 0B1A     		subs	r3, r1, r0
 590 000e 002B     		cmp	r3, #0
 591 0010 B8BF     		it	lt
 592 0012 5B42     		rsblt	r3, r3, #0
 593              		.loc 1 620 35 view .LVU94
 594 0014 83F00203 		eor	r3, r3, #2
 595              		.loc 1 620 43 view .LVU95
 596 0018 7188     		ldrh	r1, [r6, #2]
 597              	.LVL32:
 598              		.loc 1 620 43 view .LVU96
 599 001a 6A1A     		subs	r2, r5, r1
 600 001c 002A     		cmp	r2, #0
 601 001e B8BF     		it	lt
 602 0020 5242     		rsblt	r2, r2, #0
 603              		.loc 1 620 68 view .LVU97
 604 0022 82F00202 		eor	r2, r2, #2
 605              		.loc 1 620 39 view .LVU98
 606 0026 1344     		add	r3, r3, r2
ARM GAS  C:\Users\Vento\AppData\Local\Temp\cc4kJFdO.s 			page 23


 607              		.loc 1 620 87 view .LVU99
 608 0028 B288     		ldrh	r2, [r6, #4]
 609              		.loc 1 620 96 view .LVU100
 610 002a 82F00206 		eor	r6, r2, #2
 611              		.loc 1 620 6 view .LVU101
 612 002e B342     		cmp	r3, r6
 613 0030 1CDC     		bgt	.L30
 621:Core/Src/freertos.c ****   {
 622:Core/Src/freertos.c ****     if (Channel_1.state == false)
 614              		.loc 1 622 5 is_stmt 1 view .LVU102
 615              		.loc 1 622 18 is_stmt 0 view .LVU103
 616 0032 5F4B     		ldr	r3, .L39
 617 0034 1B7B     		ldrb	r3, [r3, #12]	@ zero_extendqisi2
 618              		.loc 1 622 8 view .LVU104
 619 0036 002B     		cmp	r3, #0
 620 0038 77D1     		bne	.L31
 623:Core/Src/freertos.c ****     {
 624:Core/Src/freertos.c ****       Channel_1.state = true;
 621              		.loc 1 624 7 is_stmt 1 view .LVU105
 622              		.loc 1 624 23 is_stmt 0 view .LVU106
 623 003a 5D4E     		ldr	r6, .L39
 624 003c 0123     		movs	r3, #1
 625 003e 3373     		strb	r3, [r6, #12]
 625:Core/Src/freertos.c ****       ILI9341_FillCircle(Channel_1.pos_x, Channel_1.pos_y, Channel_1.shape_r, ILI9341_GREEN);
 626              		.loc 1 625 7 is_stmt 1 view .LVU107
 627 0040 4FF4FC63 		mov	r3, #2016
 628 0044 FFF7FEFF 		bl	ILI9341_FillCircle
 629              	.LVL33:
 626:Core/Src/freertos.c ****       ILI9341_WriteString(Channel_1.pos_x-10, Channel_1.pos_y-5, "ON", Font_11x18, ILI9341_BLACK, I
 630              		.loc 1 626 7 view .LVU108
 631              		.loc 1 626 36 is_stmt 0 view .LVU109
 632 0048 3088     		ldrh	r0, [r6]
 633              		.loc 1 626 56 view .LVU110
 634 004a 7188     		ldrh	r1, [r6, #2]
 635              		.loc 1 626 7 view .LVU111
 636 004c 594B     		ldr	r3, .L39+4
 637 004e 0539     		subs	r1, r1, #5
 638 0050 0A38     		subs	r0, r0, #10
 639 0052 4FF4FC62 		mov	r2, #2016
 640 0056 0292     		str	r2, [sp, #8]
 641 0058 0022     		movs	r2, #0
 642 005a 0192     		str	r2, [sp, #4]
 643 005c 5A68     		ldr	r2, [r3, #4]
 644 005e 0092     		str	r2, [sp]
 645 0060 1B68     		ldr	r3, [r3]
 646 0062 554A     		ldr	r2, .L39+8
 647 0064 89B2     		uxth	r1, r1
 648 0066 80B2     		uxth	r0, r0
 649 0068 FFF7FEFF 		bl	ILI9341_WriteString
 650              	.LVL34:
 651              	.L30:
 627:Core/Src/freertos.c ****     }
 628:Core/Src/freertos.c ****     else
 629:Core/Src/freertos.c ****     {
 630:Core/Src/freertos.c ****       Channel_1.state = false;
 631:Core/Src/freertos.c ****       ILI9341_FillCircle(Channel_1.pos_x, Channel_1.pos_y, Channel_1.shape_r, ILI9341_RED);
 632:Core/Src/freertos.c ****       ILI9341_WriteString(Channel_1.pos_x-15, Channel_1.pos_y-5, "OFF", Font_11x18, ILI9341_BLACK, 
ARM GAS  C:\Users\Vento\AppData\Local\Temp\cc4kJFdO.s 			page 24


 633:Core/Src/freertos.c ****     }
 634:Core/Src/freertos.c ****   }
 635:Core/Src/freertos.c **** 
 636:Core/Src/freertos.c ****   if ((((ABS(y - Channel_2.pos_x))^2) + ((ABS(x - Channel_2.pos_y))^2)) <= ((Channel_2.shape_r)^2))
 652              		.loc 1 636 3 is_stmt 1 view .LVU112
 653              		.loc 1 636 10 is_stmt 0 view .LVU113
 654 006c 534E     		ldr	r6, .L39+12
 655 006e 3088     		ldrh	r0, [r6]
 656 0070 231A     		subs	r3, r4, r0
 657 0072 002B     		cmp	r3, #0
 658 0074 B8BF     		it	lt
 659 0076 5B42     		rsblt	r3, r3, #0
 660              		.loc 1 636 35 view .LVU114
 661 0078 83F00203 		eor	r3, r3, #2
 662              		.loc 1 636 43 view .LVU115
 663 007c 7188     		ldrh	r1, [r6, #2]
 664 007e 6A1A     		subs	r2, r5, r1
 665 0080 002A     		cmp	r2, #0
 666 0082 B8BF     		it	lt
 667 0084 5242     		rsblt	r2, r2, #0
 668              		.loc 1 636 68 view .LVU116
 669 0086 82F00202 		eor	r2, r2, #2
 670              		.loc 1 636 39 view .LVU117
 671 008a 1344     		add	r3, r3, r2
 672              		.loc 1 636 87 view .LVU118
 673 008c B288     		ldrh	r2, [r6, #4]
 674              		.loc 1 636 96 view .LVU119
 675 008e 82F00206 		eor	r6, r2, #2
 676              		.loc 1 636 6 view .LVU120
 677 0092 B342     		cmp	r3, r6
 678 0094 1CDC     		bgt	.L32
 637:Core/Src/freertos.c ****   {
 638:Core/Src/freertos.c ****     if (Channel_2.state == false)
 679              		.loc 1 638 5 is_stmt 1 view .LVU121
 680              		.loc 1 638 18 is_stmt 0 view .LVU122
 681 0096 494B     		ldr	r3, .L39+12
 682 0098 1B7B     		ldrb	r3, [r3, #12]	@ zero_extendqisi2
 683              		.loc 1 638 8 view .LVU123
 684 009a 002B     		cmp	r3, #0
 685 009c 5ED1     		bne	.L33
 639:Core/Src/freertos.c ****     {
 640:Core/Src/freertos.c ****       Channel_2.state = true;
 686              		.loc 1 640 7 is_stmt 1 view .LVU124
 687              		.loc 1 640 23 is_stmt 0 view .LVU125
 688 009e 474E     		ldr	r6, .L39+12
 689 00a0 0123     		movs	r3, #1
 690 00a2 3373     		strb	r3, [r6, #12]
 641:Core/Src/freertos.c ****       ILI9341_FillCircle(Channel_2.pos_x, Channel_2.pos_y, Channel_2.shape_r, ILI9341_GREEN);
 691              		.loc 1 641 7 is_stmt 1 view .LVU126
 692 00a4 4FF4FC63 		mov	r3, #2016
 693 00a8 FFF7FEFF 		bl	ILI9341_FillCircle
 694              	.LVL35:
 642:Core/Src/freertos.c ****       ILI9341_WriteString(Channel_2.pos_x-10, Channel_2.pos_y-5, "ON", Font_11x18, ILI9341_BLACK, I
 695              		.loc 1 642 7 view .LVU127
 696              		.loc 1 642 36 is_stmt 0 view .LVU128
 697 00ac 3088     		ldrh	r0, [r6]
 698              		.loc 1 642 56 view .LVU129
ARM GAS  C:\Users\Vento\AppData\Local\Temp\cc4kJFdO.s 			page 25


 699 00ae 7188     		ldrh	r1, [r6, #2]
 700              		.loc 1 642 7 view .LVU130
 701 00b0 404B     		ldr	r3, .L39+4
 702 00b2 0539     		subs	r1, r1, #5
 703 00b4 0A38     		subs	r0, r0, #10
 704 00b6 4FF4FC62 		mov	r2, #2016
 705 00ba 0292     		str	r2, [sp, #8]
 706 00bc 0022     		movs	r2, #0
 707 00be 0192     		str	r2, [sp, #4]
 708 00c0 5A68     		ldr	r2, [r3, #4]
 709 00c2 0092     		str	r2, [sp]
 710 00c4 1B68     		ldr	r3, [r3]
 711 00c6 3C4A     		ldr	r2, .L39+8
 712 00c8 89B2     		uxth	r1, r1
 713 00ca 80B2     		uxth	r0, r0
 714 00cc FFF7FEFF 		bl	ILI9341_WriteString
 715              	.LVL36:
 716              	.L32:
 643:Core/Src/freertos.c ****     }
 644:Core/Src/freertos.c ****     else
 645:Core/Src/freertos.c ****     {
 646:Core/Src/freertos.c ****       Channel_2.state = false;
 647:Core/Src/freertos.c ****       ILI9341_FillCircle(Channel_2.pos_x, Channel_2.pos_y, Channel_2.shape_r, ILI9341_RED);
 648:Core/Src/freertos.c ****       ILI9341_WriteString(Channel_2.pos_x-15, Channel_2.pos_y-5, "OFF", Font_11x18, ILI9341_BLACK, 
 649:Core/Src/freertos.c ****     }
 650:Core/Src/freertos.c ****   }
 651:Core/Src/freertos.c **** 
 652:Core/Src/freertos.c ****   if ((x <= (Control_Setting.pos_y + (Control_Setting.shape_h/2))) && 
 717              		.loc 1 652 3 is_stmt 1 view .LVU131
 718              		.loc 1 652 29 is_stmt 0 view .LVU132
 719 00d0 3B4B     		ldr	r3, .L39+16
 720 00d2 5A88     		ldrh	r2, [r3, #2]
 721              		.loc 1 652 54 view .LVU133
 722 00d4 1B89     		ldrh	r3, [r3, #8]
 723              		.loc 1 652 62 view .LVU134
 724 00d6 5908     		lsrs	r1, r3, #1
 725              		.loc 1 652 36 view .LVU135
 726 00d8 02EB5303 		add	r3, r2, r3, lsr #1
 727              		.loc 1 652 6 view .LVU136
 728 00dc 9D42     		cmp	r5, r3
 729 00de 0DDC     		bgt	.L34
 653:Core/Src/freertos.c ****       (x >= (Control_Setting.pos_y - (Control_Setting.shape_h/2))) && 
 730              		.loc 1 653 36 discriminator 1 view .LVU137
 731 00e0 521A     		subs	r2, r2, r1
 652:Core/Src/freertos.c ****       (x >= (Control_Setting.pos_y - (Control_Setting.shape_h/2))) && 
 732              		.loc 1 652 68 discriminator 1 view .LVU138
 733 00e2 9542     		cmp	r5, r2
 734 00e4 0ADB     		blt	.L34
 654:Core/Src/freertos.c ****       (y <= (Control_Setting.pos_x + (Control_Setting.shape_w/2))) && 
 735              		.loc 1 654 29 view .LVU139
 736 00e6 364B     		ldr	r3, .L39+16
 737 00e8 1A88     		ldrh	r2, [r3]
 738              		.loc 1 654 54 view .LVU140
 739 00ea DB88     		ldrh	r3, [r3, #6]
 740              		.loc 1 654 62 view .LVU141
 741 00ec 5908     		lsrs	r1, r3, #1
 742              		.loc 1 654 36 view .LVU142
ARM GAS  C:\Users\Vento\AppData\Local\Temp\cc4kJFdO.s 			page 26


 743 00ee 02EB5303 		add	r3, r2, r3, lsr #1
 653:Core/Src/freertos.c ****       (x >= (Control_Setting.pos_y - (Control_Setting.shape_h/2))) && 
 744              		.loc 1 653 68 view .LVU143
 745 00f2 9C42     		cmp	r4, r3
 746 00f4 02DC     		bgt	.L34
 655:Core/Src/freertos.c ****       (y >= (Control_Setting.pos_x - (Control_Setting.shape_w/2))))
 747              		.loc 1 655 36 view .LVU144
 748 00f6 521A     		subs	r2, r2, r1
 654:Core/Src/freertos.c ****       (y <= (Control_Setting.pos_x + (Control_Setting.shape_w/2))) && 
 749              		.loc 1 654 68 view .LVU145
 750 00f8 9442     		cmp	r4, r2
 751 00fa 48DA     		bge	.L37
 752              	.L34:
 656:Core/Src/freertos.c ****   {
 657:Core/Src/freertos.c ****     currentPage = SettingPage;
 658:Core/Src/freertos.c ****     vTaskResume(myDisplayHandle);
 659:Core/Src/freertos.c ****   }
 660:Core/Src/freertos.c **** 
 661:Core/Src/freertos.c ****   if ((((ABS(y - Control_Info.pos_x))^2) + ((ABS(x - Control_Info.pos_y))^2)) <= ((Control_Info.sha
 753              		.loc 1 661 3 is_stmt 1 view .LVU146
 754              		.loc 1 661 10 is_stmt 0 view .LVU147
 755 00fc 314B     		ldr	r3, .L39+20
 756 00fe 1988     		ldrh	r1, [r3]
 757 0100 641A     		subs	r4, r4, r1
 758 0102 002C     		cmp	r4, #0
 759 0104 B8BF     		it	lt
 760 0106 6442     		rsblt	r4, r4, #0
 761              		.loc 1 661 38 view .LVU148
 762 0108 84F00204 		eor	r4, r4, #2
 763              		.loc 1 661 46 view .LVU149
 764 010c 5888     		ldrh	r0, [r3, #2]
 765 010e 2D1A     		subs	r5, r5, r0
 766 0110 002D     		cmp	r5, #0
 767 0112 B8BF     		it	lt
 768 0114 6D42     		rsblt	r5, r5, #0
 769              		.loc 1 661 74 view .LVU150
 770 0116 85F00205 		eor	r5, r5, #2
 771              		.loc 1 661 42 view .LVU151
 772 011a 2C44     		add	r4, r4, r5
 773              		.loc 1 661 96 view .LVU152
 774 011c 9B88     		ldrh	r3, [r3, #4]
 775              		.loc 1 661 105 view .LVU153
 776 011e 83F00203 		eor	r3, r3, #2
 777              		.loc 1 661 6 view .LVU154
 778 0122 9C42     		cmp	r4, r3
 779 0124 3BDD     		ble	.L38
 780              	.L29:
 662:Core/Src/freertos.c ****   {
 663:Core/Src/freertos.c ****     currentPage = InfoPage;
 664:Core/Src/freertos.c ****     vTaskResume(myDisplayHandle);
 665:Core/Src/freertos.c ****   }
 666:Core/Src/freertos.c ****   
 667:Core/Src/freertos.c **** }
 781              		.loc 1 667 1 view .LVU155
 782 0126 05B0     		add	sp, sp, #20
 783              	.LCFI10:
 784              		.cfi_remember_state
ARM GAS  C:\Users\Vento\AppData\Local\Temp\cc4kJFdO.s 			page 27


 785              		.cfi_def_cfa_offset 20
 786              		@ sp needed
 787 0128 F0BD     		pop	{r4, r5, r6, r7, pc}
 788              	.L31:
 789              	.LCFI11:
 790              		.cfi_restore_state
 630:Core/Src/freertos.c ****       ILI9341_FillCircle(Channel_1.pos_x, Channel_1.pos_y, Channel_1.shape_r, ILI9341_RED);
 791              		.loc 1 630 7 is_stmt 1 view .LVU156
 630:Core/Src/freertos.c ****       ILI9341_FillCircle(Channel_1.pos_x, Channel_1.pos_y, Channel_1.shape_r, ILI9341_RED);
 792              		.loc 1 630 23 is_stmt 0 view .LVU157
 793 012a 214F     		ldr	r7, .L39
 794 012c 0026     		movs	r6, #0
 795 012e 3E73     		strb	r6, [r7, #12]
 631:Core/Src/freertos.c ****       ILI9341_WriteString(Channel_1.pos_x-15, Channel_1.pos_y-5, "OFF", Font_11x18, ILI9341_BLACK, 
 796              		.loc 1 631 7 is_stmt 1 view .LVU158
 797 0130 4FF47843 		mov	r3, #63488
 798 0134 FFF7FEFF 		bl	ILI9341_FillCircle
 799              	.LVL37:
 632:Core/Src/freertos.c ****     }
 800              		.loc 1 632 7 view .LVU159
 632:Core/Src/freertos.c ****     }
 801              		.loc 1 632 36 is_stmt 0 view .LVU160
 802 0138 3888     		ldrh	r0, [r7]
 632:Core/Src/freertos.c ****     }
 803              		.loc 1 632 56 view .LVU161
 804 013a 7988     		ldrh	r1, [r7, #2]
 632:Core/Src/freertos.c ****     }
 805              		.loc 1 632 7 view .LVU162
 806 013c 1D4B     		ldr	r3, .L39+4
 807 013e 0539     		subs	r1, r1, #5
 808 0140 0F38     		subs	r0, r0, #15
 809 0142 4FF47842 		mov	r2, #63488
 810 0146 0292     		str	r2, [sp, #8]
 811 0148 0196     		str	r6, [sp, #4]
 812 014a 5A68     		ldr	r2, [r3, #4]
 813 014c 0092     		str	r2, [sp]
 814 014e 1B68     		ldr	r3, [r3]
 815 0150 1D4A     		ldr	r2, .L39+24
 816 0152 89B2     		uxth	r1, r1
 817 0154 80B2     		uxth	r0, r0
 818 0156 FFF7FEFF 		bl	ILI9341_WriteString
 819              	.LVL38:
 820 015a 87E7     		b	.L30
 821              	.L33:
 646:Core/Src/freertos.c ****       ILI9341_FillCircle(Channel_2.pos_x, Channel_2.pos_y, Channel_2.shape_r, ILI9341_RED);
 822              		.loc 1 646 7 is_stmt 1 view .LVU163
 646:Core/Src/freertos.c ****       ILI9341_FillCircle(Channel_2.pos_x, Channel_2.pos_y, Channel_2.shape_r, ILI9341_RED);
 823              		.loc 1 646 23 is_stmt 0 view .LVU164
 824 015c 174F     		ldr	r7, .L39+12
 825 015e 0026     		movs	r6, #0
 826 0160 3E73     		strb	r6, [r7, #12]
 647:Core/Src/freertos.c ****       ILI9341_WriteString(Channel_2.pos_x-15, Channel_2.pos_y-5, "OFF", Font_11x18, ILI9341_BLACK, 
 827              		.loc 1 647 7 is_stmt 1 view .LVU165
 828 0162 4FF47843 		mov	r3, #63488
 829 0166 FFF7FEFF 		bl	ILI9341_FillCircle
 830              	.LVL39:
 648:Core/Src/freertos.c ****     }
ARM GAS  C:\Users\Vento\AppData\Local\Temp\cc4kJFdO.s 			page 28


 831              		.loc 1 648 7 view .LVU166
 648:Core/Src/freertos.c ****     }
 832              		.loc 1 648 36 is_stmt 0 view .LVU167
 833 016a 3888     		ldrh	r0, [r7]
 648:Core/Src/freertos.c ****     }
 834              		.loc 1 648 56 view .LVU168
 835 016c 7988     		ldrh	r1, [r7, #2]
 648:Core/Src/freertos.c ****     }
 836              		.loc 1 648 7 view .LVU169
 837 016e 114B     		ldr	r3, .L39+4
 838 0170 0539     		subs	r1, r1, #5
 839 0172 0F38     		subs	r0, r0, #15
 840 0174 4FF47842 		mov	r2, #63488
 841 0178 0292     		str	r2, [sp, #8]
 842 017a 0196     		str	r6, [sp, #4]
 843 017c 5A68     		ldr	r2, [r3, #4]
 844 017e 0092     		str	r2, [sp]
 845 0180 1B68     		ldr	r3, [r3]
 846 0182 114A     		ldr	r2, .L39+24
 847 0184 89B2     		uxth	r1, r1
 848 0186 80B2     		uxth	r0, r0
 849 0188 FFF7FEFF 		bl	ILI9341_WriteString
 850              	.LVL40:
 851 018c A0E7     		b	.L32
 852              	.L37:
 657:Core/Src/freertos.c ****     vTaskResume(myDisplayHandle);
 853              		.loc 1 657 5 is_stmt 1 view .LVU170
 657:Core/Src/freertos.c ****     vTaskResume(myDisplayHandle);
 854              		.loc 1 657 17 is_stmt 0 view .LVU171
 855 018e 0F4B     		ldr	r3, .L39+28
 856 0190 0122     		movs	r2, #1
 857 0192 1A70     		strb	r2, [r3]
 658:Core/Src/freertos.c ****   }
 858              		.loc 1 658 5 is_stmt 1 view .LVU172
 859 0194 0E4B     		ldr	r3, .L39+32
 860 0196 1868     		ldr	r0, [r3]
 861 0198 FFF7FEFF 		bl	vTaskResume
 862              	.LVL41:
 863 019c AEE7     		b	.L34
 864              	.L38:
 663:Core/Src/freertos.c ****     vTaskResume(myDisplayHandle);
 865              		.loc 1 663 5 view .LVU173
 663:Core/Src/freertos.c ****     vTaskResume(myDisplayHandle);
 866              		.loc 1 663 17 is_stmt 0 view .LVU174
 867 019e 0B4B     		ldr	r3, .L39+28
 868 01a0 0222     		movs	r2, #2
 869 01a2 1A70     		strb	r2, [r3]
 664:Core/Src/freertos.c ****   }
 870              		.loc 1 664 5 is_stmt 1 view .LVU175
 871 01a4 0A4B     		ldr	r3, .L39+32
 872 01a6 1868     		ldr	r0, [r3]
 873 01a8 FFF7FEFF 		bl	vTaskResume
 874              	.LVL42:
 875              		.loc 1 667 1 is_stmt 0 view .LVU176
 876 01ac BBE7     		b	.L29
 877              	.L40:
 878 01ae 00BF     		.align	2
ARM GAS  C:\Users\Vento\AppData\Local\Temp\cc4kJFdO.s 			page 29


 879              	.L39:
 880 01b0 00000000 		.word	.LANCHOR13
 881 01b4 00000000 		.word	Font_11x18
 882 01b8 18000000 		.word	.LC2
 883 01bc 00000000 		.word	.LANCHOR14
 884 01c0 00000000 		.word	.LANCHOR15
 885 01c4 00000000 		.word	.LANCHOR16
 886 01c8 1C000000 		.word	.LC3
 887 01cc 00000000 		.word	.LANCHOR17
 888 01d0 00000000 		.word	.LANCHOR8
 889              		.cfi_endproc
 890              	.LFE79:
 892              		.section	.text.InfoPageHandler,"ax",%progbits
 893              		.align	1
 894              		.global	InfoPageHandler
 895              		.syntax unified
 896              		.thumb
 897              		.thumb_func
 898              		.fpu softvfp
 900              	InfoPageHandler:
 901              	.LVL43:
 902              	.LFB81:
 668:Core/Src/freertos.c **** 
 669:Core/Src/freertos.c **** void SettingPageHandler(uint16_t x, uint16_t y)
 670:Core/Src/freertos.c **** {
 671:Core/Src/freertos.c ****   if ((x <= (Control_Setting.pos_y + (Control_Setting.shape_h/2))) && 
 672:Core/Src/freertos.c ****       (x >= (Control_Setting.pos_y - (Control_Setting.shape_h/2))) && 
 673:Core/Src/freertos.c ****       (y <= (Control_Setting.pos_x + (Control_Setting.shape_w/2))) && 
 674:Core/Src/freertos.c ****       (y >= (Control_Setting.pos_x - (Control_Setting.shape_w/2))))
 675:Core/Src/freertos.c ****   {
 676:Core/Src/freertos.c ****     currentPage = ControlPage;
 677:Core/Src/freertos.c ****     vTaskResume(myDisplayHandle);
 678:Core/Src/freertos.c ****   }
 679:Core/Src/freertos.c **** 
 680:Core/Src/freertos.c ****   if ((x >= 70) && (x <= 90) && (y >= 20) && (y <= 300))
 681:Core/Src/freertos.c ****   {
 682:Core/Src/freertos.c ****     char temp[4];
 683:Core/Src/freertos.c ****     Channel01.PWM_percent = (y - 20) * 100 / 280;
 684:Core/Src/freertos.c ****     intToStr(Channel01.PWM_percent, temp, 3);
 685:Core/Src/freertos.c ****     ILI9341_WriteString(109, 40, temp, Font_11x18, ILI9341_WHITE, ILI9341_BLACK);
 686:Core/Src/freertos.c ****     ILI9341_FillRectangle(22, 72, 277, 17, ILI9341_BLACK);
 687:Core/Src/freertos.c ****     ILI9341_FillRectangle(22, 72, 278*((double)Channel01.PWM_percent/100) - 1, 17, ILI9341_GREEN);
 688:Core/Src/freertos.c ****   }
 689:Core/Src/freertos.c **** 
 690:Core/Src/freertos.c ****   if ((x >= 160) && (x <= 180) && (y >= 20) && (y <= 300))
 691:Core/Src/freertos.c ****   {
 692:Core/Src/freertos.c ****     char temp[4];
 693:Core/Src/freertos.c ****     Channel02.PWM_percent = (y - 20) * 100 / 280;
 694:Core/Src/freertos.c ****     intToStr(Channel02.PWM_percent, temp, 3);
 695:Core/Src/freertos.c ****     ILI9341_WriteString(109, 130, temp, Font_11x18, ILI9341_WHITE, ILI9341_BLACK);
 696:Core/Src/freertos.c ****     ILI9341_FillRectangle(22, 162, 277, 17, ILI9341_BLACK);
 697:Core/Src/freertos.c ****     ILI9341_FillRectangle(22, 162, 278*((double)Channel02.PWM_percent/100) - 1, 17, ILI9341_GREEN);
 698:Core/Src/freertos.c ****   }
 699:Core/Src/freertos.c **** }
 700:Core/Src/freertos.c **** 
 701:Core/Src/freertos.c **** void InfoPageHandler(uint16_t x, uint16_t y)
 702:Core/Src/freertos.c **** {
ARM GAS  C:\Users\Vento\AppData\Local\Temp\cc4kJFdO.s 			page 30


 903              		.loc 1 702 1 is_stmt 1 view -0
 904              		.cfi_startproc
 905              		@ args = 0, pretend = 0, frame = 0
 906              		@ frame_needed = 0, uses_anonymous_args = 0
 907              		.loc 1 702 1 is_stmt 0 view .LVU178
 908 0000 08B5     		push	{r3, lr}
 909              	.LCFI12:
 910              		.cfi_def_cfa_offset 8
 911              		.cfi_offset 3, -8
 912              		.cfi_offset 14, -4
 703:Core/Src/freertos.c ****   if ((((ABS(y - Info_Control.pos_x))^2) + ((ABS(x - Info_Control.pos_y))^2)) <= ((Info_Control.sha
 913              		.loc 1 703 3 is_stmt 1 view .LVU179
 914              		.loc 1 703 10 is_stmt 0 view .LVU180
 915 0002 0F4B     		ldr	r3, .L45
 916 0004 1A88     		ldrh	r2, [r3]
 917 0006 891A     		subs	r1, r1, r2
 918              	.LVL44:
 919              		.loc 1 703 10 view .LVU181
 920 0008 0029     		cmp	r1, #0
 921 000a B8BF     		it	lt
 922 000c 4942     		rsblt	r1, r1, #0
 923              		.loc 1 703 38 view .LVU182
 924 000e 81F00201 		eor	r1, r1, #2
 925              		.loc 1 703 46 view .LVU183
 926 0012 5A88     		ldrh	r2, [r3, #2]
 927 0014 801A     		subs	r0, r0, r2
 928              	.LVL45:
 929              		.loc 1 703 46 view .LVU184
 930 0016 0028     		cmp	r0, #0
 931 0018 B8BF     		it	lt
 932 001a 4042     		rsblt	r0, r0, #0
 933              		.loc 1 703 74 view .LVU185
 934 001c 80F00200 		eor	r0, r0, #2
 935              		.loc 1 703 42 view .LVU186
 936 0020 0144     		add	r1, r1, r0
 937              		.loc 1 703 96 view .LVU187
 938 0022 9B88     		ldrh	r3, [r3, #4]
 939              		.loc 1 703 105 view .LVU188
 940 0024 83F00203 		eor	r3, r3, #2
 941              		.loc 1 703 6 view .LVU189
 942 0028 9942     		cmp	r1, r3
 943 002a 00DD     		ble	.L44
 944              	.L41:
 704:Core/Src/freertos.c ****   {
 705:Core/Src/freertos.c ****     currentPage = ControlPage;
 706:Core/Src/freertos.c ****     vTaskResume(myDisplayHandle);
 707:Core/Src/freertos.c ****   }
 708:Core/Src/freertos.c **** }
 945              		.loc 1 708 1 view .LVU190
 946 002c 08BD     		pop	{r3, pc}
 947              	.L44:
 705:Core/Src/freertos.c ****     vTaskResume(myDisplayHandle);
 948              		.loc 1 705 5 is_stmt 1 view .LVU191
 705:Core/Src/freertos.c ****     vTaskResume(myDisplayHandle);
 949              		.loc 1 705 17 is_stmt 0 view .LVU192
 950 002e 054B     		ldr	r3, .L45+4
 951 0030 0022     		movs	r2, #0
ARM GAS  C:\Users\Vento\AppData\Local\Temp\cc4kJFdO.s 			page 31


 952 0032 1A70     		strb	r2, [r3]
 706:Core/Src/freertos.c ****   }
 953              		.loc 1 706 5 is_stmt 1 view .LVU193
 954 0034 044B     		ldr	r3, .L45+8
 955 0036 1868     		ldr	r0, [r3]
 956 0038 FFF7FEFF 		bl	vTaskResume
 957              	.LVL46:
 958              		.loc 1 708 1 is_stmt 0 view .LVU194
 959 003c F6E7     		b	.L41
 960              	.L46:
 961 003e 00BF     		.align	2
 962              	.L45:
 963 0040 00000000 		.word	.LANCHOR18
 964 0044 00000000 		.word	.LANCHOR17
 965 0048 00000000 		.word	.LANCHOR8
 966              		.cfi_endproc
 967              	.LFE81:
 969              		.section	.text.reverse,"ax",%progbits
 970              		.align	1
 971              		.global	reverse
 972              		.syntax unified
 973              		.thumb
 974              		.thumb_func
 975              		.fpu softvfp
 977              	reverse:
 978              	.LVL47:
 979              	.LFB82:
 709:Core/Src/freertos.c **** 
 710:Core/Src/freertos.c **** 
 711:Core/Src/freertos.c **** void reverse(char* str, int len)
 712:Core/Src/freertos.c **** {
 980              		.loc 1 712 1 is_stmt 1 view -0
 981              		.cfi_startproc
 982              		@ args = 0, pretend = 0, frame = 0
 983              		@ frame_needed = 0, uses_anonymous_args = 0
 984              		@ link register save eliminated.
 713:Core/Src/freertos.c ****     int i = 0, j = len - 1, temp;
 985              		.loc 1 713 5 view .LVU196
 986              		.loc 1 713 16 is_stmt 0 view .LVU197
 987 0000 0139     		subs	r1, r1, #1
 988              	.LVL48:
 714:Core/Src/freertos.c ****     while (i < j)
 989              		.loc 1 714 5 is_stmt 1 view .LVU198
 713:Core/Src/freertos.c ****     int i = 0, j = len - 1, temp;
 990              		.loc 1 713 9 is_stmt 0 view .LVU199
 991 0002 0023     		movs	r3, #0
 992              		.loc 1 714 11 view .LVU200
 993 0004 07E0     		b	.L48
 994              	.LVL49:
 995              	.L49:
 715:Core/Src/freertos.c ****     {
 716:Core/Src/freertos.c ****         temp = str[i];
 996              		.loc 1 716 9 is_stmt 1 view .LVU201
 997              		.loc 1 716 19 is_stmt 0 view .LVU202
 998 0006 C25C     		ldrb	r2, [r0, r3]	@ zero_extendqisi2
 999              	.LVL50:
 717:Core/Src/freertos.c ****         str[i] = str[j];
ARM GAS  C:\Users\Vento\AppData\Local\Temp\cc4kJFdO.s 			page 32


 1000              		.loc 1 717 9 is_stmt 1 view .LVU203
 1001              		.loc 1 717 21 is_stmt 0 view .LVU204
 1002 0008 10F801C0 		ldrb	ip, [r0, r1]	@ zero_extendqisi2
 1003              		.loc 1 717 16 view .LVU205
 1004 000c 00F803C0 		strb	ip, [r0, r3]
 718:Core/Src/freertos.c ****         str[j] = temp;
 1005              		.loc 1 718 9 is_stmt 1 view .LVU206
 1006              		.loc 1 718 16 is_stmt 0 view .LVU207
 1007 0010 4254     		strb	r2, [r0, r1]
 719:Core/Src/freertos.c ****         i++;
 1008              		.loc 1 719 9 is_stmt 1 view .LVU208
 1009              		.loc 1 719 10 is_stmt 0 view .LVU209
 1010 0012 0133     		adds	r3, r3, #1
 1011              	.LVL51:
 720:Core/Src/freertos.c ****         j--;
 1012              		.loc 1 720 9 is_stmt 1 view .LVU210
 1013              		.loc 1 720 10 is_stmt 0 view .LVU211
 1014 0014 0139     		subs	r1, r1, #1
 1015              	.LVL52:
 1016              	.L48:
 714:Core/Src/freertos.c ****     {
 1017              		.loc 1 714 11 is_stmt 1 view .LVU212
 1018 0016 8B42     		cmp	r3, r1
 1019 0018 F5DB     		blt	.L49
 721:Core/Src/freertos.c ****     }
 722:Core/Src/freertos.c **** }
 1020              		.loc 1 722 1 is_stmt 0 view .LVU213
 1021 001a 7047     		bx	lr
 1022              		.cfi_endproc
 1023              	.LFE82:
 1025              		.section	.text.intToStr,"ax",%progbits
 1026              		.align	1
 1027              		.global	intToStr
 1028              		.syntax unified
 1029              		.thumb
 1030              		.thumb_func
 1031              		.fpu softvfp
 1033              	intToStr:
 1034              	.LVL53:
 1035              	.LFB83:
 723:Core/Src/freertos.c **** 
 724:Core/Src/freertos.c **** // Converts a given integer x to string str[]. 
 725:Core/Src/freertos.c **** // d is the number of digits required in the output. 
 726:Core/Src/freertos.c **** // If d is more than the number of digits in x, 
 727:Core/Src/freertos.c **** // then 0s are added at the beginning.
 728:Core/Src/freertos.c **** int intToStr(uint8_t x, char str[], int d)
 729:Core/Src/freertos.c **** {
 1036              		.loc 1 729 1 is_stmt 1 view -0
 1037              		.cfi_startproc
 1038              		@ args = 0, pretend = 0, frame = 0
 1039              		@ frame_needed = 0, uses_anonymous_args = 0
 1040              		.loc 1 729 1 is_stmt 0 view .LVU215
 1041 0000 38B5     		push	{r3, r4, r5, lr}
 1042              	.LCFI13:
 1043              		.cfi_def_cfa_offset 16
 1044              		.cfi_offset 3, -16
 1045              		.cfi_offset 4, -12
ARM GAS  C:\Users\Vento\AppData\Local\Temp\cc4kJFdO.s 			page 33


 1046              		.cfi_offset 5, -8
 1047              		.cfi_offset 14, -4
 1048 0002 0D46     		mov	r5, r1
 730:Core/Src/freertos.c ****     int i = 0;
 1049              		.loc 1 730 5 is_stmt 1 view .LVU216
 1050              	.LVL54:
 731:Core/Src/freertos.c ****     if (x == 0)
 1051              		.loc 1 731 5 view .LVU217
 1052              		.loc 1 731 8 is_stmt 0 view .LVU218
 1053 0004 18B9     		cbnz	r0, .L56
 732:Core/Src/freertos.c ****     {
 733:Core/Src/freertos.c ****       str[i++] = '0';
 1054              		.loc 1 733 7 is_stmt 1 view .LVU219
 1055              	.LVL55:
 1056              		.loc 1 733 16 is_stmt 0 view .LVU220
 1057 0006 3023     		movs	r3, #48
 1058 0008 0B70     		strb	r3, [r1]
 1059              		.loc 1 733 12 view .LVU221
 1060 000a 0124     		movs	r4, #1
 1061 000c 12E0     		b	.L52
 1062              	.LVL56:
 1063              	.L56:
 1064              		.loc 1 733 12 view .LVU222
 1065 000e 0346     		mov	r3, r0
 730:Core/Src/freertos.c ****     if (x == 0)
 1066              		.loc 1 730 9 view .LVU223
 1067 0010 0024     		movs	r4, #0
 1068              	.LVL57:
 1069              	.L51:
 734:Core/Src/freertos.c ****     }
 735:Core/Src/freertos.c ****     else
 736:Core/Src/freertos.c ****     {
 737:Core/Src/freertos.c ****       while (x)
 1070              		.loc 1 737 13 is_stmt 1 view .LVU224
 1071 0012 7BB1     		cbz	r3, .L52
 738:Core/Src/freertos.c ****       {
 739:Core/Src/freertos.c ****         str[i++] = (x % 10) + '0';
 1072              		.loc 1 739 9 view .LVU225
 1073              	.LVL58:
 1074              		.loc 1 739 29 is_stmt 0 view .LVU226
 1075 0014 0C48     		ldr	r0, .L58
 1076 0016 A0FB0310 		umull	r1, r0, r0, r3
 1077 001a C008     		lsrs	r0, r0, #3
 1078 001c 00EB8001 		add	r1, r0, r0, lsl #2
 1079 0020 A3EB4103 		sub	r3, r3, r1, lsl #1
 1080              	.LVL59:
 1081              		.loc 1 739 29 view .LVU227
 1082 0024 3033     		adds	r3, r3, #48
 1083              		.loc 1 739 18 view .LVU228
 1084 0026 2B55     		strb	r3, [r5, r4]
 740:Core/Src/freertos.c ****         x = x / 10;
 1085              		.loc 1 740 9 is_stmt 1 view .LVU229
 1086              		.loc 1 740 11 is_stmt 0 view .LVU230
 1087 0028 C3B2     		uxtb	r3, r0
 1088              	.LVL60:
 739:Core/Src/freertos.c ****         x = x / 10;
 1089              		.loc 1 739 14 view .LVU231
ARM GAS  C:\Users\Vento\AppData\Local\Temp\cc4kJFdO.s 			page 34


 1090 002a 0134     		adds	r4, r4, #1
 1091              	.LVL61:
 739:Core/Src/freertos.c ****         x = x / 10;
 1092              		.loc 1 739 14 view .LVU232
 1093 002c F1E7     		b	.L51
 1094              	.LVL62:
 1095              	.L55:
 741:Core/Src/freertos.c ****       } 
 742:Core/Src/freertos.c ****     }
 743:Core/Src/freertos.c ****     // If number of digits required is more, then
 744:Core/Src/freertos.c ****     // add 0s at the beginning
 745:Core/Src/freertos.c ****     while (i < d)
 746:Core/Src/freertos.c ****         str[i++] = ' ';
 1096              		.loc 1 746 9 is_stmt 1 view .LVU233
 1097              		.loc 1 746 18 is_stmt 0 view .LVU234
 1098 002e 2023     		movs	r3, #32
 1099 0030 2B55     		strb	r3, [r5, r4]
 1100              		.loc 1 746 14 view .LVU235
 1101 0032 0134     		adds	r4, r4, #1
 1102              	.LVL63:
 1103              	.L52:
 745:Core/Src/freertos.c ****         str[i++] = ' ';
 1104              		.loc 1 745 11 is_stmt 1 view .LVU236
 1105 0034 9442     		cmp	r4, r2
 1106 0036 FADB     		blt	.L55
 747:Core/Src/freertos.c **** 
 748:Core/Src/freertos.c ****     reverse(str, i);
 1107              		.loc 1 748 5 view .LVU237
 1108 0038 2146     		mov	r1, r4
 1109 003a 2846     		mov	r0, r5
 1110 003c FFF7FEFF 		bl	reverse
 1111              	.LVL64:
 749:Core/Src/freertos.c ****     str[i] = '\0';
 1112              		.loc 1 749 5 view .LVU238
 1113              		.loc 1 749 12 is_stmt 0 view .LVU239
 1114 0040 0023     		movs	r3, #0
 1115 0042 2B55     		strb	r3, [r5, r4]
 750:Core/Src/freertos.c ****     return i;
 1116              		.loc 1 750 5 is_stmt 1 view .LVU240
 751:Core/Src/freertos.c **** }
 1117              		.loc 1 751 1 is_stmt 0 view .LVU241
 1118 0044 2046     		mov	r0, r4
 1119 0046 38BD     		pop	{r3, r4, r5, pc}
 1120              	.LVL65:
 1121              	.L59:
 1122              		.loc 1 751 1 view .LVU242
 1123              		.align	2
 1124              	.L58:
 1125 0048 CDCCCCCC 		.word	-858993459
 1126              		.cfi_endproc
 1127              	.LFE83:
 1129              		.section	.rodata.SettingPageDisplay.str1.4,"aMS",%progbits,1
 1130              		.align	2
 1131              	.LC6:
 1132 0000 4C657665 		.ascii	"Level: \000"
 1132      6C3A2000 
 1133              		.global	__aeabi_ui2d
ARM GAS  C:\Users\Vento\AppData\Local\Temp\cc4kJFdO.s 			page 35


 1134              		.global	__aeabi_ddiv
 1135              		.global	__aeabi_dmul
 1136              		.global	__aeabi_dsub
 1137              		.global	__aeabi_d2uiz
 1138              		.align	2
 1139              	.LC7:
 1140 0008 434F4E54 		.ascii	"CONTROL\000"
 1140      524F4C00 
 1141              		.section	.text.SettingPageDisplay,"ax",%progbits
 1142              		.align	1
 1143              		.global	SettingPageDisplay
 1144              		.syntax unified
 1145              		.thumb
 1146              		.thumb_func
 1147              		.fpu softvfp
 1149              	SettingPageDisplay:
 1150              	.LFB77:
 486:Core/Src/freertos.c ****   ILI9341_FillScreen(ILI9341_BLACK);
 1151              		.loc 1 486 1 is_stmt 1 view -0
 1152              		.cfi_startproc
 1153              		@ args = 0, pretend = 0, frame = 8
 1154              		@ frame_needed = 0, uses_anonymous_args = 0
 1155 0000 2DE9F041 		push	{r4, r5, r6, r7, r8, lr}
 1156              	.LCFI14:
 1157              		.cfi_def_cfa_offset 24
 1158              		.cfi_offset 4, -24
 1159              		.cfi_offset 5, -20
 1160              		.cfi_offset 6, -16
 1161              		.cfi_offset 7, -12
 1162              		.cfi_offset 8, -8
 1163              		.cfi_offset 14, -4
 1164 0004 86B0     		sub	sp, sp, #24
 1165              	.LCFI15:
 1166              		.cfi_def_cfa_offset 48
 487:Core/Src/freertos.c **** 
 1167              		.loc 1 487 3 view .LVU244
 1168 0006 0020     		movs	r0, #0
 1169 0008 FFF7FEFF 		bl	ILI9341_FillScreen
 1170              	.LVL66:
 489:Core/Src/freertos.c **** 
 1171              		.loc 1 489 3 view .LVU245
 491:Core/Src/freertos.c **** 
 1172              		.loc 1 491 3 view .LVU246
 1173 000c 604C     		ldr	r4, .L62+8
 1174 000e 0026     		movs	r6, #0
 1175 0010 0296     		str	r6, [sp, #8]
 1176 0012 4FF6FF75 		movw	r5, #65535
 1177 0016 0195     		str	r5, [sp, #4]
 1178 0018 6368     		ldr	r3, [r4, #4]
 1179 001a 0093     		str	r3, [sp]
 1180 001c 2368     		ldr	r3, [r4]
 1181 001e 5D4A     		ldr	r2, .L62+12
 1182 0020 0F21     		movs	r1, #15
 1183 0022 6E20     		movs	r0, #110
 1184 0024 FFF7FEFF 		bl	ILI9341_WriteString
 1185              	.LVL67:
 493:Core/Src/freertos.c ****   intToStr(Channel01.PWM_percent, temp, 3);
ARM GAS  C:\Users\Vento\AppData\Local\Temp\cc4kJFdO.s 			page 36


 1186              		.loc 1 493 3 view .LVU247
 1187 0028 DFF86C81 		ldr	r8, .L62+16
 1188 002c 0296     		str	r6, [sp, #8]
 1189 002e 0195     		str	r5, [sp, #4]
 1190 0030 6368     		ldr	r3, [r4, #4]
 1191 0032 0093     		str	r3, [sp]
 1192 0034 2368     		ldr	r3, [r4]
 1193 0036 4246     		mov	r2, r8
 1194 0038 2821     		movs	r1, #40
 1195 003a 0A20     		movs	r0, #10
 1196 003c FFF7FEFF 		bl	ILI9341_WriteString
 1197              	.LVL68:
 494:Core/Src/freertos.c ****   ILI9341_WriteString(109, 40, temp, Font_11x18, ILI9341_WHITE, ILI9341_BLACK);
 1198              		.loc 1 494 3 view .LVU248
 1199 0040 564F     		ldr	r7, .L62+20
 1200 0042 0322     		movs	r2, #3
 1201 0044 05A9     		add	r1, sp, #20
 1202 0046 3878     		ldrb	r0, [r7]	@ zero_extendqisi2
 1203 0048 FFF7FEFF 		bl	intToStr
 1204              	.LVL69:
 495:Core/Src/freertos.c **** 
 1205              		.loc 1 495 3 view .LVU249
 1206 004c 0296     		str	r6, [sp, #8]
 1207 004e 0195     		str	r5, [sp, #4]
 1208 0050 6368     		ldr	r3, [r4, #4]
 1209 0052 0093     		str	r3, [sp]
 1210 0054 2368     		ldr	r3, [r4]
 1211 0056 05AA     		add	r2, sp, #20
 1212 0058 2821     		movs	r1, #40
 1213 005a 6D20     		movs	r0, #109
 1214 005c FFF7FEFF 		bl	ILI9341_WriteString
 1215              	.LVL70:
 497:Core/Src/freertos.c ****   ILI9341_FillRectangle(22, 72, 278*((double)Channel01.PWM_percent/100) - 1, 17, ILI9341_GREEN);
 1216              		.loc 1 497 3 view .LVU250
 1217 0060 0095     		str	r5, [sp]
 1218 0062 1423     		movs	r3, #20
 1219 0064 4FF48C72 		mov	r2, #280
 1220 0068 4621     		movs	r1, #70
 1221 006a 1846     		mov	r0, r3
 1222 006c FFF7FEFF 		bl	ILI9341_DrawRectangle
 1223              	.LVL71:
 498:Core/Src/freertos.c **** 
 1224              		.loc 1 498 3 view .LVU251
 498:Core/Src/freertos.c **** 
 1225              		.loc 1 498 38 is_stmt 0 view .LVU252
 1226 0070 3878     		ldrb	r0, [r7]	@ zero_extendqisi2
 1227 0072 FFF7FEFF 		bl	__aeabi_ui2d
 1228              	.LVL72:
 498:Core/Src/freertos.c **** 
 1229              		.loc 1 498 67 view .LVU253
 1230 0076 0022     		movs	r2, #0
 1231 0078 494B     		ldr	r3, .L62+24
 1232 007a FFF7FEFF 		bl	__aeabi_ddiv
 1233              	.LVL73:
 498:Core/Src/freertos.c **** 
 1234              		.loc 1 498 36 view .LVU254
 1235 007e 42A3     		adr	r3, .L62
ARM GAS  C:\Users\Vento\AppData\Local\Temp\cc4kJFdO.s 			page 37


 1236 0080 D3E90023 		ldrd	r2, [r3]
 1237 0084 FFF7FEFF 		bl	__aeabi_dmul
 1238              	.LVL74:
 498:Core/Src/freertos.c **** 
 1239              		.loc 1 498 73 view .LVU255
 1240 0088 0022     		movs	r2, #0
 1241 008a 464B     		ldr	r3, .L62+28
 1242 008c FFF7FEFF 		bl	__aeabi_dsub
 1243              	.LVL75:
 498:Core/Src/freertos.c **** 
 1244              		.loc 1 498 3 view .LVU256
 1245 0090 FFF7FEFF 		bl	__aeabi_d2uiz
 1246              	.LVL76:
 1247 0094 4FF4FC67 		mov	r7, #2016
 1248 0098 0097     		str	r7, [sp]
 1249 009a 1123     		movs	r3, #17
 1250 009c 82B2     		uxth	r2, r0
 1251 009e 4821     		movs	r1, #72
 1252 00a0 1620     		movs	r0, #22
 1253 00a2 FFF7FEFF 		bl	ILI9341_FillRectangle
 1254              	.LVL77:
 500:Core/Src/freertos.c **** 
 1255              		.loc 1 500 3 is_stmt 1 view .LVU257
 1256 00a6 0296     		str	r6, [sp, #8]
 1257 00a8 0195     		str	r5, [sp, #4]
 1258 00aa 6368     		ldr	r3, [r4, #4]
 1259 00ac 0093     		str	r3, [sp]
 1260 00ae 2368     		ldr	r3, [r4]
 1261 00b0 3D4A     		ldr	r2, .L62+32
 1262 00b2 6921     		movs	r1, #105
 1263 00b4 6E20     		movs	r0, #110
 1264 00b6 FFF7FEFF 		bl	ILI9341_WriteString
 1265              	.LVL78:
 502:Core/Src/freertos.c ****   intToStr(Channel02.PWM_percent, temp, 3);
 1266              		.loc 1 502 3 view .LVU258
 1267 00ba 0296     		str	r6, [sp, #8]
 1268 00bc 0195     		str	r5, [sp, #4]
 1269 00be 6368     		ldr	r3, [r4, #4]
 1270 00c0 0093     		str	r3, [sp]
 1271 00c2 2368     		ldr	r3, [r4]
 1272 00c4 4246     		mov	r2, r8
 1273 00c6 8221     		movs	r1, #130
 1274 00c8 0A20     		movs	r0, #10
 1275 00ca FFF7FEFF 		bl	ILI9341_WriteString
 1276              	.LVL79:
 503:Core/Src/freertos.c ****   ILI9341_WriteString(109, 130, temp, Font_11x18, ILI9341_WHITE, ILI9341_BLACK);
 1277              		.loc 1 503 3 view .LVU259
 1278 00ce DFF8DC80 		ldr	r8, .L62+36
 1279 00d2 0322     		movs	r2, #3
 1280 00d4 05A9     		add	r1, sp, #20
 1281 00d6 98F80000 		ldrb	r0, [r8]	@ zero_extendqisi2
 1282 00da FFF7FEFF 		bl	intToStr
 1283              	.LVL80:
 504:Core/Src/freertos.c **** 
 1284              		.loc 1 504 3 view .LVU260
 1285 00de 0296     		str	r6, [sp, #8]
 1286 00e0 0195     		str	r5, [sp, #4]
ARM GAS  C:\Users\Vento\AppData\Local\Temp\cc4kJFdO.s 			page 38


 1287 00e2 6368     		ldr	r3, [r4, #4]
 1288 00e4 0093     		str	r3, [sp]
 1289 00e6 2368     		ldr	r3, [r4]
 1290 00e8 05AA     		add	r2, sp, #20
 1291 00ea 8221     		movs	r1, #130
 1292 00ec 6D20     		movs	r0, #109
 1293 00ee FFF7FEFF 		bl	ILI9341_WriteString
 1294              	.LVL81:
 506:Core/Src/freertos.c ****   ILI9341_FillRectangle(22, 162, 278*((double)Channel02.PWM_percent/100) - 1, 17, ILI9341_GREEN);
 1295              		.loc 1 506 3 view .LVU261
 1296 00f2 0095     		str	r5, [sp]
 1297 00f4 1423     		movs	r3, #20
 1298 00f6 4FF48C72 		mov	r2, #280
 1299 00fa A021     		movs	r1, #160
 1300 00fc 1846     		mov	r0, r3
 1301 00fe FFF7FEFF 		bl	ILI9341_DrawRectangle
 1302              	.LVL82:
 507:Core/Src/freertos.c **** 
 1303              		.loc 1 507 3 view .LVU262
 507:Core/Src/freertos.c **** 
 1304              		.loc 1 507 39 is_stmt 0 view .LVU263
 1305 0102 98F80000 		ldrb	r0, [r8]	@ zero_extendqisi2
 1306 0106 FFF7FEFF 		bl	__aeabi_ui2d
 1307              	.LVL83:
 507:Core/Src/freertos.c **** 
 1308              		.loc 1 507 68 view .LVU264
 1309 010a 0022     		movs	r2, #0
 1310 010c 244B     		ldr	r3, .L62+24
 1311 010e FFF7FEFF 		bl	__aeabi_ddiv
 1312              	.LVL84:
 507:Core/Src/freertos.c **** 
 1313              		.loc 1 507 37 view .LVU265
 1314 0112 1DA3     		adr	r3, .L62
 1315 0114 D3E90023 		ldrd	r2, [r3]
 1316 0118 FFF7FEFF 		bl	__aeabi_dmul
 1317              	.LVL85:
 507:Core/Src/freertos.c **** 
 1318              		.loc 1 507 74 view .LVU266
 1319 011c 0022     		movs	r2, #0
 1320 011e 214B     		ldr	r3, .L62+28
 1321 0120 FFF7FEFF 		bl	__aeabi_dsub
 1322              	.LVL86:
 507:Core/Src/freertos.c **** 
 1323              		.loc 1 507 3 view .LVU267
 1324 0124 FFF7FEFF 		bl	__aeabi_d2uiz
 1325              	.LVL87:
 1326 0128 0097     		str	r7, [sp]
 1327 012a 1123     		movs	r3, #17
 1328 012c 82B2     		uxth	r2, r0
 1329 012e A221     		movs	r1, #162
 1330 0130 1620     		movs	r0, #22
 1331 0132 FFF7FEFF 		bl	ILI9341_FillRectangle
 1332              	.LVL88:
 510:Core/Src/freertos.c ****                         Control_Setting.pos_y - (Control_Setting.shape_h/2), 
 1333              		.loc 1 510 3 is_stmt 1 view .LVU268
 510:Core/Src/freertos.c ****                         Control_Setting.pos_y - (Control_Setting.shape_h/2), 
 1334              		.loc 1 510 40 is_stmt 0 view .LVU269
ARM GAS  C:\Users\Vento\AppData\Local\Temp\cc4kJFdO.s 			page 39


 1335 0136 1E4D     		ldr	r5, .L62+40
 1336 0138 2888     		ldrh	r0, [r5]
 510:Core/Src/freertos.c ****                         Control_Setting.pos_y - (Control_Setting.shape_h/2), 
 1337              		.loc 1 510 65 view .LVU270
 1338 013a EA88     		ldrh	r2, [r5, #6]
 511:Core/Src/freertos.c ****                         Control_Setting.shape_w, 
 1339              		.loc 1 511 40 view .LVU271
 1340 013c 6988     		ldrh	r1, [r5, #2]
 511:Core/Src/freertos.c ****                         Control_Setting.shape_w, 
 1341              		.loc 1 511 65 view .LVU272
 1342 013e 2B89     		ldrh	r3, [r5, #8]
 510:Core/Src/freertos.c ****                         Control_Setting.pos_y - (Control_Setting.shape_h/2), 
 1343              		.loc 1 510 3 view .LVU273
 1344 0140 A1EB5301 		sub	r1, r1, r3, lsr #1
 1345 0144 A0EB5200 		sub	r0, r0, r2, lsr #1
 1346 0148 6F89     		ldrh	r7, [r5, #10]
 1347 014a 0097     		str	r7, [sp]
 1348 014c 89B2     		uxth	r1, r1
 1349 014e 80B2     		uxth	r0, r0
 1350 0150 FFF7FEFF 		bl	ILI9341_FillRectangle
 1351              	.LVL89:
 515:Core/Src/freertos.c ****                       Control_Setting.pos_y - (Control_Setting.shape_h/2) + 7, 
 1352              		.loc 1 515 3 is_stmt 1 view .LVU274
 515:Core/Src/freertos.c ****                       Control_Setting.pos_y - (Control_Setting.shape_h/2) + 7, 
 1353              		.loc 1 515 38 is_stmt 0 view .LVU275
 1354 0154 2888     		ldrh	r0, [r5]
 515:Core/Src/freertos.c ****                       Control_Setting.pos_y - (Control_Setting.shape_h/2) + 7, 
 1355              		.loc 1 515 63 view .LVU276
 1356 0156 EB88     		ldrh	r3, [r5, #6]
 515:Core/Src/freertos.c ****                       Control_Setting.pos_y - (Control_Setting.shape_h/2) + 7, 
 1357              		.loc 1 515 45 view .LVU277
 1358 0158 A0EB5300 		sub	r0, r0, r3, lsr #1
 1359 015c 80B2     		uxth	r0, r0
 516:Core/Src/freertos.c ****                       "CONTROL", 
 1360              		.loc 1 516 38 view .LVU278
 1361 015e 6988     		ldrh	r1, [r5, #2]
 516:Core/Src/freertos.c ****                       "CONTROL", 
 1362              		.loc 1 516 63 view .LVU279
 1363 0160 2B89     		ldrh	r3, [r5, #8]
 516:Core/Src/freertos.c ****                       "CONTROL", 
 1364              		.loc 1 516 45 view .LVU280
 1365 0162 A1EB5301 		sub	r1, r1, r3, lsr #1
 1366 0166 89B2     		uxth	r1, r1
 515:Core/Src/freertos.c ****                       Control_Setting.pos_y - (Control_Setting.shape_h/2) + 7, 
 1367              		.loc 1 515 3 view .LVU281
 1368 0168 0731     		adds	r1, r1, #7
 1369 016a 0C30     		adds	r0, r0, #12
 1370 016c 6B89     		ldrh	r3, [r5, #10]
 1371 016e 0293     		str	r3, [sp, #8]
 1372 0170 0196     		str	r6, [sp, #4]
 1373 0172 6368     		ldr	r3, [r4, #4]
 1374 0174 0093     		str	r3, [sp]
 1375 0176 2368     		ldr	r3, [r4]
 1376 0178 0E4A     		ldr	r2, .L62+44
 1377 017a 89B2     		uxth	r1, r1
 1378 017c 80B2     		uxth	r0, r0
 1379 017e FFF7FEFF 		bl	ILI9341_WriteString
ARM GAS  C:\Users\Vento\AppData\Local\Temp\cc4kJFdO.s 			page 40


 1380              	.LVL90:
 521:Core/Src/freertos.c **** 
 1381              		.loc 1 521 1 view .LVU282
 1382 0182 06B0     		add	sp, sp, #24
 1383              	.LCFI16:
 1384              		.cfi_def_cfa_offset 24
 1385              		@ sp needed
 1386 0184 BDE8F081 		pop	{r4, r5, r6, r7, r8, pc}
 1387              	.L63:
 1388              		.align	3
 1389              	.L62:
 1390 0188 00000000 		.word	0
 1391 018c 00607140 		.word	1081171968
 1392 0190 00000000 		.word	Font_11x18
 1393 0194 00000000 		.word	.LC0
 1394 0198 00000000 		.word	.LC6
 1395 019c 00000000 		.word	.LANCHOR19
 1396 01a0 00005940 		.word	1079574528
 1397 01a4 0000F03F 		.word	1072693248
 1398 01a8 0C000000 		.word	.LC1
 1399 01ac 00000000 		.word	.LANCHOR20
 1400 01b0 00000000 		.word	.LANCHOR15
 1401 01b4 08000000 		.word	.LC7
 1402              		.cfi_endproc
 1403              	.LFE77:
 1405              		.section	.text.SettingPageHandler,"ax",%progbits
 1406              		.align	1
 1407              		.global	SettingPageHandler
 1408              		.syntax unified
 1409              		.thumb
 1410              		.thumb_func
 1411              		.fpu softvfp
 1413              	SettingPageHandler:
 1414              	.LVL91:
 1415              	.LFB80:
 670:Core/Src/freertos.c ****   if ((x <= (Control_Setting.pos_y + (Control_Setting.shape_h/2))) && 
 1416              		.loc 1 670 1 is_stmt 1 view -0
 1417              		.cfi_startproc
 1418              		@ args = 0, pretend = 0, frame = 8
 1419              		@ frame_needed = 0, uses_anonymous_args = 0
 670:Core/Src/freertos.c ****   if ((x <= (Control_Setting.pos_y + (Control_Setting.shape_h/2))) && 
 1420              		.loc 1 670 1 is_stmt 0 view .LVU284
 1421 0000 F0B5     		push	{r4, r5, r6, r7, lr}
 1422              	.LCFI17:
 1423              		.cfi_def_cfa_offset 20
 1424              		.cfi_offset 4, -20
 1425              		.cfi_offset 5, -16
 1426              		.cfi_offset 6, -12
 1427              		.cfi_offset 7, -8
 1428              		.cfi_offset 14, -4
 1429 0002 87B0     		sub	sp, sp, #28
 1430              	.LCFI18:
 1431              		.cfi_def_cfa_offset 48
 1432 0004 0446     		mov	r4, r0
 1433 0006 0D46     		mov	r5, r1
 671:Core/Src/freertos.c ****       (x >= (Control_Setting.pos_y - (Control_Setting.shape_h/2))) && 
 1434              		.loc 1 671 3 is_stmt 1 view .LVU285
ARM GAS  C:\Users\Vento\AppData\Local\Temp\cc4kJFdO.s 			page 41


 671:Core/Src/freertos.c ****       (x >= (Control_Setting.pos_y - (Control_Setting.shape_h/2))) && 
 1435              		.loc 1 671 29 is_stmt 0 view .LVU286
 1436 0008 5F4B     		ldr	r3, .L72+8
 1437 000a 5A88     		ldrh	r2, [r3, #2]
 671:Core/Src/freertos.c ****       (x >= (Control_Setting.pos_y - (Control_Setting.shape_h/2))) && 
 1438              		.loc 1 671 54 view .LVU287
 1439 000c 1B89     		ldrh	r3, [r3, #8]
 671:Core/Src/freertos.c ****       (x >= (Control_Setting.pos_y - (Control_Setting.shape_h/2))) && 
 1440              		.loc 1 671 62 view .LVU288
 1441 000e 5908     		lsrs	r1, r3, #1
 1442              	.LVL92:
 671:Core/Src/freertos.c ****       (x >= (Control_Setting.pos_y - (Control_Setting.shape_h/2))) && 
 1443              		.loc 1 671 36 view .LVU289
 1444 0010 02EB5303 		add	r3, r2, r3, lsr #1
 671:Core/Src/freertos.c ****       (x >= (Control_Setting.pos_y - (Control_Setting.shape_h/2))) && 
 1445              		.loc 1 671 6 view .LVU290
 1446 0014 9842     		cmp	r0, r3
 1447 0016 0DDC     		bgt	.L65
 672:Core/Src/freertos.c ****       (y <= (Control_Setting.pos_x + (Control_Setting.shape_w/2))) && 
 1448              		.loc 1 672 36 discriminator 1 view .LVU291
 1449 0018 521A     		subs	r2, r2, r1
 671:Core/Src/freertos.c ****       (x >= (Control_Setting.pos_y - (Control_Setting.shape_h/2))) && 
 1450              		.loc 1 671 68 discriminator 1 view .LVU292
 1451 001a 9042     		cmp	r0, r2
 1452 001c 0ADB     		blt	.L65
 673:Core/Src/freertos.c ****       (y >= (Control_Setting.pos_x - (Control_Setting.shape_w/2))))
 1453              		.loc 1 673 29 view .LVU293
 1454 001e 5A4B     		ldr	r3, .L72+8
 1455 0020 1A88     		ldrh	r2, [r3]
 673:Core/Src/freertos.c ****       (y >= (Control_Setting.pos_x - (Control_Setting.shape_w/2))))
 1456              		.loc 1 673 54 view .LVU294
 1457 0022 DB88     		ldrh	r3, [r3, #6]
 673:Core/Src/freertos.c ****       (y >= (Control_Setting.pos_x - (Control_Setting.shape_w/2))))
 1458              		.loc 1 673 62 view .LVU295
 1459 0024 5908     		lsrs	r1, r3, #1
 673:Core/Src/freertos.c ****       (y >= (Control_Setting.pos_x - (Control_Setting.shape_w/2))))
 1460              		.loc 1 673 36 view .LVU296
 1461 0026 02EB5303 		add	r3, r2, r3, lsr #1
 672:Core/Src/freertos.c ****       (y <= (Control_Setting.pos_x + (Control_Setting.shape_w/2))) && 
 1462              		.loc 1 672 68 view .LVU297
 1463 002a 9D42     		cmp	r5, r3
 1464 002c 02DC     		bgt	.L65
 674:Core/Src/freertos.c ****   {
 1465              		.loc 1 674 36 view .LVU298
 1466 002e 521A     		subs	r2, r2, r1
 673:Core/Src/freertos.c ****       (y >= (Control_Setting.pos_x - (Control_Setting.shape_w/2))))
 1467              		.loc 1 673 68 view .LVU299
 1468 0030 9542     		cmp	r5, r2
 1469 0032 14DA     		bge	.L69
 1470              	.LVL93:
 1471              	.L65:
 680:Core/Src/freertos.c ****   {
 1472              		.loc 1 680 3 is_stmt 1 view .LVU300
 680:Core/Src/freertos.c ****   {
 1473              		.loc 1 680 17 is_stmt 0 view .LVU301
 1474 0034 A4F14603 		sub	r3, r4, #70
 1475 0038 9BB2     		uxth	r3, r3
ARM GAS  C:\Users\Vento\AppData\Local\Temp\cc4kJFdO.s 			page 42


 680:Core/Src/freertos.c ****   {
 1476              		.loc 1 680 6 view .LVU302
 1477 003a 142B     		cmp	r3, #20
 1478 003c 04D8     		bhi	.L66
 680:Core/Src/freertos.c ****   {
 1479              		.loc 1 680 30 discriminator 1 view .LVU303
 1480 003e 132D     		cmp	r5, #19
 1481 0040 02D9     		bls	.L66
 680:Core/Src/freertos.c ****   {
 1482              		.loc 1 680 43 discriminator 2 view .LVU304
 1483 0042 B5F5967F 		cmp	r5, #300
 1484 0046 12D9     		bls	.L70
 1485              	.L66:
 690:Core/Src/freertos.c ****   {
 1486              		.loc 1 690 3 is_stmt 1 view .LVU305
 690:Core/Src/freertos.c ****   {
 1487              		.loc 1 690 18 is_stmt 0 view .LVU306
 1488 0048 A03C     		subs	r4, r4, #160
 1489 004a A4B2     		uxth	r4, r4
 690:Core/Src/freertos.c ****   {
 1490              		.loc 1 690 6 view .LVU307
 1491 004c 142C     		cmp	r4, #20
 1492 004e 04D8     		bhi	.L64
 690:Core/Src/freertos.c ****   {
 1493              		.loc 1 690 32 discriminator 1 view .LVU308
 1494 0050 132D     		cmp	r5, #19
 1495 0052 02D9     		bls	.L64
 690:Core/Src/freertos.c ****   {
 1496              		.loc 1 690 45 discriminator 2 view .LVU309
 1497 0054 B5F5967F 		cmp	r5, #300
 1498 0058 4ED9     		bls	.L71
 1499              	.L64:
 699:Core/Src/freertos.c **** 
 1500              		.loc 1 699 1 view .LVU310
 1501 005a 07B0     		add	sp, sp, #28
 1502              	.LCFI19:
 1503              		.cfi_remember_state
 1504              		.cfi_def_cfa_offset 20
 1505              		@ sp needed
 1506 005c F0BD     		pop	{r4, r5, r6, r7, pc}
 1507              	.LVL94:
 1508              	.L69:
 1509              	.LCFI20:
 1510              		.cfi_restore_state
 676:Core/Src/freertos.c ****     vTaskResume(myDisplayHandle);
 1511              		.loc 1 676 5 is_stmt 1 view .LVU311
 676:Core/Src/freertos.c ****     vTaskResume(myDisplayHandle);
 1512              		.loc 1 676 17 is_stmt 0 view .LVU312
 1513 005e 4B4B     		ldr	r3, .L72+12
 1514 0060 0022     		movs	r2, #0
 1515 0062 1A70     		strb	r2, [r3]
 677:Core/Src/freertos.c ****   }
 1516              		.loc 1 677 5 is_stmt 1 view .LVU313
 1517 0064 4A4B     		ldr	r3, .L72+16
 1518 0066 1868     		ldr	r0, [r3]
 1519              	.LVL95:
 677:Core/Src/freertos.c ****   }
ARM GAS  C:\Users\Vento\AppData\Local\Temp\cc4kJFdO.s 			page 43


 1520              		.loc 1 677 5 is_stmt 0 view .LVU314
 1521 0068 FFF7FEFF 		bl	vTaskResume
 1522              	.LVL96:
 1523 006c E2E7     		b	.L65
 1524              	.L70:
 1525              	.LBB2:
 682:Core/Src/freertos.c ****     Channel01.PWM_percent = (y - 20) * 100 / 280;
 1526              		.loc 1 682 5 is_stmt 1 view .LVU315
 683:Core/Src/freertos.c ****     intToStr(Channel01.PWM_percent, temp, 3);
 1527              		.loc 1 683 5 view .LVU316
 683:Core/Src/freertos.c ****     intToStr(Channel01.PWM_percent, temp, 3);
 1528              		.loc 1 683 32 is_stmt 0 view .LVU317
 1529 006e A5F11403 		sub	r3, r5, #20
 683:Core/Src/freertos.c ****     intToStr(Channel01.PWM_percent, temp, 3);
 1530              		.loc 1 683 38 view .LVU318
 1531 0072 6422     		movs	r2, #100
 1532 0074 02FB03F3 		mul	r3, r2, r3
 683:Core/Src/freertos.c ****     intToStr(Channel01.PWM_percent, temp, 3);
 1533              		.loc 1 683 44 view .LVU319
 1534 0078 4648     		ldr	r0, .L72+20
 1535 007a 80FB0320 		smull	r2, r0, r0, r3
 1536 007e C218     		adds	r2, r0, r3
 1537 0080 D817     		asrs	r0, r3, #31
 1538 0082 C0EB2220 		rsb	r0, r0, r2, asr #8
 683:Core/Src/freertos.c ****     intToStr(Channel01.PWM_percent, temp, 3);
 1539              		.loc 1 683 27 view .LVU320
 1540 0086 C0B2     		uxtb	r0, r0
 1541 0088 434E     		ldr	r6, .L72+24
 1542 008a 3070     		strb	r0, [r6]
 684:Core/Src/freertos.c ****     ILI9341_WriteString(109, 40, temp, Font_11x18, ILI9341_WHITE, ILI9341_BLACK);
 1543              		.loc 1 684 5 is_stmt 1 view .LVU321
 1544 008c 0322     		movs	r2, #3
 1545 008e 05A9     		add	r1, sp, #20
 1546 0090 FFF7FEFF 		bl	intToStr
 1547              	.LVL97:
 685:Core/Src/freertos.c ****     ILI9341_FillRectangle(22, 72, 277, 17, ILI9341_BLACK);
 1548              		.loc 1 685 5 view .LVU322
 1549 0094 414B     		ldr	r3, .L72+28
 1550 0096 0027     		movs	r7, #0
 1551 0098 0297     		str	r7, [sp, #8]
 1552 009a 4FF6FF72 		movw	r2, #65535
 1553 009e 0192     		str	r2, [sp, #4]
 1554 00a0 5A68     		ldr	r2, [r3, #4]
 1555 00a2 0092     		str	r2, [sp]
 1556 00a4 1B68     		ldr	r3, [r3]
 1557 00a6 05AA     		add	r2, sp, #20
 1558 00a8 2821     		movs	r1, #40
 1559 00aa 6D20     		movs	r0, #109
 1560 00ac FFF7FEFF 		bl	ILI9341_WriteString
 1561              	.LVL98:
 686:Core/Src/freertos.c ****     ILI9341_FillRectangle(22, 72, 278*((double)Channel01.PWM_percent/100) - 1, 17, ILI9341_GREEN);
 1562              		.loc 1 686 5 view .LVU323
 1563 00b0 0097     		str	r7, [sp]
 1564 00b2 1123     		movs	r3, #17
 1565 00b4 40F21512 		movw	r2, #277
 1566 00b8 4821     		movs	r1, #72
 1567 00ba 1620     		movs	r0, #22
ARM GAS  C:\Users\Vento\AppData\Local\Temp\cc4kJFdO.s 			page 44


 1568 00bc FFF7FEFF 		bl	ILI9341_FillRectangle
 1569              	.LVL99:
 687:Core/Src/freertos.c ****   }
 1570              		.loc 1 687 5 view .LVU324
 687:Core/Src/freertos.c ****   }
 1571              		.loc 1 687 40 is_stmt 0 view .LVU325
 1572 00c0 3078     		ldrb	r0, [r6]	@ zero_extendqisi2
 1573 00c2 FFF7FEFF 		bl	__aeabi_ui2d
 1574              	.LVL100:
 687:Core/Src/freertos.c ****   }
 1575              		.loc 1 687 69 view .LVU326
 1576 00c6 0022     		movs	r2, #0
 1577 00c8 354B     		ldr	r3, .L72+32
 1578 00ca FFF7FEFF 		bl	__aeabi_ddiv
 1579              	.LVL101:
 687:Core/Src/freertos.c ****   }
 1580              		.loc 1 687 38 view .LVU327
 1581 00ce 2CA3     		adr	r3, .L72
 1582 00d0 D3E90023 		ldrd	r2, [r3]
 1583 00d4 FFF7FEFF 		bl	__aeabi_dmul
 1584              	.LVL102:
 687:Core/Src/freertos.c ****   }
 1585              		.loc 1 687 75 view .LVU328
 1586 00d8 0022     		movs	r2, #0
 1587 00da 324B     		ldr	r3, .L72+36
 1588 00dc FFF7FEFF 		bl	__aeabi_dsub
 1589              	.LVL103:
 687:Core/Src/freertos.c ****   }
 1590              		.loc 1 687 5 view .LVU329
 1591 00e0 FFF7FEFF 		bl	__aeabi_d2uiz
 1592              	.LVL104:
 1593 00e4 4FF4FC63 		mov	r3, #2016
 1594 00e8 0093     		str	r3, [sp]
 1595 00ea 1123     		movs	r3, #17
 1596 00ec 82B2     		uxth	r2, r0
 1597 00ee 4821     		movs	r1, #72
 1598 00f0 1620     		movs	r0, #22
 1599 00f2 FFF7FEFF 		bl	ILI9341_FillRectangle
 1600              	.LVL105:
 1601 00f6 A7E7     		b	.L66
 1602              	.L71:
 1603              	.LBE2:
 1604              	.LBB3:
 692:Core/Src/freertos.c ****     Channel02.PWM_percent = (y - 20) * 100 / 280;
 1605              		.loc 1 692 5 is_stmt 1 view .LVU330
 693:Core/Src/freertos.c ****     intToStr(Channel02.PWM_percent, temp, 3);
 1606              		.loc 1 693 5 view .LVU331
 693:Core/Src/freertos.c ****     intToStr(Channel02.PWM_percent, temp, 3);
 1607              		.loc 1 693 32 is_stmt 0 view .LVU332
 1608 00f8 143D     		subs	r5, r5, #20
 693:Core/Src/freertos.c ****     intToStr(Channel02.PWM_percent, temp, 3);
 1609              		.loc 1 693 38 view .LVU333
 1610 00fa 6423     		movs	r3, #100
 1611 00fc 03FB05F5 		mul	r5, r3, r5
 693:Core/Src/freertos.c ****     intToStr(Channel02.PWM_percent, temp, 3);
 1612              		.loc 1 693 44 view .LVU334
 1613 0100 2448     		ldr	r0, .L72+20
ARM GAS  C:\Users\Vento\AppData\Local\Temp\cc4kJFdO.s 			page 45


 1614 0102 80FB0530 		smull	r3, r0, r0, r5
 1615 0106 4319     		adds	r3, r0, r5
 1616 0108 E817     		asrs	r0, r5, #31
 1617 010a C0EB2320 		rsb	r0, r0, r3, asr #8
 693:Core/Src/freertos.c ****     intToStr(Channel02.PWM_percent, temp, 3);
 1618              		.loc 1 693 27 view .LVU335
 1619 010e C0B2     		uxtb	r0, r0
 1620 0110 254C     		ldr	r4, .L72+40
 1621 0112 2070     		strb	r0, [r4]
 694:Core/Src/freertos.c ****     ILI9341_WriteString(109, 130, temp, Font_11x18, ILI9341_WHITE, ILI9341_BLACK);
 1622              		.loc 1 694 5 is_stmt 1 view .LVU336
 1623 0114 0322     		movs	r2, #3
 1624 0116 05A9     		add	r1, sp, #20
 1625 0118 FFF7FEFF 		bl	intToStr
 1626              	.LVL106:
 695:Core/Src/freertos.c ****     ILI9341_FillRectangle(22, 162, 277, 17, ILI9341_BLACK);
 1627              		.loc 1 695 5 view .LVU337
 1628 011c 1F4B     		ldr	r3, .L72+28
 1629 011e 0025     		movs	r5, #0
 1630 0120 0295     		str	r5, [sp, #8]
 1631 0122 4FF6FF72 		movw	r2, #65535
 1632 0126 0192     		str	r2, [sp, #4]
 1633 0128 5A68     		ldr	r2, [r3, #4]
 1634 012a 0092     		str	r2, [sp]
 1635 012c 1B68     		ldr	r3, [r3]
 1636 012e 05AA     		add	r2, sp, #20
 1637 0130 8221     		movs	r1, #130
 1638 0132 6D20     		movs	r0, #109
 1639 0134 FFF7FEFF 		bl	ILI9341_WriteString
 1640              	.LVL107:
 696:Core/Src/freertos.c ****     ILI9341_FillRectangle(22, 162, 278*((double)Channel02.PWM_percent/100) - 1, 17, ILI9341_GREEN);
 1641              		.loc 1 696 5 view .LVU338
 1642 0138 0095     		str	r5, [sp]
 1643 013a 1123     		movs	r3, #17
 1644 013c 40F21512 		movw	r2, #277
 1645 0140 A221     		movs	r1, #162
 1646 0142 1620     		movs	r0, #22
 1647 0144 FFF7FEFF 		bl	ILI9341_FillRectangle
 1648              	.LVL108:
 697:Core/Src/freertos.c ****   }
 1649              		.loc 1 697 5 view .LVU339
 697:Core/Src/freertos.c ****   }
 1650              		.loc 1 697 41 is_stmt 0 view .LVU340
 1651 0148 2078     		ldrb	r0, [r4]	@ zero_extendqisi2
 1652 014a FFF7FEFF 		bl	__aeabi_ui2d
 1653              	.LVL109:
 697:Core/Src/freertos.c ****   }
 1654              		.loc 1 697 70 view .LVU341
 1655 014e 0022     		movs	r2, #0
 1656 0150 134B     		ldr	r3, .L72+32
 1657 0152 FFF7FEFF 		bl	__aeabi_ddiv
 1658              	.LVL110:
 697:Core/Src/freertos.c ****   }
 1659              		.loc 1 697 39 view .LVU342
 1660 0156 0AA3     		adr	r3, .L72
 1661 0158 D3E90023 		ldrd	r2, [r3]
 1662 015c FFF7FEFF 		bl	__aeabi_dmul
ARM GAS  C:\Users\Vento\AppData\Local\Temp\cc4kJFdO.s 			page 46


 1663              	.LVL111:
 697:Core/Src/freertos.c ****   }
 1664              		.loc 1 697 76 view .LVU343
 1665 0160 0022     		movs	r2, #0
 1666 0162 104B     		ldr	r3, .L72+36
 1667 0164 FFF7FEFF 		bl	__aeabi_dsub
 1668              	.LVL112:
 697:Core/Src/freertos.c ****   }
 1669              		.loc 1 697 5 view .LVU344
 1670 0168 FFF7FEFF 		bl	__aeabi_d2uiz
 1671              	.LVL113:
 1672 016c 4FF4FC63 		mov	r3, #2016
 1673 0170 0093     		str	r3, [sp]
 1674 0172 1123     		movs	r3, #17
 1675 0174 82B2     		uxth	r2, r0
 1676 0176 A221     		movs	r1, #162
 1677 0178 1620     		movs	r0, #22
 1678 017a FFF7FEFF 		bl	ILI9341_FillRectangle
 1679              	.LVL114:
 1680              	.LBE3:
 699:Core/Src/freertos.c **** 
 1681              		.loc 1 699 1 view .LVU345
 1682 017e 6CE7     		b	.L64
 1683              	.L73:
 1684              		.align	3
 1685              	.L72:
 1686 0180 00000000 		.word	0
 1687 0184 00607140 		.word	1081171968
 1688 0188 00000000 		.word	.LANCHOR15
 1689 018c 00000000 		.word	.LANCHOR17
 1690 0190 00000000 		.word	.LANCHOR8
 1691 0194 EBA00EEA 		.word	-368140053
 1692 0198 00000000 		.word	.LANCHOR19
 1693 019c 00000000 		.word	Font_11x18
 1694 01a0 00005940 		.word	1079574528
 1695 01a4 0000F03F 		.word	1072693248
 1696 01a8 00000000 		.word	.LANCHOR20
 1697              		.cfi_endproc
 1698              	.LFE80:
 1700              		.section	.text.IRQ_Task,"ax",%progbits
 1701              		.align	1
 1702              		.global	IRQ_Task
 1703              		.syntax unified
 1704              		.thumb
 1705              		.thumb_func
 1706              		.fpu softvfp
 1708              	IRQ_Task:
 1709              	.LVL115:
 1710              	.LFB72:
 271:Core/Src/freertos.c ****   /* USER CODE BEGIN IRQ_Task */
 1711              		.loc 1 271 1 is_stmt 1 view -0
 1712              		.cfi_startproc
 1713              		@ args = 0, pretend = 0, frame = 8
 1714              		@ frame_needed = 0, uses_anonymous_args = 0
 271:Core/Src/freertos.c ****   /* USER CODE BEGIN IRQ_Task */
 1715              		.loc 1 271 1 is_stmt 0 view .LVU347
 1716 0000 70B5     		push	{r4, r5, r6, lr}
ARM GAS  C:\Users\Vento\AppData\Local\Temp\cc4kJFdO.s 			page 47


 1717              	.LCFI21:
 1718              		.cfi_def_cfa_offset 16
 1719              		.cfi_offset 4, -16
 1720              		.cfi_offset 5, -12
 1721              		.cfi_offset 6, -8
 1722              		.cfi_offset 14, -4
 1723 0002 82B0     		sub	sp, sp, #8
 1724              	.LCFI22:
 1725              		.cfi_def_cfa_offset 24
 273:Core/Src/freertos.c ****   uint32_t currentTick = 0, lastTick = 0;
 1726              		.loc 1 273 3 is_stmt 1 view .LVU348
 274:Core/Src/freertos.c ****   /* Infinite loop */
 1727              		.loc 1 274 3 view .LVU349
 1728              	.LVL116:
 274:Core/Src/freertos.c ****   /* Infinite loop */
 1729              		.loc 1 274 29 is_stmt 0 view .LVU350
 1730 0004 0025     		movs	r5, #0
 1731 0006 0DE0     		b	.L76
 1732              	.LVL117:
 1733              	.L79:
 305:Core/Src/freertos.c ****           {
 1734              		.loc 1 305 11 is_stmt 1 view .LVU351
 1735 0008 374B     		ldr	r3, .L85
 1736 000a 1B78     		ldrb	r3, [r3]	@ zero_extendqisi2
 1737 000c 012B     		cmp	r3, #1
 1738 000e 5CD0     		beq	.L81
 1739 0010 022B     		cmp	r3, #2
 1740 0012 61D0     		beq	.L82
 1741 0014 002B     		cmp	r3, #0
 1742 0016 51D0     		beq	.L84
 1743              	.L80:
 324:Core/Src/freertos.c ****         
 1744              		.loc 1 324 9 view .LVU352
 1745 0018 3449     		ldr	r1, .L85+4
 1746 001a 354B     		ldr	r3, .L85+8
 1747 001c 1868     		ldr	r0, [r3]
 1748 001e FFF7FEFF 		bl	osTimerStart
 1749              	.LVL118:
 285:Core/Src/freertos.c **** 
 1750              		.loc 1 285 18 is_stmt 0 view .LVU353
 1751 0022 2546     		mov	r5, r4
 1752              	.LVL119:
 1753              	.L76:
 276:Core/Src/freertos.c ****   {
 1754              		.loc 1 276 3 is_stmt 1 view .LVU354
 278:Core/Src/freertos.c ****     if (osSemaphoreAcquire(BinarySemHandle, portMAX_DELAY) == osOK)
 1755              		.loc 1 278 5 view .LVU355
 1756 0024 6420     		movs	r0, #100
 1757 0026 FFF7FEFF 		bl	osDelay
 1758              	.LVL120:
 279:Core/Src/freertos.c ****     {
 1759              		.loc 1 279 5 view .LVU356
 279:Core/Src/freertos.c ****     {
 1760              		.loc 1 279 9 is_stmt 0 view .LVU357
 1761 002a 4FF0FF31 		mov	r1, #-1
 1762 002e 314B     		ldr	r3, .L85+12
 1763 0030 1868     		ldr	r0, [r3]
ARM GAS  C:\Users\Vento\AppData\Local\Temp\cc4kJFdO.s 			page 48


 1764 0032 FFF7FEFF 		bl	osSemaphoreAcquire
 1765              	.LVL121:
 279:Core/Src/freertos.c ****     {
 1766              		.loc 1 279 8 view .LVU358
 1767 0036 0028     		cmp	r0, #0
 1768 0038 F4D1     		bne	.L76
 281:Core/Src/freertos.c ****       currentTick = HAL_GetTick();
 1769              		.loc 1 281 7 is_stmt 1 view .LVU359
 1770 003a 6420     		movs	r0, #100
 1771 003c FFF7FEFF 		bl	osDelay
 1772              	.LVL122:
 282:Core/Src/freertos.c ****       if (HAL_GPIO_ReadPin(TOUCH_IRQ_GPIO_Port, TOUCH_IRQ_Pin) == 0 && ((currentTick - lastTick) >=
 1773              		.loc 1 282 7 view .LVU360
 282:Core/Src/freertos.c ****       if (HAL_GPIO_ReadPin(TOUCH_IRQ_GPIO_Port, TOUCH_IRQ_Pin) == 0 && ((currentTick - lastTick) >=
 1774              		.loc 1 282 21 is_stmt 0 view .LVU361
 1775 0040 FFF7FEFF 		bl	HAL_GetTick
 1776              	.LVL123:
 1777 0044 0446     		mov	r4, r0
 1778              	.LVL124:
 283:Core/Src/freertos.c ****       {
 1779              		.loc 1 283 7 is_stmt 1 view .LVU362
 283:Core/Src/freertos.c ****       {
 1780              		.loc 1 283 11 is_stmt 0 view .LVU363
 1781 0046 0821     		movs	r1, #8
 1782 0048 2B48     		ldr	r0, .L85+16
 1783              	.LVL125:
 283:Core/Src/freertos.c ****       {
 1784              		.loc 1 283 11 view .LVU364
 1785 004a FFF7FEFF 		bl	HAL_GPIO_ReadPin
 1786              	.LVL126:
 283:Core/Src/freertos.c ****       {
 1787              		.loc 1 283 10 view .LVU365
 1788 004e 0028     		cmp	r0, #0
 1789 0050 E8D1     		bne	.L76
 283:Core/Src/freertos.c ****       {
 1790              		.loc 1 283 86 discriminator 1 view .LVU366
 1791 0052 631B     		subs	r3, r4, r5
 283:Core/Src/freertos.c ****       {
 1792              		.loc 1 283 69 discriminator 1 view .LVU367
 1793 0054 B3F5FA7F 		cmp	r3, #500
 1794 0058 E4D3     		bcc	.L76
 285:Core/Src/freertos.c **** 
 1795              		.loc 1 285 9 is_stmt 1 view .LVU368
 1796              	.LVL127:
 287:Core/Src/freertos.c ****         hspi2.Init.BaudRatePrescaler = SPI_BAUDRATEPRESCALER_128;
 1797              		.loc 1 287 9 view .LVU369
 1798 005a 284D     		ldr	r5, .L85+20
 1799 005c 2846     		mov	r0, r5
 1800 005e FFF7FEFF 		bl	HAL_SPI_DeInit
 1801              	.LVL128:
 288:Core/Src/freertos.c ****         HAL_SPI_Init(&hspi2);
 1802              		.loc 1 288 9 view .LVU370
 288:Core/Src/freertos.c ****         HAL_SPI_Init(&hspi2);
 1803              		.loc 1 288 38 is_stmt 0 view .LVU371
 1804 0062 3023     		movs	r3, #48
 1805 0064 EB61     		str	r3, [r5, #28]
 289:Core/Src/freertos.c ****         while(ILI9341_TouchGetCoordinates(&x, &y) != true);
ARM GAS  C:\Users\Vento\AppData\Local\Temp\cc4kJFdO.s 			page 49


 1806              		.loc 1 289 9 is_stmt 1 view .LVU372
 1807 0066 2846     		mov	r0, r5
 1808 0068 FFF7FEFF 		bl	HAL_SPI_Init
 1809              	.LVL129:
 290:Core/Src/freertos.c ****         HAL_SPI_DeInit(&hspi2);
 1810              		.loc 1 290 9 view .LVU373
 1811              	.L78:
 290:Core/Src/freertos.c ****         HAL_SPI_DeInit(&hspi2);
 1812              		.loc 1 290 59 discriminator 1 view .LVU374
 290:Core/Src/freertos.c ****         HAL_SPI_DeInit(&hspi2);
 1813              		.loc 1 290 14 discriminator 1 view .LVU375
 290:Core/Src/freertos.c ****         HAL_SPI_DeInit(&hspi2);
 1814              		.loc 1 290 15 is_stmt 0 discriminator 1 view .LVU376
 1815 006c 01A9     		add	r1, sp, #4
 1816 006e 0DF10600 		add	r0, sp, #6
 1817 0072 FFF7FEFF 		bl	ILI9341_TouchGetCoordinates
 1818              	.LVL130:
 290:Core/Src/freertos.c ****         HAL_SPI_DeInit(&hspi2);
 1819              		.loc 1 290 14 discriminator 1 view .LVU377
 1820 0076 0028     		cmp	r0, #0
 1821 0078 F8D0     		beq	.L78
 291:Core/Src/freertos.c ****         hspi2.Init.BaudRatePrescaler = SPI_BAUDRATEPRESCALER_2;
 1822              		.loc 1 291 9 is_stmt 1 view .LVU378
 1823 007a 204E     		ldr	r6, .L85+20
 1824 007c 3046     		mov	r0, r6
 1825 007e FFF7FEFF 		bl	HAL_SPI_DeInit
 1826              	.LVL131:
 292:Core/Src/freertos.c ****         HAL_SPI_Init(&hspi2);
 1827              		.loc 1 292 9 view .LVU379
 292:Core/Src/freertos.c ****         HAL_SPI_Init(&hspi2);
 1828              		.loc 1 292 38 is_stmt 0 view .LVU380
 1829 0082 0025     		movs	r5, #0
 1830 0084 F561     		str	r5, [r6, #28]
 293:Core/Src/freertos.c **** 
 1831              		.loc 1 293 9 is_stmt 1 view .LVU381
 1832 0086 3046     		mov	r0, r6
 1833 0088 FFF7FEFF 		bl	HAL_SPI_Init
 1834              	.LVL132:
 295:Core/Src/freertos.c ****         TimeoutHandle = osTimerNew(LCD_Timeout, osTimerOnce, NULL, &Timeout_attributes);
 1835              		.loc 1 295 9 view .LVU382
 1836 008c 184E     		ldr	r6, .L85+8
 1837 008e 3068     		ldr	r0, [r6]
 1838 0090 FFF7FEFF 		bl	osTimerDelete
 1839              	.LVL133:
 296:Core/Src/freertos.c **** 
 1840              		.loc 1 296 9 view .LVU383
 296:Core/Src/freertos.c **** 
 1841              		.loc 1 296 25 is_stmt 0 view .LVU384
 1842 0094 1A4B     		ldr	r3, .L85+24
 1843 0096 2A46     		mov	r2, r5
 1844 0098 2946     		mov	r1, r5
 1845 009a 1A48     		ldr	r0, .L85+28
 1846 009c FFF7FEFF 		bl	osTimerNew
 1847              	.LVL134:
 296:Core/Src/freertos.c **** 
 1848              		.loc 1 296 23 view .LVU385
 1849 00a0 3060     		str	r0, [r6]
ARM GAS  C:\Users\Vento\AppData\Local\Temp\cc4kJFdO.s 			page 50


 298:Core/Src/freertos.c ****         {
 1850              		.loc 1 298 9 is_stmt 1 view .LVU386
 298:Core/Src/freertos.c ****         {
 1851              		.loc 1 298 25 is_stmt 0 view .LVU387
 1852 00a2 194B     		ldr	r3, .L85+32
 1853 00a4 1B78     		ldrb	r3, [r3]	@ zero_extendqisi2
 298:Core/Src/freertos.c ****         {
 1854              		.loc 1 298 12 view .LVU388
 1855 00a6 002B     		cmp	r3, #0
 1856 00a8 AED1     		bne	.L79
 300:Core/Src/freertos.c ****           HAL_GPIO_WritePin(LCD_LED_GPIO_Port, LCD_LED_Pin, 1);
 1857              		.loc 1 300 11 is_stmt 1 view .LVU389
 300:Core/Src/freertos.c ****           HAL_GPIO_WritePin(LCD_LED_GPIO_Port, LCD_LED_Pin, 1);
 1858              		.loc 1 300 23 is_stmt 0 view .LVU390
 1859 00aa 0122     		movs	r2, #1
 1860 00ac 164B     		ldr	r3, .L85+32
 1861 00ae 1A70     		strb	r2, [r3]
 301:Core/Src/freertos.c ****         }
 1862              		.loc 1 301 11 is_stmt 1 view .LVU391
 1863 00b0 4FF40041 		mov	r1, #32768
 1864 00b4 1548     		ldr	r0, .L85+36
 1865 00b6 FFF7FEFF 		bl	HAL_GPIO_WritePin
 1866              	.LVL135:
 1867 00ba ADE7     		b	.L80
 1868              	.L84:
 308:Core/Src/freertos.c ****               break;
 1869              		.loc 1 308 15 view .LVU392
 1870 00bc BDF80410 		ldrh	r1, [sp, #4]
 1871 00c0 BDF80600 		ldrh	r0, [sp, #6]
 1872 00c4 FFF7FEFF 		bl	ControlPageHandler
 1873              	.LVL136:
 309:Core/Src/freertos.c **** 
 1874              		.loc 1 309 15 view .LVU393
 1875 00c8 A6E7     		b	.L80
 1876              	.L81:
 312:Core/Src/freertos.c ****               break;
 1877              		.loc 1 312 15 view .LVU394
 1878 00ca BDF80410 		ldrh	r1, [sp, #4]
 1879 00ce BDF80600 		ldrh	r0, [sp, #6]
 1880 00d2 FFF7FEFF 		bl	SettingPageHandler
 1881              	.LVL137:
 313:Core/Src/freertos.c **** 
 1882              		.loc 1 313 15 view .LVU395
 1883 00d6 9FE7     		b	.L80
 1884              	.L82:
 316:Core/Src/freertos.c ****               break;
 1885              		.loc 1 316 15 view .LVU396
 1886 00d8 BDF80410 		ldrh	r1, [sp, #4]
 1887 00dc BDF80600 		ldrh	r0, [sp, #6]
 1888 00e0 FFF7FEFF 		bl	InfoPageHandler
 1889              	.LVL138:
 317:Core/Src/freertos.c **** 
 1890              		.loc 1 317 15 view .LVU397
 1891 00e4 98E7     		b	.L80
 1892              	.L86:
 1893 00e6 00BF     		.align	2
 1894              	.L85:
ARM GAS  C:\Users\Vento\AppData\Local\Temp\cc4kJFdO.s 			page 51


 1895 00e8 00000000 		.word	.LANCHOR17
 1896 00ec 20BF0200 		.word	180000
 1897 00f0 00000000 		.word	.LANCHOR6
 1898 00f4 00000000 		.word	.LANCHOR2
 1899 00f8 000C0140 		.word	1073810432
 1900 00fc 00000000 		.word	hspi2
 1901 0100 00000000 		.word	.LANCHOR5
 1902 0104 00000000 		.word	LCD_Timeout
 1903 0108 00000000 		.word	.LANCHOR0
 1904 010c 00080140 		.word	1073809408
 1905              		.cfi_endproc
 1906              	.LFE72:
 1908              		.global	__aeabi_f2iz
 1909              		.global	__aeabi_i2f
 1910              		.global	__aeabi_fsub
 1911              		.global	__aeabi_i2d
 1912              		.global	__aeabi_f2d
 1913              		.global	__aeabi_d2f
 1914              		.section	.text.ftoa,"ax",%progbits
 1915              		.align	1
 1916              		.global	ftoa
 1917              		.syntax unified
 1918              		.thumb
 1919              		.thumb_func
 1920              		.fpu softvfp
 1922              	ftoa:
 1923              	.LVL139:
 1924              	.LFB84:
 752:Core/Src/freertos.c **** 
 753:Core/Src/freertos.c **** // Converts a floating-point/double number to a string.
 754:Core/Src/freertos.c **** void ftoa(float n, char* res, int afterpoint)
 755:Core/Src/freertos.c **** {
 1925              		.loc 1 755 1 view -0
 1926              		.cfi_startproc
 1927              		@ args = 0, pretend = 0, frame = 0
 1928              		@ frame_needed = 0, uses_anonymous_args = 0
 1929              		.loc 1 755 1 is_stmt 0 view .LVU399
 1930 0000 2DE9F843 		push	{r3, r4, r5, r6, r7, r8, r9, lr}
 1931              	.LCFI23:
 1932              		.cfi_def_cfa_offset 32
 1933              		.cfi_offset 3, -32
 1934              		.cfi_offset 4, -28
 1935              		.cfi_offset 5, -24
 1936              		.cfi_offset 6, -20
 1937              		.cfi_offset 7, -16
 1938              		.cfi_offset 8, -12
 1939              		.cfi_offset 9, -8
 1940              		.cfi_offset 14, -4
 1941 0004 0746     		mov	r7, r0
 1942 0006 0C46     		mov	r4, r1
 1943 0008 1546     		mov	r5, r2
 756:Core/Src/freertos.c ****     // Extract integer part
 757:Core/Src/freertos.c ****     int ipart = (int)n;
 1944              		.loc 1 757 5 is_stmt 1 view .LVU400
 1945              		.loc 1 757 9 is_stmt 0 view .LVU401
 1946 000a FFF7FEFF 		bl	__aeabi_f2iz
 1947              	.LVL140:
ARM GAS  C:\Users\Vento\AppData\Local\Temp\cc4kJFdO.s 			page 52


 1948              		.loc 1 757 9 view .LVU402
 1949 000e 0646     		mov	r6, r0
 1950              	.LVL141:
 758:Core/Src/freertos.c ****     // Extract floating part
 759:Core/Src/freertos.c ****     float fpart = n - (float)ipart;
 1951              		.loc 1 759 5 is_stmt 1 view .LVU403
 1952              		.loc 1 759 23 is_stmt 0 view .LVU404
 1953 0010 FFF7FEFF 		bl	__aeabi_i2f
 1954              	.LVL142:
 1955              		.loc 1 759 23 view .LVU405
 1956 0014 0146     		mov	r1, r0
 1957              		.loc 1 759 11 view .LVU406
 1958 0016 3846     		mov	r0, r7
 1959 0018 FFF7FEFF 		bl	__aeabi_fsub
 1960              	.LVL143:
 1961 001c 0746     		mov	r7, r0
 1962              	.LVL144:
 760:Core/Src/freertos.c ****     // convert integer part to string
 761:Core/Src/freertos.c ****     int i = intToStr(ipart, res, 3);
 1963              		.loc 1 761 5 is_stmt 1 view .LVU407
 1964              		.loc 1 761 13 is_stmt 0 view .LVU408
 1965 001e 0322     		movs	r2, #3
 1966 0020 2146     		mov	r1, r4
 1967 0022 F0B2     		uxtb	r0, r6
 1968              	.LVL145:
 1969              		.loc 1 761 13 view .LVU409
 1970 0024 FFF7FEFF 		bl	intToStr
 1971              	.LVL146:
 762:Core/Src/freertos.c ****     // check for display option after point
 763:Core/Src/freertos.c ****     if (afterpoint != 0)
 1972              		.loc 1 763 5 is_stmt 1 view .LVU410
 1973              		.loc 1 763 8 is_stmt 0 view .LVU411
 1974 0028 0DB9     		cbnz	r5, .L90
 1975              	.LVL147:
 1976              	.L87:
 764:Core/Src/freertos.c ****     {
 765:Core/Src/freertos.c ****         res[i] = '.'; // add dot
 766:Core/Src/freertos.c ****         fpart = fpart * pow(10, afterpoint);
 767:Core/Src/freertos.c ****         intToStr((int)fpart, res + i + 1, afterpoint);
 768:Core/Src/freertos.c ****     }
 769:Core/Src/freertos.c **** }
 1977              		.loc 1 769 1 view .LVU412
 1978 002a BDE8F883 		pop	{r3, r4, r5, r6, r7, r8, r9, pc}
 1979              	.LVL148:
 1980              	.L90:
 1981              		.loc 1 769 1 view .LVU413
 1982 002e 0646     		mov	r6, r0
 1983              	.LVL149:
 765:Core/Src/freertos.c ****         fpart = fpart * pow(10, afterpoint);
 1984              		.loc 1 765 9 is_stmt 1 view .LVU414
 765:Core/Src/freertos.c ****         fpart = fpart * pow(10, afterpoint);
 1985              		.loc 1 765 16 is_stmt 0 view .LVU415
 1986 0030 2E23     		movs	r3, #46
 1987 0032 2354     		strb	r3, [r4, r0]
 766:Core/Src/freertos.c ****         intToStr((int)fpart, res + i + 1, afterpoint);
 1988              		.loc 1 766 9 is_stmt 1 view .LVU416
 766:Core/Src/freertos.c ****         intToStr((int)fpart, res + i + 1, afterpoint);
ARM GAS  C:\Users\Vento\AppData\Local\Temp\cc4kJFdO.s 			page 53


 1989              		.loc 1 766 25 is_stmt 0 view .LVU417
 1990 0034 2846     		mov	r0, r5
 1991              	.LVL150:
 766:Core/Src/freertos.c ****         intToStr((int)fpart, res + i + 1, afterpoint);
 1992              		.loc 1 766 25 view .LVU418
 1993 0036 FFF7FEFF 		bl	__aeabi_i2d
 1994              	.LVL151:
 1995 003a 0246     		mov	r2, r0
 1996 003c 0B46     		mov	r3, r1
 1997 003e 0020     		movs	r0, #0
 1998 0040 0B49     		ldr	r1, .L91
 1999 0042 FFF7FEFF 		bl	pow
 2000              	.LVL152:
 2001 0046 8046     		mov	r8, r0
 2002 0048 8946     		mov	r9, r1
 766:Core/Src/freertos.c ****         intToStr((int)fpart, res + i + 1, afterpoint);
 2003              		.loc 1 766 23 view .LVU419
 2004 004a 3846     		mov	r0, r7
 2005 004c FFF7FEFF 		bl	__aeabi_f2d
 2006              	.LVL153:
 2007 0050 4246     		mov	r2, r8
 2008 0052 4B46     		mov	r3, r9
 2009 0054 FFF7FEFF 		bl	__aeabi_dmul
 2010              	.LVL154:
 766:Core/Src/freertos.c ****         intToStr((int)fpart, res + i + 1, afterpoint);
 2011              		.loc 1 766 15 view .LVU420
 2012 0058 FFF7FEFF 		bl	__aeabi_d2f
 2013              	.LVL155:
 767:Core/Src/freertos.c ****     }
 2014              		.loc 1 767 9 is_stmt 1 view .LVU421
 767:Core/Src/freertos.c ****     }
 2015              		.loc 1 767 18 is_stmt 0 view .LVU422
 2016 005c FFF7FEFF 		bl	__aeabi_f2iz
 2017              	.LVL156:
 767:Core/Src/freertos.c ****     }
 2018              		.loc 1 767 38 view .LVU423
 2019 0060 711C     		adds	r1, r6, #1
 767:Core/Src/freertos.c ****     }
 2020              		.loc 1 767 9 view .LVU424
 2021 0062 2A46     		mov	r2, r5
 2022 0064 2144     		add	r1, r1, r4
 2023 0066 C0B2     		uxtb	r0, r0
 2024 0068 FFF7FEFF 		bl	intToStr
 2025              	.LVL157:
 2026              		.loc 1 769 1 view .LVU425
 2027 006c DDE7     		b	.L87
 2028              	.L92:
 2029 006e 00BF     		.align	2
 2030              	.L91:
 2031 0070 00002440 		.word	1076101120
 2032              		.cfi_endproc
 2033              	.LFE84:
 2035              		.section	.text.intToStr0,"ax",%progbits
 2036              		.align	1
 2037              		.global	intToStr0
 2038              		.syntax unified
 2039              		.thumb
ARM GAS  C:\Users\Vento\AppData\Local\Temp\cc4kJFdO.s 			page 54


 2040              		.thumb_func
 2041              		.fpu softvfp
 2043              	intToStr0:
 2044              	.LVL158:
 2045              	.LFB86:
 770:Core/Src/freertos.c **** 
 771:Core/Src/freertos.c **** void intToTime(uint32_t time, char* str)
 772:Core/Src/freertos.c **** {
 773:Core/Src/freertos.c ****   uint8_t hour = time / 3600;
 774:Core/Src/freertos.c ****   uint8_t minute = time / 60 - hour * 60;
 775:Core/Src/freertos.c ****   uint8_t second = time - hour*3600 - minute*60;
 776:Core/Src/freertos.c **** 
 777:Core/Src/freertos.c ****   intToStr0(hour, str, 2);
 778:Core/Src/freertos.c ****   *(str+2) = ':';
 779:Core/Src/freertos.c ****   intToStr0(minute, str + 3, 2);
 780:Core/Src/freertos.c ****   *(str+5) = ':';
 781:Core/Src/freertos.c ****   intToStr0(second, str + 6, 2);
 782:Core/Src/freertos.c **** }
 783:Core/Src/freertos.c **** 
 784:Core/Src/freertos.c **** int intToStr0(uint8_t x, char str[], int d)
 785:Core/Src/freertos.c **** {
 2046              		.loc 1 785 1 is_stmt 1 view -0
 2047              		.cfi_startproc
 2048              		@ args = 0, pretend = 0, frame = 0
 2049              		@ frame_needed = 0, uses_anonymous_args = 0
 2050              		.loc 1 785 1 is_stmt 0 view .LVU427
 2051 0000 38B5     		push	{r3, r4, r5, lr}
 2052              	.LCFI24:
 2053              		.cfi_def_cfa_offset 16
 2054              		.cfi_offset 3, -16
 2055              		.cfi_offset 4, -12
 2056              		.cfi_offset 5, -8
 2057              		.cfi_offset 14, -4
 2058 0002 0D46     		mov	r5, r1
 786:Core/Src/freertos.c ****     int i = 0;
 2059              		.loc 1 786 5 is_stmt 1 view .LVU428
 2060              	.LVL159:
 787:Core/Src/freertos.c ****     if (x == 0)
 2061              		.loc 1 787 5 view .LVU429
 2062              		.loc 1 787 8 is_stmt 0 view .LVU430
 2063 0004 18B9     		cbnz	r0, .L99
 788:Core/Src/freertos.c ****     {
 789:Core/Src/freertos.c ****       str[i++] = '0';
 2064              		.loc 1 789 7 is_stmt 1 view .LVU431
 2065              	.LVL160:
 2066              		.loc 1 789 16 is_stmt 0 view .LVU432
 2067 0006 3023     		movs	r3, #48
 2068 0008 0B70     		strb	r3, [r1]
 2069              		.loc 1 789 12 view .LVU433
 2070 000a 0124     		movs	r4, #1
 2071 000c 12E0     		b	.L95
 2072              	.LVL161:
 2073              	.L99:
 2074              		.loc 1 789 12 view .LVU434
 2075 000e 0346     		mov	r3, r0
 786:Core/Src/freertos.c ****     if (x == 0)
 2076              		.loc 1 786 9 view .LVU435
ARM GAS  C:\Users\Vento\AppData\Local\Temp\cc4kJFdO.s 			page 55


 2077 0010 0024     		movs	r4, #0
 2078              	.LVL162:
 2079              	.L94:
 790:Core/Src/freertos.c ****     }
 791:Core/Src/freertos.c ****     else
 792:Core/Src/freertos.c ****     {
 793:Core/Src/freertos.c ****       while (x)
 2080              		.loc 1 793 13 is_stmt 1 view .LVU436
 2081 0012 7BB1     		cbz	r3, .L95
 794:Core/Src/freertos.c ****       {
 795:Core/Src/freertos.c ****         str[i++] = (x % 10) + '0';
 2082              		.loc 1 795 9 view .LVU437
 2083              	.LVL163:
 2084              		.loc 1 795 29 is_stmt 0 view .LVU438
 2085 0014 0C48     		ldr	r0, .L101
 2086 0016 A0FB0310 		umull	r1, r0, r0, r3
 2087 001a C008     		lsrs	r0, r0, #3
 2088 001c 00EB8001 		add	r1, r0, r0, lsl #2
 2089 0020 A3EB4103 		sub	r3, r3, r1, lsl #1
 2090              	.LVL164:
 2091              		.loc 1 795 29 view .LVU439
 2092 0024 3033     		adds	r3, r3, #48
 2093              		.loc 1 795 18 view .LVU440
 2094 0026 2B55     		strb	r3, [r5, r4]
 796:Core/Src/freertos.c ****         x = x / 10;
 2095              		.loc 1 796 9 is_stmt 1 view .LVU441
 2096              		.loc 1 796 11 is_stmt 0 view .LVU442
 2097 0028 C3B2     		uxtb	r3, r0
 2098              	.LVL165:
 795:Core/Src/freertos.c ****         x = x / 10;
 2099              		.loc 1 795 14 view .LVU443
 2100 002a 0134     		adds	r4, r4, #1
 2101              	.LVL166:
 795:Core/Src/freertos.c ****         x = x / 10;
 2102              		.loc 1 795 14 view .LVU444
 2103 002c F1E7     		b	.L94
 2104              	.LVL167:
 2105              	.L98:
 797:Core/Src/freertos.c ****       } 
 798:Core/Src/freertos.c ****     }
 799:Core/Src/freertos.c ****     // If number of digits required is more, then
 800:Core/Src/freertos.c ****     // add 0s at the beginning
 801:Core/Src/freertos.c ****     while (i < d)
 802:Core/Src/freertos.c ****         str[i++] = '0';
 2106              		.loc 1 802 9 is_stmt 1 view .LVU445
 2107              		.loc 1 802 18 is_stmt 0 view .LVU446
 2108 002e 3023     		movs	r3, #48
 2109 0030 2B55     		strb	r3, [r5, r4]
 2110              		.loc 1 802 14 view .LVU447
 2111 0032 0134     		adds	r4, r4, #1
 2112              	.LVL168:
 2113              	.L95:
 801:Core/Src/freertos.c ****         str[i++] = '0';
 2114              		.loc 1 801 11 is_stmt 1 view .LVU448
 2115 0034 9442     		cmp	r4, r2
 2116 0036 FADB     		blt	.L98
 803:Core/Src/freertos.c **** 
ARM GAS  C:\Users\Vento\AppData\Local\Temp\cc4kJFdO.s 			page 56


 804:Core/Src/freertos.c ****     reverse(str, i);
 2117              		.loc 1 804 5 view .LVU449
 2118 0038 2146     		mov	r1, r4
 2119 003a 2846     		mov	r0, r5
 2120 003c FFF7FEFF 		bl	reverse
 2121              	.LVL169:
 805:Core/Src/freertos.c ****     str[i] = '\0';
 2122              		.loc 1 805 5 view .LVU450
 2123              		.loc 1 805 12 is_stmt 0 view .LVU451
 2124 0040 0023     		movs	r3, #0
 2125 0042 2B55     		strb	r3, [r5, r4]
 806:Core/Src/freertos.c ****     return i;
 2126              		.loc 1 806 5 is_stmt 1 view .LVU452
 807:Core/Src/freertos.c **** }
 2127              		.loc 1 807 1 is_stmt 0 view .LVU453
 2128 0044 2046     		mov	r0, r4
 2129 0046 38BD     		pop	{r3, r4, r5, pc}
 2130              	.LVL170:
 2131              	.L102:
 2132              		.loc 1 807 1 view .LVU454
 2133              		.align	2
 2134              	.L101:
 2135 0048 CDCCCCCC 		.word	-858993459
 2136              		.cfi_endproc
 2137              	.LFE86:
 2139              		.section	.text.intToTime,"ax",%progbits
 2140              		.align	1
 2141              		.global	intToTime
 2142              		.syntax unified
 2143              		.thumb
 2144              		.thumb_func
 2145              		.fpu softvfp
 2147              	intToTime:
 2148              	.LVL171:
 2149              	.LFB85:
 772:Core/Src/freertos.c ****   uint8_t hour = time / 3600;
 2150              		.loc 1 772 1 is_stmt 1 view -0
 2151              		.cfi_startproc
 2152              		@ args = 0, pretend = 0, frame = 0
 2153              		@ frame_needed = 0, uses_anonymous_args = 0
 772:Core/Src/freertos.c ****   uint8_t hour = time / 3600;
 2154              		.loc 1 772 1 is_stmt 0 view .LVU456
 2155 0000 F8B5     		push	{r3, r4, r5, r6, r7, lr}
 2156              	.LCFI25:
 2157              		.cfi_def_cfa_offset 24
 2158              		.cfi_offset 3, -24
 2159              		.cfi_offset 4, -20
 2160              		.cfi_offset 5, -16
 2161              		.cfi_offset 6, -12
 2162              		.cfi_offset 7, -8
 2163              		.cfi_offset 14, -4
 2164 0002 0346     		mov	r3, r0
 2165 0004 0E46     		mov	r6, r1
 773:Core/Src/freertos.c ****   uint8_t minute = time / 60 - hour * 60;
 2166              		.loc 1 773 3 is_stmt 1 view .LVU457
 773:Core/Src/freertos.c ****   uint8_t minute = time / 60 - hour * 60;
 2167              		.loc 1 773 23 is_stmt 0 view .LVU458
ARM GAS  C:\Users\Vento\AppData\Local\Temp\cc4kJFdO.s 			page 57


 2168 0006 1548     		ldr	r0, .L105
 2169              	.LVL172:
 773:Core/Src/freertos.c ****   uint8_t minute = time / 60 - hour * 60;
 2170              		.loc 1 773 23 view .LVU459
 2171 0008 A0FB0320 		umull	r2, r0, r0, r3
 773:Core/Src/freertos.c ****   uint8_t minute = time / 60 - hour * 60;
 2172              		.loc 1 773 11 view .LVU460
 2173 000c C0F3C720 		ubfx	r0, r0, #11, #8
 2174              	.LVL173:
 774:Core/Src/freertos.c ****   uint8_t second = time - hour*3600 - minute*60;
 2175              		.loc 1 774 3 is_stmt 1 view .LVU461
 774:Core/Src/freertos.c ****   uint8_t second = time - hour*3600 - minute*60;
 2176              		.loc 1 774 25 is_stmt 0 view .LVU462
 2177 0010 134D     		ldr	r5, .L105+4
 2178 0012 A5FB0325 		umull	r2, r5, r5, r3
 774:Core/Src/freertos.c ****   uint8_t second = time - hour*3600 - minute*60;
 2179              		.loc 1 774 30 view .LVU463
 2180 0016 C5F34715 		ubfx	r5, r5, #5, #8
 2181 001a C0EB0012 		rsb	r2, r0, r0, lsl #4
 2182 001e 9200     		lsls	r2, r2, #2
 2183 0020 D2B2     		uxtb	r2, r2
 774:Core/Src/freertos.c ****   uint8_t second = time - hour*3600 - minute*60;
 2184              		.loc 1 774 11 view .LVU464
 2185 0022 AD1A     		subs	r5, r5, r2
 2186 0024 EDB2     		uxtb	r5, r5
 2187              	.LVL174:
 775:Core/Src/freertos.c **** 
 2188              		.loc 1 775 3 is_stmt 1 view .LVU465
 775:Core/Src/freertos.c **** 
 2189              		.loc 1 775 25 is_stmt 0 view .LVU466
 2190 0026 A3EB0014 		sub	r4, r3, r0, lsl #4
 2191 002a E4B2     		uxtb	r4, r4
 775:Core/Src/freertos.c **** 
 2192              		.loc 1 775 37 view .LVU467
 2193 002c C5EB0513 		rsb	r3, r5, r5, lsl #4
 2194              	.LVL175:
 775:Core/Src/freertos.c **** 
 2195              		.loc 1 775 37 view .LVU468
 2196 0030 9B00     		lsls	r3, r3, #2
 2197 0032 DBB2     		uxtb	r3, r3
 775:Core/Src/freertos.c **** 
 2198              		.loc 1 775 11 view .LVU469
 2199 0034 E41A     		subs	r4, r4, r3
 2200 0036 E4B2     		uxtb	r4, r4
 2201              	.LVL176:
 777:Core/Src/freertos.c ****   *(str+2) = ':';
 2202              		.loc 1 777 3 is_stmt 1 view .LVU470
 2203 0038 0222     		movs	r2, #2
 2204 003a FFF7FEFF 		bl	intToStr0
 2205              	.LVL177:
 778:Core/Src/freertos.c ****   intToStr0(minute, str + 3, 2);
 2206              		.loc 1 778 3 view .LVU471
 778:Core/Src/freertos.c ****   intToStr0(minute, str + 3, 2);
 2207              		.loc 1 778 12 is_stmt 0 view .LVU472
 2208 003e 3A27     		movs	r7, #58
 2209 0040 B770     		strb	r7, [r6, #2]
 779:Core/Src/freertos.c ****   *(str+5) = ':';
ARM GAS  C:\Users\Vento\AppData\Local\Temp\cc4kJFdO.s 			page 58


 2210              		.loc 1 779 3 is_stmt 1 view .LVU473
 2211 0042 0222     		movs	r2, #2
 2212 0044 F11C     		adds	r1, r6, #3
 2213 0046 2846     		mov	r0, r5
 2214 0048 FFF7FEFF 		bl	intToStr0
 2215              	.LVL178:
 780:Core/Src/freertos.c ****   intToStr0(second, str + 6, 2);
 2216              		.loc 1 780 3 view .LVU474
 780:Core/Src/freertos.c ****   intToStr0(second, str + 6, 2);
 2217              		.loc 1 780 12 is_stmt 0 view .LVU475
 2218 004c 7771     		strb	r7, [r6, #5]
 781:Core/Src/freertos.c **** }
 2219              		.loc 1 781 3 is_stmt 1 view .LVU476
 2220 004e 0222     		movs	r2, #2
 2221 0050 B11D     		adds	r1, r6, #6
 2222 0052 2046     		mov	r0, r4
 2223 0054 FFF7FEFF 		bl	intToStr0
 2224              	.LVL179:
 782:Core/Src/freertos.c **** 
 2225              		.loc 1 782 1 is_stmt 0 view .LVU477
 2226 0058 F8BD     		pop	{r3, r4, r5, r6, r7, pc}
 2227              	.LVL180:
 2228              	.L106:
 782:Core/Src/freertos.c **** 
 2229              		.loc 1 782 1 view .LVU478
 2230 005a 00BF     		.align	2
 2231              	.L105:
 2232 005c C5B3A291 		.word	-1851608123
 2233 0060 89888888 		.word	-2004318071
 2234              		.cfi_endproc
 2235              	.LFE85:
 2237              		.global	__aeabi_dadd
 2238              		.section	.text.LED_Indicator,"ax",%progbits
 2239              		.align	1
 2240              		.global	LED_Indicator
 2241              		.syntax unified
 2242              		.thumb
 2243              		.thumb_func
 2244              		.fpu softvfp
 2246              	LED_Indicator:
 2247              	.LVL181:
 2248              	.LFB73:
 336:Core/Src/freertos.c ****   /* USER CODE BEGIN LED_Indicator */
 2249              		.loc 1 336 1 is_stmt 1 view -0
 2250              		.cfi_startproc
 2251              		@ args = 0, pretend = 0, frame = 16
 2252              		@ frame_needed = 0, uses_anonymous_args = 0
 336:Core/Src/freertos.c ****   /* USER CODE BEGIN LED_Indicator */
 2253              		.loc 1 336 1 is_stmt 0 view .LVU480
 2254 0000 30B5     		push	{r4, r5, lr}
 2255              	.LCFI26:
 2256              		.cfi_def_cfa_offset 12
 2257              		.cfi_offset 4, -12
 2258              		.cfi_offset 5, -8
 2259              		.cfi_offset 14, -4
 2260 0002 89B0     		sub	sp, sp, #36
 2261              	.LCFI27:
ARM GAS  C:\Users\Vento\AppData\Local\Temp\cc4kJFdO.s 			page 59


 2262              		.cfi_def_cfa_offset 48
 339:Core/Src/freertos.c **** 
 2263              		.loc 1 339 3 is_stmt 1 view .LVU481
 2264 0004 4FF40051 		mov	r1, #8192
 2265 0008 9948     		ldr	r0, .L131+8
 2266              	.LVL182:
 339:Core/Src/freertos.c **** 
 2267              		.loc 1 339 3 is_stmt 0 view .LVU482
 2268 000a FFF7FEFF 		bl	HAL_GPIO_TogglePin
 2269              	.LVL183:
 341:Core/Src/freertos.c ****   {
 2270              		.loc 1 341 3 is_stmt 1 view .LVU483
 341:Core/Src/freertos.c ****   {
 2271              		.loc 1 341 16 is_stmt 0 view .LVU484
 2272 000e 994B     		ldr	r3, .L131+12
 2273 0010 1B7B     		ldrb	r3, [r3, #12]	@ zero_extendqisi2
 341:Core/Src/freertos.c ****   {
 2274              		.loc 1 341 6 view .LVU485
 2275 0012 002B     		cmp	r3, #0
 2276 0014 00F08E80 		beq	.L108
 343:Core/Src/freertos.c ****     if (currentPage == InfoPage)
 2277              		.loc 1 343 5 is_stmt 1 view .LVU486
 343:Core/Src/freertos.c ****     if (currentPage == InfoPage)
 2278              		.loc 1 343 14 is_stmt 0 view .LVU487
 2279 0018 974B     		ldr	r3, .L131+16
 2280 001a 1869     		ldr	r0, [r3, #16]
 343:Core/Src/freertos.c ****     if (currentPage == InfoPage)
 2281              		.loc 1 343 19 view .LVU488
 2282 001c 0130     		adds	r0, r0, #1
 2283 001e 1861     		str	r0, [r3, #16]
 344:Core/Src/freertos.c ****     {
 2284              		.loc 1 344 5 is_stmt 1 view .LVU489
 344:Core/Src/freertos.c ****     {
 2285              		.loc 1 344 21 is_stmt 0 view .LVU490
 2286 0020 964B     		ldr	r3, .L131+20
 2287 0022 1B78     		ldrb	r3, [r3]	@ zero_extendqisi2
 344:Core/Src/freertos.c ****     {
 2288              		.loc 1 344 8 view .LVU491
 2289 0024 022B     		cmp	r3, #2
 2290 0026 23D0     		beq	.L129
 2291              	.L109:
 361:Core/Src/freertos.c ****     {
 2292              		.loc 1 361 5 is_stmt 1 view .LVU492
 361:Core/Src/freertos.c ****     {
 2293              		.loc 1 361 18 is_stmt 0 view .LVU493
 2294 0028 934B     		ldr	r3, .L131+16
 2295 002a 1C69     		ldr	r4, [r3, #16]
 361:Core/Src/freertos.c ****     {
 2296              		.loc 1 361 8 view .LVU494
 2297 002c 782C     		cmp	r4, #120
 2298 002e 00F2B280 		bhi	.L124
 374:Core/Src/freertos.c ****     }
 2299              		.loc 1 374 7 is_stmt 1 view .LVU495
 374:Core/Src/freertos.c ****     }
 2300              		.loc 1 374 77 is_stmt 0 view .LVU496
 2301 0032 2046     		mov	r0, r4
 2302 0034 FFF7FEFF 		bl	__aeabi_ui2d
ARM GAS  C:\Users\Vento\AppData\Local\Temp\cc4kJFdO.s 			page 60


 2303              	.LVL184:
 2304 0038 8BA3     		adr	r3, .L131
 2305 003a D3E90023 		ldrd	r2, [r3]
 2306 003e FFF7FEFF 		bl	__aeabi_dmul
 2307              	.LVL185:
 374:Core/Src/freertos.c ****     }
 2308              		.loc 1 374 65 view .LVU497
 2309 0042 0022     		movs	r2, #0
 2310 0044 8E4B     		ldr	r3, .L131+24
 2311 0046 FFF7FEFF 		bl	__aeabi_ddiv
 2312              	.LVL186:
 2313 004a FFF7FEFF 		bl	sin
 2314              	.LVL187:
 374:Core/Src/freertos.c ****     }
 2315              		.loc 1 374 63 view .LVU498
 2316 004e 0022     		movs	r2, #0
 2317 0050 8C4B     		ldr	r3, .L131+28
 2318 0052 FFF7FEFF 		bl	__aeabi_dmul
 2319              	.LVL188:
 374:Core/Src/freertos.c ****     }
 2320              		.loc 1 374 98 view .LVU499
 2321 0056 0022     		movs	r2, #0
 2322 0058 8B4B     		ldr	r3, .L131+32
 2323 005a FFF7FEFF 		bl	__aeabi_dadd
 2324              	.LVL189:
 374:Core/Src/freertos.c ****     }
 2325              		.loc 1 374 49 view .LVU500
 2326 005e FFF7FEFF 		bl	__aeabi_d2uiz
 2327              	.LVL190:
 2328 0062 C3B2     		uxtb	r3, r0
 374:Core/Src/freertos.c ****     }
 2329              		.loc 1 374 39 view .LVU501
 2330 0064 013C     		subs	r4, r4, #1
 374:Core/Src/freertos.c ****     }
 2331              		.loc 1 374 43 view .LVU502
 2332 0066 844A     		ldr	r2, .L131+16
 2333 0068 1444     		add	r4, r4, r2
 2334 006a 5B00     		lsls	r3, r3, #1
 2335 006c 2375     		strb	r3, [r4, #20]
 2336 006e 61E0     		b	.L108
 2337              	.L129:
 2338              	.LBB4:
 346:Core/Src/freertos.c ****       intToTime(Channel01.time, t_temp);
 2339              		.loc 1 346 7 is_stmt 1 view .LVU503
 347:Core/Src/freertos.c ****       ILI9341_WriteString(90, 80, t_temp, Font_7x10, ILI9341_GREEN, ILI9341_BLACK);
 2340              		.loc 1 347 7 view .LVU504
 2341 0070 05A9     		add	r1, sp, #20
 2342 0072 FFF7FEFF 		bl	intToTime
 2343              	.LVL191:
 348:Core/Src/freertos.c ****       for(uint8_t i = 0; i < 120; i++)
 2344              		.loc 1 348 7 view .LVU505
 2345 0076 854B     		ldr	r3, .L131+36
 2346 0078 0024     		movs	r4, #0
 2347 007a 0294     		str	r4, [sp, #8]
 2348 007c 4FF4FC62 		mov	r2, #2016
 2349 0080 0192     		str	r2, [sp, #4]
 2350 0082 5A68     		ldr	r2, [r3, #4]
ARM GAS  C:\Users\Vento\AppData\Local\Temp\cc4kJFdO.s 			page 61


 2351 0084 0092     		str	r2, [sp]
 2352 0086 1B68     		ldr	r3, [r3]
 2353 0088 05AA     		add	r2, sp, #20
 2354 008a 5021     		movs	r1, #80
 2355 008c 5A20     		movs	r0, #90
 2356 008e FFF7FEFF 		bl	ILI9341_WriteString
 2357              	.LVL192:
 349:Core/Src/freertos.c ****       {
 2358              		.loc 1 349 7 view .LVU506
 2359              	.LBB5:
 349:Core/Src/freertos.c ****       {
 2360              		.loc 1 349 11 view .LVU507
 349:Core/Src/freertos.c ****       {
 2361              		.loc 1 349 7 is_stmt 0 view .LVU508
 2362 0092 11E0     		b	.L110
 2363              	.LVL193:
 2364              	.L111:
 356:Core/Src/freertos.c ****         ILI9341_DrawPixel(191+i, 100-Channel01.history[i], ILI9341_BLUE);
 2365              		.loc 1 356 9 is_stmt 1 discriminator 2 view .LVU509
 2366 0094 4FF6FF72 		movw	r2, #65535
 2367 0098 6421     		movs	r1, #100
 2368 009a 2846     		mov	r0, r5
 2369 009c FFF7FEFF 		bl	ILI9341_DrawPixel
 2370              	.LVL194:
 357:Core/Src/freertos.c ****       }
 2371              		.loc 1 357 9 discriminator 2 view .LVU510
 357:Core/Src/freertos.c ****       }
 2372              		.loc 1 357 55 is_stmt 0 discriminator 2 view .LVU511
 2373 00a0 754B     		ldr	r3, .L131+16
 2374 00a2 2344     		add	r3, r3, r4
 2375 00a4 197D     		ldrb	r1, [r3, #20]	@ zero_extendqisi2
 357:Core/Src/freertos.c ****       }
 2376              		.loc 1 357 9 discriminator 2 view .LVU512
 2377 00a6 C1F16401 		rsb	r1, r1, #100
 2378 00aa 1F22     		movs	r2, #31
 2379 00ac 89B2     		uxth	r1, r1
 2380 00ae 2846     		mov	r0, r5
 2381 00b0 FFF7FEFF 		bl	ILI9341_DrawPixel
 2382              	.LVL195:
 349:Core/Src/freertos.c ****       {
 2383              		.loc 1 349 35 is_stmt 1 discriminator 2 view .LVU513
 349:Core/Src/freertos.c ****       {
 2384              		.loc 1 349 36 is_stmt 0 discriminator 2 view .LVU514
 2385 00b4 0134     		adds	r4, r4, #1
 2386              	.LVL196:
 349:Core/Src/freertos.c ****       {
 2387              		.loc 1 349 36 discriminator 2 view .LVU515
 2388 00b6 E4B2     		uxtb	r4, r4
 2389              	.LVL197:
 2390              	.L110:
 349:Core/Src/freertos.c ****       {
 2391              		.loc 1 349 26 is_stmt 1 discriminator 1 view .LVU516
 349:Core/Src/freertos.c ****       {
 2392              		.loc 1 349 7 is_stmt 0 discriminator 1 view .LVU517
 2393 00b8 772C     		cmp	r4, #119
 2394 00ba B5D8     		bhi	.L109
 351:Core/Src/freertos.c ****         if (i < 3)
ARM GAS  C:\Users\Vento\AppData\Local\Temp\cc4kJFdO.s 			page 62


 2395              		.loc 1 351 9 is_stmt 1 view .LVU518
 2396 00bc 04F1BF05 		add	r5, r4, #191
 2397 00c0 0023     		movs	r3, #0
 2398 00c2 0093     		str	r3, [sp]
 2399 00c4 6423     		movs	r3, #100
 2400 00c6 2A46     		mov	r2, r5
 2401 00c8 1421     		movs	r1, #20
 2402 00ca 2846     		mov	r0, r5
 2403 00cc FFF7FEFF 		bl	ILI9341_DrawLine
 2404              	.LVL198:
 352:Core/Src/freertos.c ****         {
 2405              		.loc 1 352 9 view .LVU519
 352:Core/Src/freertos.c ****         {
 2406              		.loc 1 352 12 is_stmt 0 view .LVU520
 2407 00d0 022C     		cmp	r4, #2
 2408 00d2 DFD8     		bhi	.L111
 354:Core/Src/freertos.c ****         }
 2409              		.loc 1 354 11 is_stmt 1 view .LVU521
 2410 00d4 4FF6FF73 		movw	r3, #65535
 2411 00d8 0093     		str	r3, [sp]
 2412 00da 1623     		movs	r3, #22
 2413 00dc C022     		movs	r2, #192
 2414 00de 1421     		movs	r1, #20
 2415 00e0 BE20     		movs	r0, #190
 2416 00e2 FFF7FEFF 		bl	ILI9341_DrawLine
 2417              	.LVL199:
 2418 00e6 D5E7     		b	.L111
 2419              	.LVL200:
 2420              	.L115:
 354:Core/Src/freertos.c ****         }
 2421              		.loc 1 354 11 is_stmt 0 view .LVU522
 2422              	.LBE5:
 2423              	.LBE4:
 2424              	.LBB6:
 366:Core/Src/freertos.c ****       }
 2425              		.loc 1 366 9 is_stmt 1 discriminator 3 view .LVU523
 366:Core/Src/freertos.c ****       }
 2426              		.loc 1 366 51 is_stmt 0 discriminator 3 view .LVU524
 2427 00e8 511C     		adds	r1, r2, #1
 366:Core/Src/freertos.c ****       }
 2428              		.loc 1 366 49 discriminator 3 view .LVU525
 2429 00ea 634B     		ldr	r3, .L131+16
 2430 00ec 5818     		adds	r0, r3, r1
 2431 00ee 007D     		ldrb	r0, [r0, #20]	@ zero_extendqisi2
 366:Core/Src/freertos.c ****       }
 2432              		.loc 1 366 30 discriminator 3 view .LVU526
 2433 00f0 1344     		add	r3, r3, r2
 2434 00f2 1875     		strb	r0, [r3, #20]
 364:Core/Src/freertos.c ****       {
 2435              		.loc 1 364 35 is_stmt 1 discriminator 3 view .LVU527
 364:Core/Src/freertos.c ****       {
 2436              		.loc 1 364 36 is_stmt 0 discriminator 3 view .LVU528
 2437 00f4 CAB2     		uxtb	r2, r1
 2438              	.LVL201:
 2439              	.L113:
 364:Core/Src/freertos.c ****       {
 2440              		.loc 1 364 26 is_stmt 1 discriminator 1 view .LVU529
ARM GAS  C:\Users\Vento\AppData\Local\Temp\cc4kJFdO.s 			page 63


 364:Core/Src/freertos.c ****       {
 2441              		.loc 1 364 7 is_stmt 0 discriminator 1 view .LVU530
 2442 00f6 762A     		cmp	r2, #118
 2443 00f8 F6D9     		bls	.L115
 2444              	.LBE6:
 369:Core/Src/freertos.c ****     }
 2445              		.loc 1 369 7 is_stmt 1 view .LVU531
 369:Core/Src/freertos.c ****     }
 2446              		.loc 1 369 64 is_stmt 0 view .LVU532
 2447 00fa 2046     		mov	r0, r4
 2448 00fc FFF7FEFF 		bl	__aeabi_ui2d
 2449              	.LVL202:
 369:Core/Src/freertos.c ****     }
 2450              		.loc 1 369 64 view .LVU533
 2451 0100 59A3     		adr	r3, .L131
 2452 0102 D3E90023 		ldrd	r2, [r3]
 2453 0106 FFF7FEFF 		bl	__aeabi_dmul
 2454              	.LVL203:
 369:Core/Src/freertos.c ****     }
 2455              		.loc 1 369 52 view .LVU534
 2456 010a 0022     		movs	r2, #0
 2457 010c 5C4B     		ldr	r3, .L131+24
 2458 010e FFF7FEFF 		bl	__aeabi_ddiv
 2459              	.LVL204:
 2460 0112 FFF7FEFF 		bl	sin
 2461              	.LVL205:
 369:Core/Src/freertos.c ****     }
 2462              		.loc 1 369 50 view .LVU535
 2463 0116 0022     		movs	r2, #0
 2464 0118 5A4B     		ldr	r3, .L131+28
 2465 011a FFF7FEFF 		bl	__aeabi_dmul
 2466              	.LVL206:
 369:Core/Src/freertos.c ****     }
 2467              		.loc 1 369 85 view .LVU536
 2468 011e 0022     		movs	r2, #0
 2469 0120 594B     		ldr	r3, .L131+32
 2470 0122 FFF7FEFF 		bl	__aeabi_dadd
 2471              	.LVL207:
 369:Core/Src/freertos.c ****     }
 2472              		.loc 1 369 36 view .LVU537
 2473 0126 FFF7FEFF 		bl	__aeabi_d2uiz
 2474              	.LVL208:
 2475 012a C3B2     		uxtb	r3, r0
 369:Core/Src/freertos.c ****     }
 2476              		.loc 1 369 30 view .LVU538
 2477 012c 5B00     		lsls	r3, r3, #1
 2478 012e 524A     		ldr	r2, .L131+16
 2479 0130 82F88B30 		strb	r3, [r2, #139]
 2480              	.L108:
 378:Core/Src/freertos.c ****   {
 2481              		.loc 1 378 3 is_stmt 1 view .LVU539
 378:Core/Src/freertos.c ****   {
 2482              		.loc 1 378 16 is_stmt 0 view .LVU540
 2483 0134 564B     		ldr	r3, .L131+40
 2484 0136 1B7B     		ldrb	r3, [r3, #12]	@ zero_extendqisi2
 378:Core/Src/freertos.c ****   {
 2485              		.loc 1 378 6 view .LVU541
ARM GAS  C:\Users\Vento\AppData\Local\Temp\cc4kJFdO.s 			page 64


 2486 0138 002B     		cmp	r3, #0
 2487 013a 00F09180 		beq	.L107
 380:Core/Src/freertos.c ****     if (currentPage == InfoPage)
 2488              		.loc 1 380 5 is_stmt 1 view .LVU542
 380:Core/Src/freertos.c ****     if (currentPage == InfoPage)
 2489              		.loc 1 380 14 is_stmt 0 view .LVU543
 2490 013e 554B     		ldr	r3, .L131+44
 2491 0140 1869     		ldr	r0, [r3, #16]
 380:Core/Src/freertos.c ****     if (currentPage == InfoPage)
 2492              		.loc 1 380 19 view .LVU544
 2493 0142 0130     		adds	r0, r0, #1
 2494 0144 1861     		str	r0, [r3, #16]
 381:Core/Src/freertos.c ****     {
 2495              		.loc 1 381 5 is_stmt 1 view .LVU545
 381:Core/Src/freertos.c ****     {
 2496              		.loc 1 381 21 is_stmt 0 view .LVU546
 2497 0146 4D4B     		ldr	r3, .L131+20
 2498 0148 1B78     		ldrb	r3, [r3]	@ zero_extendqisi2
 381:Core/Src/freertos.c ****     {
 2499              		.loc 1 381 8 view .LVU547
 2500 014a 022B     		cmp	r3, #2
 2501 014c 25D0     		beq	.L130
 2502              	.L117:
 398:Core/Src/freertos.c ****     {
 2503              		.loc 1 398 5 is_stmt 1 view .LVU548
 398:Core/Src/freertos.c ****     {
 2504              		.loc 1 398 18 is_stmt 0 view .LVU549
 2505 014e 514B     		ldr	r3, .L131+44
 2506 0150 1C69     		ldr	r4, [r3, #16]
 398:Core/Src/freertos.c ****     {
 2507              		.loc 1 398 8 view .LVU550
 2508 0152 782C     		cmp	r4, #120
 2509 0154 00F28680 		bhi	.L125
 411:Core/Src/freertos.c ****     }
 2510              		.loc 1 411 7 is_stmt 1 view .LVU551
 411:Core/Src/freertos.c ****     }
 2511              		.loc 1 411 77 is_stmt 0 view .LVU552
 2512 0158 2046     		mov	r0, r4
 2513 015a FFF7FEFF 		bl	__aeabi_ui2d
 2514              	.LVL209:
 2515 015e 42A3     		adr	r3, .L131
 2516 0160 D3E90023 		ldrd	r2, [r3]
 2517 0164 FFF7FEFF 		bl	__aeabi_dmul
 2518              	.LVL210:
 411:Core/Src/freertos.c ****     }
 2519              		.loc 1 411 65 view .LVU553
 2520 0168 0022     		movs	r2, #0
 2521 016a 454B     		ldr	r3, .L131+24
 2522 016c FFF7FEFF 		bl	__aeabi_ddiv
 2523              	.LVL211:
 2524 0170 FFF7FEFF 		bl	cos
 2525              	.LVL212:
 411:Core/Src/freertos.c ****     }
 2526              		.loc 1 411 63 view .LVU554
 2527 0174 0022     		movs	r2, #0
 2528 0176 434B     		ldr	r3, .L131+28
 2529 0178 FFF7FEFF 		bl	__aeabi_dmul
ARM GAS  C:\Users\Vento\AppData\Local\Temp\cc4kJFdO.s 			page 65


 2530              	.LVL213:
 411:Core/Src/freertos.c ****     }
 2531              		.loc 1 411 98 view .LVU555
 2532 017c 0022     		movs	r2, #0
 2533 017e 424B     		ldr	r3, .L131+32
 2534 0180 FFF7FEFF 		bl	__aeabi_dadd
 2535              	.LVL214:
 411:Core/Src/freertos.c ****     }
 2536              		.loc 1 411 49 view .LVU556
 2537 0184 FFF7FEFF 		bl	__aeabi_d2uiz
 2538              	.LVL215:
 2539 0188 C3B2     		uxtb	r3, r0
 411:Core/Src/freertos.c ****     }
 2540              		.loc 1 411 39 view .LVU557
 2541 018a 013C     		subs	r4, r4, #1
 411:Core/Src/freertos.c ****     }
 2542              		.loc 1 411 43 view .LVU558
 2543 018c 414A     		ldr	r2, .L131+44
 2544 018e 1444     		add	r4, r4, r2
 2545 0190 5B00     		lsls	r3, r3, #1
 2546 0192 2375     		strb	r3, [r4, #20]
 415:Core/Src/freertos.c **** 
 2547              		.loc 1 415 1 view .LVU559
 2548 0194 64E0     		b	.L107
 2549              	.L124:
 2550              	.LBB7:
 364:Core/Src/freertos.c ****       {
 2551              		.loc 1 364 19 view .LVU560
 2552 0196 0022     		movs	r2, #0
 2553 0198 ADE7     		b	.L113
 2554              	.L130:
 2555              	.LBE7:
 2556              	.LBB8:
 383:Core/Src/freertos.c ****       intToTime(Channel02.time, t_temp);
 2557              		.loc 1 383 7 is_stmt 1 view .LVU561
 384:Core/Src/freertos.c ****       ILI9341_WriteString(90, 170, t_temp, Font_7x10, ILI9341_GREEN, ILI9341_BLACK);
 2558              		.loc 1 384 7 view .LVU562
 2559 019a 05A9     		add	r1, sp, #20
 2560 019c FFF7FEFF 		bl	intToTime
 2561              	.LVL216:
 385:Core/Src/freertos.c ****       for(uint8_t i = 0; i < 120; i++)
 2562              		.loc 1 385 7 view .LVU563
 2563 01a0 3A4B     		ldr	r3, .L131+36
 2564 01a2 0024     		movs	r4, #0
 2565 01a4 0294     		str	r4, [sp, #8]
 2566 01a6 4FF4FC62 		mov	r2, #2016
 2567 01aa 0192     		str	r2, [sp, #4]
 2568 01ac 5A68     		ldr	r2, [r3, #4]
 2569 01ae 0092     		str	r2, [sp]
 2570 01b0 1B68     		ldr	r3, [r3]
 2571 01b2 05AA     		add	r2, sp, #20
 2572 01b4 AA21     		movs	r1, #170
 2573 01b6 5A20     		movs	r0, #90
 2574 01b8 FFF7FEFF 		bl	ILI9341_WriteString
 2575              	.LVL217:
 386:Core/Src/freertos.c ****       {
 2576              		.loc 1 386 7 view .LVU564
ARM GAS  C:\Users\Vento\AppData\Local\Temp\cc4kJFdO.s 			page 66


 2577              	.LBB9:
 386:Core/Src/freertos.c ****       {
 2578              		.loc 1 386 11 view .LVU565
 386:Core/Src/freertos.c ****       {
 2579              		.loc 1 386 7 is_stmt 0 view .LVU566
 2580 01bc 12E0     		b	.L118
 2581              	.LVL218:
 2582              	.L119:
 393:Core/Src/freertos.c ****         ILI9341_DrawPixel(191+i, 220-Channel02.history[i], ILI9341_RED);
 2583              		.loc 1 393 9 is_stmt 1 discriminator 2 view .LVU567
 2584 01be 4FF6FF72 		movw	r2, #65535
 2585 01c2 DC21     		movs	r1, #220
 2586 01c4 2846     		mov	r0, r5
 2587 01c6 FFF7FEFF 		bl	ILI9341_DrawPixel
 2588              	.LVL219:
 394:Core/Src/freertos.c ****       }
 2589              		.loc 1 394 9 discriminator 2 view .LVU568
 394:Core/Src/freertos.c ****       }
 2590              		.loc 1 394 55 is_stmt 0 discriminator 2 view .LVU569
 2591 01ca 324B     		ldr	r3, .L131+44
 2592 01cc 2344     		add	r3, r3, r4
 2593 01ce 197D     		ldrb	r1, [r3, #20]	@ zero_extendqisi2
 394:Core/Src/freertos.c ****       }
 2594              		.loc 1 394 9 discriminator 2 view .LVU570
 2595 01d0 C1F1DC01 		rsb	r1, r1, #220
 2596 01d4 4FF47842 		mov	r2, #63488
 2597 01d8 89B2     		uxth	r1, r1
 2598 01da 2846     		mov	r0, r5
 2599 01dc FFF7FEFF 		bl	ILI9341_DrawPixel
 2600              	.LVL220:
 386:Core/Src/freertos.c ****       {
 2601              		.loc 1 386 35 is_stmt 1 discriminator 2 view .LVU571
 386:Core/Src/freertos.c ****       {
 2602              		.loc 1 386 36 is_stmt 0 discriminator 2 view .LVU572
 2603 01e0 0134     		adds	r4, r4, #1
 2604              	.LVL221:
 386:Core/Src/freertos.c ****       {
 2605              		.loc 1 386 36 discriminator 2 view .LVU573
 2606 01e2 E4B2     		uxtb	r4, r4
 2607              	.LVL222:
 2608              	.L118:
 386:Core/Src/freertos.c ****       {
 2609              		.loc 1 386 26 is_stmt 1 discriminator 1 view .LVU574
 386:Core/Src/freertos.c ****       {
 2610              		.loc 1 386 7 is_stmt 0 discriminator 1 view .LVU575
 2611 01e4 772C     		cmp	r4, #119
 2612 01e6 B2D8     		bhi	.L117
 388:Core/Src/freertos.c ****         if (i < 3)
 2613              		.loc 1 388 9 is_stmt 1 view .LVU576
 2614 01e8 04F1BF05 		add	r5, r4, #191
 2615 01ec 0023     		movs	r3, #0
 2616 01ee 0093     		str	r3, [sp]
 2617 01f0 DC23     		movs	r3, #220
 2618 01f2 2A46     		mov	r2, r5
 2619 01f4 8C21     		movs	r1, #140
 2620 01f6 2846     		mov	r0, r5
 2621 01f8 FFF7FEFF 		bl	ILI9341_DrawLine
ARM GAS  C:\Users\Vento\AppData\Local\Temp\cc4kJFdO.s 			page 67


 2622              	.LVL223:
 389:Core/Src/freertos.c ****         {
 2623              		.loc 1 389 9 view .LVU577
 389:Core/Src/freertos.c ****         {
 2624              		.loc 1 389 12 is_stmt 0 view .LVU578
 2625 01fc 022C     		cmp	r4, #2
 2626 01fe DED8     		bhi	.L119
 391:Core/Src/freertos.c ****         }
 2627              		.loc 1 391 11 is_stmt 1 view .LVU579
 2628 0200 4FF6FF73 		movw	r3, #65535
 2629 0204 0093     		str	r3, [sp]
 2630 0206 8E23     		movs	r3, #142
 2631 0208 C022     		movs	r2, #192
 2632 020a 8C21     		movs	r1, #140
 2633 020c BE20     		movs	r0, #190
 2634 020e FFF7FEFF 		bl	ILI9341_DrawLine
 2635              	.LVL224:
 2636 0212 D4E7     		b	.L119
 2637              	.LVL225:
 2638              	.L123:
 391:Core/Src/freertos.c ****         }
 2639              		.loc 1 391 11 is_stmt 0 view .LVU580
 2640              	.LBE9:
 2641              	.LBE8:
 2642              	.LBB10:
 403:Core/Src/freertos.c ****       }
 2643              		.loc 1 403 9 is_stmt 1 discriminator 3 view .LVU581
 403:Core/Src/freertos.c ****       }
 2644              		.loc 1 403 51 is_stmt 0 discriminator 3 view .LVU582
 2645 0214 511C     		adds	r1, r2, #1
 403:Core/Src/freertos.c ****       }
 2646              		.loc 1 403 49 discriminator 3 view .LVU583
 2647 0216 1F4B     		ldr	r3, .L131+44
 2648 0218 5818     		adds	r0, r3, r1
 2649 021a 007D     		ldrb	r0, [r0, #20]	@ zero_extendqisi2
 403:Core/Src/freertos.c ****       }
 2650              		.loc 1 403 30 discriminator 3 view .LVU584
 2651 021c 1344     		add	r3, r3, r2
 2652 021e 1875     		strb	r0, [r3, #20]
 401:Core/Src/freertos.c ****       {
 2653              		.loc 1 401 35 is_stmt 1 discriminator 3 view .LVU585
 401:Core/Src/freertos.c ****       {
 2654              		.loc 1 401 36 is_stmt 0 discriminator 3 view .LVU586
 2655 0220 CAB2     		uxtb	r2, r1
 2656              	.LVL226:
 2657              	.L121:
 401:Core/Src/freertos.c ****       {
 2658              		.loc 1 401 26 is_stmt 1 discriminator 1 view .LVU587
 401:Core/Src/freertos.c ****       {
 2659              		.loc 1 401 7 is_stmt 0 discriminator 1 view .LVU588
 2660 0222 762A     		cmp	r2, #118
 2661 0224 F6D9     		bls	.L123
 2662              	.LBE10:
 406:Core/Src/freertos.c ****     }
 2663              		.loc 1 406 7 is_stmt 1 view .LVU589
 406:Core/Src/freertos.c ****     }
 2664              		.loc 1 406 64 is_stmt 0 view .LVU590
ARM GAS  C:\Users\Vento\AppData\Local\Temp\cc4kJFdO.s 			page 68


 2665 0226 2046     		mov	r0, r4
 2666 0228 FFF7FEFF 		bl	__aeabi_ui2d
 2667              	.LVL227:
 406:Core/Src/freertos.c ****     }
 2668              		.loc 1 406 64 view .LVU591
 2669 022c 0EA3     		adr	r3, .L131
 2670 022e D3E90023 		ldrd	r2, [r3]
 2671 0232 FFF7FEFF 		bl	__aeabi_dmul
 2672              	.LVL228:
 406:Core/Src/freertos.c ****     }
 2673              		.loc 1 406 52 view .LVU592
 2674 0236 0022     		movs	r2, #0
 2675 0238 114B     		ldr	r3, .L131+24
 2676 023a FFF7FEFF 		bl	__aeabi_ddiv
 2677              	.LVL229:
 2678 023e FFF7FEFF 		bl	cos
 2679              	.LVL230:
 406:Core/Src/freertos.c ****     }
 2680              		.loc 1 406 50 view .LVU593
 2681 0242 0022     		movs	r2, #0
 2682 0244 0F4B     		ldr	r3, .L131+28
 2683 0246 FFF7FEFF 		bl	__aeabi_dmul
 2684              	.LVL231:
 406:Core/Src/freertos.c ****     }
 2685              		.loc 1 406 85 view .LVU594
 2686 024a 0022     		movs	r2, #0
 2687 024c 0E4B     		ldr	r3, .L131+32
 2688 024e FFF7FEFF 		bl	__aeabi_dadd
 2689              	.LVL232:
 406:Core/Src/freertos.c ****     }
 2690              		.loc 1 406 36 view .LVU595
 2691 0252 FFF7FEFF 		bl	__aeabi_d2uiz
 2692              	.LVL233:
 2693 0256 C3B2     		uxtb	r3, r0
 406:Core/Src/freertos.c ****     }
 2694              		.loc 1 406 30 view .LVU596
 2695 0258 5B00     		lsls	r3, r3, #1
 2696 025a 0E4A     		ldr	r2, .L131+44
 2697 025c 82F88B30 		strb	r3, [r2, #139]
 2698              	.L107:
 415:Core/Src/freertos.c **** 
 2699              		.loc 1 415 1 view .LVU597
 2700 0260 09B0     		add	sp, sp, #36
 2701              	.LCFI28:
 2702              		.cfi_remember_state
 2703              		.cfi_def_cfa_offset 12
 2704              		@ sp needed
 2705 0262 30BD     		pop	{r4, r5, pc}
 2706              	.L125:
 2707              	.LCFI29:
 2708              		.cfi_restore_state
 2709              	.LBB11:
 401:Core/Src/freertos.c ****       {
 2710              		.loc 1 401 19 view .LVU598
 2711 0264 0022     		movs	r2, #0
 2712 0266 DCE7     		b	.L121
 2713              	.L132:
ARM GAS  C:\Users\Vento\AppData\Local\Temp\cc4kJFdO.s 			page 69


 2714              		.align	3
 2715              	.L131:
 2716 0268 C976BE9F 		.word	-1614907703
 2717 026c 1A2F1940 		.word	1075392282
 2718 0270 00100140 		.word	1073811456
 2719 0274 00000000 		.word	.LANCHOR13
 2720 0278 00000000 		.word	.LANCHOR19
 2721 027c 00000000 		.word	.LANCHOR17
 2722 0280 00004E40 		.word	1078853632
 2723 0284 00002440 		.word	1076101120
 2724 0288 00003440 		.word	1077149696
 2725 028c 00000000 		.word	Font_7x10
 2726 0290 00000000 		.word	.LANCHOR14
 2727 0294 00000000 		.word	.LANCHOR20
 2728              	.LBE11:
 2729              		.cfi_endproc
 2730              	.LFE73:
 2732              		.section	.rodata.InfoPageDisplay.str1.4,"aMS",%progbits,1
 2733              		.align	2
 2734              	.LC8:
 2735 0000 43757272 		.ascii	"Current: \000"
 2735      656E743A 
 2735      2000
 2736 000a 0000     		.align	2
 2737              	.LC9:
 2738 000c 6D4100   		.ascii	"mA\000"
 2739 000f 00       		.align	2
 2740              	.LC10:
 2741 0010 506F7765 		.ascii	"Power: \000"
 2741      723A2000 
 2742              		.align	2
 2743              	.LC11:
 2744 0018 5700     		.ascii	"W\000"
 2745 001a 0000     		.align	2
 2746              	.LC12:
 2747 001c 50657269 		.ascii	"Period: \000"
 2747      6F643A20 
 2747      00
 2748 0025 000000   		.align	2
 2749              	.LC13:
 2750 0028 7400     		.ascii	"t\000"
 2751 002a 0000     		.align	2
 2752              	.LC14:
 2753 002c 363000   		.ascii	"60\000"
 2754 002f 00       		.align	2
 2755              	.LC15:
 2756 0030 5000     		.ascii	"P\000"
 2757 0032 0000     		.align	2
 2758              	.LC16:
 2759 0034 323000   		.ascii	"20\000"
 2760 0037 00       		.align	2
 2761              	.LC17:
 2762 0038 3000     		.ascii	"0\000"
 2763 003a 0000     		.align	2
 2764              	.LC18:
 2765 003c 3C3C00   		.ascii	"<<\000"
 2766              		.section	.text.InfoPageDisplay,"ax",%progbits
ARM GAS  C:\Users\Vento\AppData\Local\Temp\cc4kJFdO.s 			page 70


 2767              		.align	1
 2768              		.global	InfoPageDisplay
 2769              		.syntax unified
 2770              		.thumb
 2771              		.thumb_func
 2772              		.fpu softvfp
 2774              	InfoPageDisplay:
 2775              	.LFB78:
 524:Core/Src/freertos.c ****   ILI9341_FillScreen(ILI9341_BLACK);
 2776              		.loc 1 524 1 is_stmt 1 view -0
 2777              		.cfi_startproc
 2778              		@ args = 0, pretend = 0, frame = 24
 2779              		@ frame_needed = 0, uses_anonymous_args = 0
 2780 0000 2DE9F04F 		push	{r4, r5, r6, r7, r8, r9, r10, fp, lr}
 2781              	.LCFI30:
 2782              		.cfi_def_cfa_offset 36
 2783              		.cfi_offset 4, -36
 2784              		.cfi_offset 5, -32
 2785              		.cfi_offset 6, -28
 2786              		.cfi_offset 7, -24
 2787              		.cfi_offset 8, -20
 2788              		.cfi_offset 9, -16
 2789              		.cfi_offset 10, -12
 2790              		.cfi_offset 11, -8
 2791              		.cfi_offset 14, -4
 2792 0004 8BB0     		sub	sp, sp, #44
 2793              	.LCFI31:
 2794              		.cfi_def_cfa_offset 80
 525:Core/Src/freertos.c **** 
 2795              		.loc 1 525 3 view .LVU600
 2796 0006 0020     		movs	r0, #0
 2797 0008 FFF7FEFF 		bl	ILI9341_FillScreen
 2798              	.LVL234:
 527:Core/Src/freertos.c ****   char t_temp[9];
 2799              		.loc 1 527 3 view .LVU601
 528:Core/Src/freertos.c **** 
 2800              		.loc 1 528 3 view .LVU602
 530:Core/Src/freertos.c **** 
 2801              		.loc 1 530 3 view .LVU603
 2802 000c DFF8E0A2 		ldr	r10, .L139
 2803 0010 0024     		movs	r4, #0
 2804 0012 0294     		str	r4, [sp, #8]
 2805 0014 4FF6FF76 		movw	r6, #65535
 2806 0018 0196     		str	r6, [sp, #4]
 2807 001a DAF80430 		ldr	r3, [r10, #4]
 2808 001e 0093     		str	r3, [sp]
 2809 0020 DAF80030 		ldr	r3, [r10]
 2810 0024 B34A     		ldr	r2, .L139+4
 2811 0026 0F21     		movs	r1, #15
 2812 0028 1E20     		movs	r0, #30
 2813 002a FFF7FEFF 		bl	ILI9341_WriteString
 2814              	.LVL235:
 532:Core/Src/freertos.c ****   ftoa(Channel01.current, temp, 1);
 2815              		.loc 1 532 3 view .LVU604
 2816 002e B24D     		ldr	r5, .L139+8
 2817 0030 0294     		str	r4, [sp, #8]
 2818 0032 4FF6E078 		movw	r8, #65504
ARM GAS  C:\Users\Vento\AppData\Local\Temp\cc4kJFdO.s 			page 71


 2819 0036 CDF80480 		str	r8, [sp, #4]
 2820 003a 6B68     		ldr	r3, [r5, #4]
 2821 003c 0093     		str	r3, [sp]
 2822 003e 2B68     		ldr	r3, [r5]
 2823 0040 AE4A     		ldr	r2, .L139+12
 2824 0042 2821     		movs	r1, #40
 2825 0044 1420     		movs	r0, #20
 2826 0046 FFF7FEFF 		bl	ILI9341_WriteString
 2827              	.LVL236:
 533:Core/Src/freertos.c ****   ILI9341_WriteString(90, 40, temp, Font_7x10, ILI9341_YELLOW, ILI9341_BLACK);
 2828              		.loc 1 533 3 view .LVU605
 533:Core/Src/freertos.c ****   ILI9341_WriteString(90, 40, temp, Font_7x10, ILI9341_YELLOW, ILI9341_BLACK);
 2829              		.loc 1 533 17 is_stmt 0 view .LVU606
 2830 004a DFF8B4B2 		ldr	fp, .L139+16
 533:Core/Src/freertos.c ****   ILI9341_WriteString(90, 40, temp, Font_7x10, ILI9341_YELLOW, ILI9341_BLACK);
 2831              		.loc 1 533 3 view .LVU607
 2832 004e DBE90201 		ldrd	r0, [fp, #8]
 2833 0052 FFF7FEFF 		bl	__aeabi_d2f
 2834              	.LVL237:
 2835 0056 0122     		movs	r2, #1
 2836 0058 08A9     		add	r1, sp, #32
 2837 005a FFF7FEFF 		bl	ftoa
 2838              	.LVL238:
 534:Core/Src/freertos.c ****   ILI9341_WriteString(125, 40, "mA", Font_7x10, ILI9341_YELLOW, ILI9341_BLACK);
 2839              		.loc 1 534 3 is_stmt 1 view .LVU608
 2840 005e 0294     		str	r4, [sp, #8]
 2841 0060 CDF80480 		str	r8, [sp, #4]
 2842 0064 6B68     		ldr	r3, [r5, #4]
 2843 0066 0093     		str	r3, [sp]
 2844 0068 2B68     		ldr	r3, [r5]
 2845 006a 08AA     		add	r2, sp, #32
 2846 006c 2821     		movs	r1, #40
 2847 006e 5A20     		movs	r0, #90
 2848 0070 FFF7FEFF 		bl	ILI9341_WriteString
 2849              	.LVL239:
 535:Core/Src/freertos.c **** 
 2850              		.loc 1 535 3 view .LVU609
 2851 0074 0294     		str	r4, [sp, #8]
 2852 0076 CDF80480 		str	r8, [sp, #4]
 2853 007a 6B68     		ldr	r3, [r5, #4]
 2854 007c 0093     		str	r3, [sp]
 2855 007e 2B68     		ldr	r3, [r5]
 2856 0080 A04A     		ldr	r2, .L139+20
 2857 0082 2821     		movs	r1, #40
 2858 0084 7D20     		movs	r0, #125
 2859 0086 FFF7FEFF 		bl	ILI9341_WriteString
 2860              	.LVL240:
 537:Core/Src/freertos.c ****   ftoa(Channel01.current * 220 / 1000, temp, 1);
 2861              		.loc 1 537 3 view .LVU610
 2862 008a 0294     		str	r4, [sp, #8]
 2863 008c 4FF47847 		mov	r7, #63488
 2864 0090 0197     		str	r7, [sp, #4]
 2865 0092 6B68     		ldr	r3, [r5, #4]
 2866 0094 0093     		str	r3, [sp]
 2867 0096 2B68     		ldr	r3, [r5]
 2868 0098 9B4A     		ldr	r2, .L139+24
 2869 009a 3C21     		movs	r1, #60
ARM GAS  C:\Users\Vento\AppData\Local\Temp\cc4kJFdO.s 			page 72


 2870 009c 1420     		movs	r0, #20
 2871 009e FFF7FEFF 		bl	ILI9341_WriteString
 2872              	.LVL241:
 538:Core/Src/freertos.c ****   ILI9341_WriteString(90, 60, temp, Font_7x10, ILI9341_RED, ILI9341_BLACK);
 2873              		.loc 1 538 3 view .LVU611
 538:Core/Src/freertos.c ****   ILI9341_WriteString(90, 60, temp, Font_7x10, ILI9341_RED, ILI9341_BLACK);
 2874              		.loc 1 538 26 is_stmt 0 view .LVU612
 2875 00a2 0022     		movs	r2, #0
 2876 00a4 994B     		ldr	r3, .L139+28
 2877 00a6 DBE90201 		ldrd	r0, [fp, #8]
 2878 00aa FFF7FEFF 		bl	__aeabi_dmul
 2879              	.LVL242:
 538:Core/Src/freertos.c ****   ILI9341_WriteString(90, 60, temp, Font_7x10, ILI9341_RED, ILI9341_BLACK);
 2880              		.loc 1 538 32 view .LVU613
 2881 00ae 0022     		movs	r2, #0
 2882 00b0 974B     		ldr	r3, .L139+32
 2883 00b2 FFF7FEFF 		bl	__aeabi_ddiv
 2884              	.LVL243:
 538:Core/Src/freertos.c ****   ILI9341_WriteString(90, 60, temp, Font_7x10, ILI9341_RED, ILI9341_BLACK);
 2885              		.loc 1 538 3 view .LVU614
 2886 00b6 FFF7FEFF 		bl	__aeabi_d2f
 2887              	.LVL244:
 2888 00ba 0122     		movs	r2, #1
 2889 00bc 08A9     		add	r1, sp, #32
 2890 00be FFF7FEFF 		bl	ftoa
 2891              	.LVL245:
 539:Core/Src/freertos.c ****   ILI9341_WriteString(125, 60, "W", Font_7x10, ILI9341_RED, ILI9341_BLACK);
 2892              		.loc 1 539 3 is_stmt 1 view .LVU615
 2893 00c2 0294     		str	r4, [sp, #8]
 2894 00c4 0197     		str	r7, [sp, #4]
 2895 00c6 6B68     		ldr	r3, [r5, #4]
 2896 00c8 0093     		str	r3, [sp]
 2897 00ca 2B68     		ldr	r3, [r5]
 2898 00cc 08AA     		add	r2, sp, #32
 2899 00ce 3C21     		movs	r1, #60
 2900 00d0 5A20     		movs	r0, #90
 2901 00d2 FFF7FEFF 		bl	ILI9341_WriteString
 2902              	.LVL246:
 540:Core/Src/freertos.c **** 
 2903              		.loc 1 540 3 view .LVU616
 2904 00d6 0294     		str	r4, [sp, #8]
 2905 00d8 0197     		str	r7, [sp, #4]
 2906 00da 6B68     		ldr	r3, [r5, #4]
 2907 00dc 0093     		str	r3, [sp]
 2908 00de 2B68     		ldr	r3, [r5]
 2909 00e0 8C4A     		ldr	r2, .L139+36
 2910 00e2 3C21     		movs	r1, #60
 2911 00e4 7D20     		movs	r0, #125
 2912 00e6 FFF7FEFF 		bl	ILI9341_WriteString
 2913              	.LVL247:
 542:Core/Src/freertos.c ****   intToTime(Channel01.time, t_temp);
 2914              		.loc 1 542 3 view .LVU617
 2915 00ea 0294     		str	r4, [sp, #8]
 2916 00ec 4FF4FC69 		mov	r9, #2016
 2917 00f0 CDF80490 		str	r9, [sp, #4]
 2918 00f4 6B68     		ldr	r3, [r5, #4]
 2919 00f6 0093     		str	r3, [sp]
ARM GAS  C:\Users\Vento\AppData\Local\Temp\cc4kJFdO.s 			page 73


 2920 00f8 2B68     		ldr	r3, [r5]
 2921 00fa 874A     		ldr	r2, .L139+40
 2922 00fc 5021     		movs	r1, #80
 2923 00fe 1420     		movs	r0, #20
 2924 0100 FFF7FEFF 		bl	ILI9341_WriteString
 2925              	.LVL248:
 543:Core/Src/freertos.c ****   ILI9341_WriteString(90, 80, t_temp, Font_7x10, ILI9341_GREEN, ILI9341_BLACK);
 2926              		.loc 1 543 3 view .LVU618
 2927 0104 05A9     		add	r1, sp, #20
 2928 0106 DBF81000 		ldr	r0, [fp, #16]
 2929 010a FFF7FEFF 		bl	intToTime
 2930              	.LVL249:
 544:Core/Src/freertos.c **** 
 2931              		.loc 1 544 3 view .LVU619
 2932 010e 0294     		str	r4, [sp, #8]
 2933 0110 CDF80490 		str	r9, [sp, #4]
 2934 0114 6B68     		ldr	r3, [r5, #4]
 2935 0116 0093     		str	r3, [sp]
 2936 0118 2B68     		ldr	r3, [r5]
 2937 011a 05AA     		add	r2, sp, #20
 2938 011c 5021     		movs	r1, #80
 2939 011e 5A20     		movs	r0, #90
 2940 0120 FFF7FEFF 		bl	ILI9341_WriteString
 2941              	.LVL250:
 548:Core/Src/freertos.c **** 
 2942              		.loc 1 548 3 view .LVU620
 2943 0124 0294     		str	r4, [sp, #8]
 2944 0126 0196     		str	r6, [sp, #4]
 2945 0128 DAF80430 		ldr	r3, [r10, #4]
 2946 012c 0093     		str	r3, [sp]
 2947 012e DAF80030 		ldr	r3, [r10]
 2948 0132 7A4A     		ldr	r2, .L139+44
 2949 0134 6921     		movs	r1, #105
 2950 0136 1E20     		movs	r0, #30
 2951 0138 FFF7FEFF 		bl	ILI9341_WriteString
 2952              	.LVL251:
 550:Core/Src/freertos.c ****   ftoa(Channel02.current, temp, 1);
 2953              		.loc 1 550 3 view .LVU621
 2954 013c 0294     		str	r4, [sp, #8]
 2955 013e CDF80480 		str	r8, [sp, #4]
 2956 0142 6B68     		ldr	r3, [r5, #4]
 2957 0144 0093     		str	r3, [sp]
 2958 0146 2B68     		ldr	r3, [r5]
 2959 0148 6C4A     		ldr	r2, .L139+12
 2960 014a 8221     		movs	r1, #130
 2961 014c 1420     		movs	r0, #20
 2962 014e FFF7FEFF 		bl	ILI9341_WriteString
 2963              	.LVL252:
 551:Core/Src/freertos.c ****   ILI9341_WriteString(90, 130, temp, Font_7x10, ILI9341_YELLOW, ILI9341_BLACK);
 2964              		.loc 1 551 3 view .LVU622
 551:Core/Src/freertos.c ****   ILI9341_WriteString(90, 130, temp, Font_7x10, ILI9341_YELLOW, ILI9341_BLACK);
 2965              		.loc 1 551 17 is_stmt 0 view .LVU623
 2966 0152 DFF8CCA1 		ldr	r10, .L139+48
 551:Core/Src/freertos.c ****   ILI9341_WriteString(90, 130, temp, Font_7x10, ILI9341_YELLOW, ILI9341_BLACK);
 2967              		.loc 1 551 3 view .LVU624
 2968 0156 DAE90201 		ldrd	r0, [r10, #8]
 2969 015a FFF7FEFF 		bl	__aeabi_d2f
ARM GAS  C:\Users\Vento\AppData\Local\Temp\cc4kJFdO.s 			page 74


 2970              	.LVL253:
 2971 015e 0122     		movs	r2, #1
 2972 0160 08A9     		add	r1, sp, #32
 2973 0162 FFF7FEFF 		bl	ftoa
 2974              	.LVL254:
 552:Core/Src/freertos.c ****   ILI9341_WriteString(125, 130, "mA", Font_7x10, ILI9341_YELLOW, ILI9341_BLACK);
 2975              		.loc 1 552 3 is_stmt 1 view .LVU625
 2976 0166 0294     		str	r4, [sp, #8]
 2977 0168 CDF80480 		str	r8, [sp, #4]
 2978 016c 6B68     		ldr	r3, [r5, #4]
 2979 016e 0093     		str	r3, [sp]
 2980 0170 2B68     		ldr	r3, [r5]
 2981 0172 08AA     		add	r2, sp, #32
 2982 0174 8221     		movs	r1, #130
 2983 0176 5A20     		movs	r0, #90
 2984 0178 FFF7FEFF 		bl	ILI9341_WriteString
 2985              	.LVL255:
 553:Core/Src/freertos.c **** 
 2986              		.loc 1 553 3 view .LVU626
 2987 017c 0294     		str	r4, [sp, #8]
 2988 017e CDF80480 		str	r8, [sp, #4]
 2989 0182 6B68     		ldr	r3, [r5, #4]
 2990 0184 0093     		str	r3, [sp]
 2991 0186 2B68     		ldr	r3, [r5]
 2992 0188 5E4A     		ldr	r2, .L139+20
 2993 018a 8221     		movs	r1, #130
 2994 018c 7D20     		movs	r0, #125
 2995 018e FFF7FEFF 		bl	ILI9341_WriteString
 2996              	.LVL256:
 555:Core/Src/freertos.c ****   ftoa(Channel02.current * 220 / 1000, temp, 1);
 2997              		.loc 1 555 3 view .LVU627
 2998 0192 0294     		str	r4, [sp, #8]
 2999 0194 0197     		str	r7, [sp, #4]
 3000 0196 6B68     		ldr	r3, [r5, #4]
 3001 0198 0093     		str	r3, [sp]
 3002 019a 2B68     		ldr	r3, [r5]
 3003 019c 5A4A     		ldr	r2, .L139+24
 3004 019e 9621     		movs	r1, #150
 3005 01a0 1420     		movs	r0, #20
 3006 01a2 FFF7FEFF 		bl	ILI9341_WriteString
 3007              	.LVL257:
 556:Core/Src/freertos.c ****   ILI9341_WriteString(90, 150, temp, Font_7x10, ILI9341_RED, ILI9341_BLACK);
 3008              		.loc 1 556 3 view .LVU628
 556:Core/Src/freertos.c ****   ILI9341_WriteString(90, 150, temp, Font_7x10, ILI9341_RED, ILI9341_BLACK);
 3009              		.loc 1 556 26 is_stmt 0 view .LVU629
 3010 01a6 0022     		movs	r2, #0
 3011 01a8 584B     		ldr	r3, .L139+28
 3012 01aa DAE90201 		ldrd	r0, [r10, #8]
 3013 01ae FFF7FEFF 		bl	__aeabi_dmul
 3014              	.LVL258:
 556:Core/Src/freertos.c ****   ILI9341_WriteString(90, 150, temp, Font_7x10, ILI9341_RED, ILI9341_BLACK);
 3015              		.loc 1 556 32 view .LVU630
 3016 01b2 0022     		movs	r2, #0
 3017 01b4 564B     		ldr	r3, .L139+32
 3018 01b6 FFF7FEFF 		bl	__aeabi_ddiv
 3019              	.LVL259:
 556:Core/Src/freertos.c ****   ILI9341_WriteString(90, 150, temp, Font_7x10, ILI9341_RED, ILI9341_BLACK);
ARM GAS  C:\Users\Vento\AppData\Local\Temp\cc4kJFdO.s 			page 75


 3020              		.loc 1 556 3 view .LVU631
 3021 01ba FFF7FEFF 		bl	__aeabi_d2f
 3022              	.LVL260:
 3023 01be 0122     		movs	r2, #1
 3024 01c0 08A9     		add	r1, sp, #32
 3025 01c2 FFF7FEFF 		bl	ftoa
 3026              	.LVL261:
 557:Core/Src/freertos.c ****   ILI9341_WriteString(125, 150, "W", Font_7x10, ILI9341_RED, ILI9341_BLACK);
 3027              		.loc 1 557 3 is_stmt 1 view .LVU632
 3028 01c6 0294     		str	r4, [sp, #8]
 3029 01c8 0197     		str	r7, [sp, #4]
 3030 01ca 6B68     		ldr	r3, [r5, #4]
 3031 01cc 0093     		str	r3, [sp]
 3032 01ce 2B68     		ldr	r3, [r5]
 3033 01d0 08AA     		add	r2, sp, #32
 3034 01d2 9621     		movs	r1, #150
 3035 01d4 5A20     		movs	r0, #90
 3036 01d6 FFF7FEFF 		bl	ILI9341_WriteString
 3037              	.LVL262:
 558:Core/Src/freertos.c **** 
 3038              		.loc 1 558 3 view .LVU633
 3039 01da 0294     		str	r4, [sp, #8]
 3040 01dc 0197     		str	r7, [sp, #4]
 3041 01de 6B68     		ldr	r3, [r5, #4]
 3042 01e0 0093     		str	r3, [sp]
 3043 01e2 2B68     		ldr	r3, [r5]
 3044 01e4 4B4A     		ldr	r2, .L139+36
 3045 01e6 9621     		movs	r1, #150
 3046 01e8 7D20     		movs	r0, #125
 3047 01ea FFF7FEFF 		bl	ILI9341_WriteString
 3048              	.LVL263:
 560:Core/Src/freertos.c ****   intToTime(Channel02.time, t_temp);
 3049              		.loc 1 560 3 view .LVU634
 3050 01ee 0294     		str	r4, [sp, #8]
 3051 01f0 CDF80490 		str	r9, [sp, #4]
 3052 01f4 6B68     		ldr	r3, [r5, #4]
 3053 01f6 0093     		str	r3, [sp]
 3054 01f8 2B68     		ldr	r3, [r5]
 3055 01fa 474A     		ldr	r2, .L139+40
 3056 01fc AA21     		movs	r1, #170
 3057 01fe 1420     		movs	r0, #20
 3058 0200 FFF7FEFF 		bl	ILI9341_WriteString
 3059              	.LVL264:
 561:Core/Src/freertos.c ****   ILI9341_WriteString(90, 170, t_temp, Font_7x10, ILI9341_GREEN, ILI9341_BLACK);
 3060              		.loc 1 561 3 view .LVU635
 3061 0204 05A9     		add	r1, sp, #20
 3062 0206 DAF81000 		ldr	r0, [r10, #16]
 3063 020a FFF7FEFF 		bl	intToTime
 3064              	.LVL265:
 562:Core/Src/freertos.c **** 
 3065              		.loc 1 562 3 view .LVU636
 3066 020e 0294     		str	r4, [sp, #8]
 3067 0210 CDF80490 		str	r9, [sp, #4]
 3068 0214 6B68     		ldr	r3, [r5, #4]
 3069 0216 0093     		str	r3, [sp]
 3070 0218 2B68     		ldr	r3, [r5]
 3071 021a 05AA     		add	r2, sp, #20
ARM GAS  C:\Users\Vento\AppData\Local\Temp\cc4kJFdO.s 			page 76


 3072 021c AA21     		movs	r1, #170
 3073 021e 5A20     		movs	r0, #90
 3074 0220 FFF7FEFF 		bl	ILI9341_WriteString
 3075              	.LVL266:
 565:Core/Src/freertos.c ****   ILI9341_DrawLine(160, 120, 319, 120, ILI9341_WHITE);
 3076              		.loc 1 565 3 view .LVU637
 3077 0224 0096     		str	r6, [sp]
 3078 0226 EF23     		movs	r3, #239
 3079 0228 A022     		movs	r2, #160
 3080 022a 2146     		mov	r1, r4
 3081 022c 1046     		mov	r0, r2
 3082 022e FFF7FEFF 		bl	ILI9341_DrawLine
 3083              	.LVL267:
 566:Core/Src/freertos.c **** 
 3084              		.loc 1 566 3 view .LVU638
 3085 0232 0096     		str	r6, [sp]
 3086 0234 7823     		movs	r3, #120
 3087 0236 40F23F12 		movw	r2, #319
 3088 023a 1946     		mov	r1, r3
 3089 023c A020     		movs	r0, #160
 3090 023e FFF7FEFF 		bl	ILI9341_DrawLine
 3091              	.LVL268:
 569:Core/Src/freertos.c ****   ILI9341_DrawLine(313, 218, 315, 220, ILI9341_WHITE);
 3092              		.loc 1 569 3 view .LVU639
 3093 0242 0096     		str	r6, [sp]
 3094 0244 DC23     		movs	r3, #220
 3095 0246 40F23B12 		movw	r2, #315
 3096 024a 1946     		mov	r1, r3
 3097 024c BE20     		movs	r0, #190
 3098 024e FFF7FEFF 		bl	ILI9341_DrawLine
 3099              	.LVL269:
 570:Core/Src/freertos.c ****   ILI9341_DrawLine(313, 222, 315, 220, ILI9341_WHITE);
 3100              		.loc 1 570 3 view .LVU640
 3101 0252 0096     		str	r6, [sp]
 3102 0254 DC23     		movs	r3, #220
 3103 0256 40F23B12 		movw	r2, #315
 3104 025a DA21     		movs	r1, #218
 3105 025c 40F23910 		movw	r0, #313
 3106 0260 FFF7FEFF 		bl	ILI9341_DrawLine
 3107              	.LVL270:
 571:Core/Src/freertos.c ****   ILI9341_WriteString(310, 227, "t", Font_7x10, ILI9341_WHITE, ILI9341_BLACK);
 3108              		.loc 1 571 3 view .LVU641
 3109 0264 0096     		str	r6, [sp]
 3110 0266 DC23     		movs	r3, #220
 3111 0268 40F23B12 		movw	r2, #315
 3112 026c DE21     		movs	r1, #222
 3113 026e 40F23910 		movw	r0, #313
 3114 0272 FFF7FEFF 		bl	ILI9341_DrawLine
 3115              	.LVL271:
 572:Core/Src/freertos.c ****   ILI9341_DrawLine(250, 220, 250, 223, ILI9341_WHITE);
 3116              		.loc 1 572 3 view .LVU642
 3117 0276 0294     		str	r4, [sp, #8]
 3118 0278 0196     		str	r6, [sp, #4]
 3119 027a 6B68     		ldr	r3, [r5, #4]
 3120 027c 0093     		str	r3, [sp]
 3121 027e 2B68     		ldr	r3, [r5]
 3122 0280 284A     		ldr	r2, .L139+52
ARM GAS  C:\Users\Vento\AppData\Local\Temp\cc4kJFdO.s 			page 77


 3123 0282 E321     		movs	r1, #227
 3124 0284 4FF49B70 		mov	r0, #310
 3125 0288 FFF7FEFF 		bl	ILI9341_WriteString
 3126              	.LVL272:
 573:Core/Src/freertos.c ****   ILI9341_WriteString(243, 227, "60", Font_7x10, ILI9341_WHITE, ILI9341_BLACK);
 3127              		.loc 1 573 3 view .LVU643
 3128 028c 0096     		str	r6, [sp]
 3129 028e DF23     		movs	r3, #223
 3130 0290 FA22     		movs	r2, #250
 3131 0292 DC21     		movs	r1, #220
 3132 0294 1046     		mov	r0, r2
 3133 0296 FFF7FEFF 		bl	ILI9341_DrawLine
 3134              	.LVL273:
 574:Core/Src/freertos.c ****   
 3135              		.loc 1 574 3 view .LVU644
 3136 029a 0294     		str	r4, [sp, #8]
 3137 029c 0196     		str	r6, [sp, #4]
 3138 029e 6B68     		ldr	r3, [r5, #4]
 3139 02a0 0093     		str	r3, [sp]
 3140 02a2 2B68     		ldr	r3, [r5]
 3141 02a4 204A     		ldr	r2, .L139+56
 3142 02a6 E321     		movs	r1, #227
 3143 02a8 F320     		movs	r0, #243
 3144 02aa FFF7FEFF 		bl	ILI9341_WriteString
 3145              	.LVL274:
 576:Core/Src/freertos.c ****   ILI9341_DrawLine(190, 140, 192, 142, ILI9341_WHITE);
 3146              		.loc 1 576 3 view .LVU645
 3147 02ae 0096     		str	r6, [sp]
 3148 02b0 DC23     		movs	r3, #220
 3149 02b2 BE22     		movs	r2, #190
 3150 02b4 8C21     		movs	r1, #140
 3151 02b6 1046     		mov	r0, r2
 3152 02b8 FFF7FEFF 		bl	ILI9341_DrawLine
 3153              	.LVL275:
 577:Core/Src/freertos.c ****   ILI9341_DrawLine(190, 140, 188, 142, ILI9341_WHITE);
 3154              		.loc 1 577 3 view .LVU646
 3155 02bc 0096     		str	r6, [sp]
 3156 02be 8E23     		movs	r3, #142
 3157 02c0 C022     		movs	r2, #192
 3158 02c2 8C21     		movs	r1, #140
 3159 02c4 BE20     		movs	r0, #190
 3160 02c6 FFF7FEFF 		bl	ILI9341_DrawLine
 3161              	.LVL276:
 578:Core/Src/freertos.c ****   ILI9341_WriteString(178, 135, "P", Font_7x10, ILI9341_WHITE, ILI9341_BLACK);
 3162              		.loc 1 578 3 view .LVU647
 3163 02ca 0096     		str	r6, [sp]
 3164 02cc 8E23     		movs	r3, #142
 3165 02ce BC22     		movs	r2, #188
 3166 02d0 8C21     		movs	r1, #140
 3167 02d2 BE20     		movs	r0, #190
 3168 02d4 FFF7FEFF 		bl	ILI9341_DrawLine
 3169              	.LVL277:
 579:Core/Src/freertos.c ****   ILI9341_DrawLine(187, 180, 190, 180, ILI9341_WHITE);
 3170              		.loc 1 579 3 view .LVU648
 3171 02d8 0294     		str	r4, [sp, #8]
 3172 02da 0196     		str	r6, [sp, #4]
 3173 02dc 6B68     		ldr	r3, [r5, #4]
ARM GAS  C:\Users\Vento\AppData\Local\Temp\cc4kJFdO.s 			page 78


 3174 02de 0093     		str	r3, [sp]
 3175 02e0 2B68     		ldr	r3, [r5]
 3176 02e2 124A     		ldr	r2, .L139+60
 3177 02e4 8721     		movs	r1, #135
 3178 02e6 B220     		movs	r0, #178
 3179 02e8 FFF7FEFF 		bl	ILI9341_WriteString
 3180              	.LVL278:
 3181 02ec 20E0     		b	.L140
 3182              	.L141:
 3183 02ee 00BF     		.align	2
 3184              	.L139:
 3185 02f0 00000000 		.word	Font_11x18
 3186 02f4 00000000 		.word	.LC0
 3187 02f8 00000000 		.word	Font_7x10
 3188 02fc 00000000 		.word	.LC8
 3189 0300 00000000 		.word	.LANCHOR19
 3190 0304 0C000000 		.word	.LC9
 3191 0308 10000000 		.word	.LC10
 3192 030c 00806B40 		.word	1080786944
 3193 0310 00408F40 		.word	1083129856
 3194 0314 18000000 		.word	.LC11
 3195 0318 1C000000 		.word	.LC12
 3196 031c 0C000000 		.word	.LC1
 3197 0320 00000000 		.word	.LANCHOR20
 3198 0324 28000000 		.word	.LC13
 3199 0328 2C000000 		.word	.LC14
 3200 032c 30000000 		.word	.LC15
 3201              	.L140:
 580:Core/Src/freertos.c ****   ILI9341_WriteString(171, 176, "20", Font_7x10, ILI9341_WHITE, ILI9341_BLACK);
 3202              		.loc 1 580 3 view .LVU649
 3203 0330 0096     		str	r6, [sp]
 3204 0332 B423     		movs	r3, #180
 3205 0334 BE22     		movs	r2, #190
 3206 0336 1946     		mov	r1, r3
 3207 0338 BB20     		movs	r0, #187
 3208 033a FFF7FEFF 		bl	ILI9341_DrawLine
 3209              	.LVL279:
 581:Core/Src/freertos.c **** 
 3210              		.loc 1 581 3 view .LVU650
 3211 033e 0294     		str	r4, [sp, #8]
 3212 0340 0196     		str	r6, [sp, #4]
 3213 0342 6B68     		ldr	r3, [r5, #4]
 3214 0344 0093     		str	r3, [sp]
 3215 0346 2B68     		ldr	r3, [r5]
 3216 0348 5F4A     		ldr	r2, .L142
 3217 034a B021     		movs	r1, #176
 3218 034c AB20     		movs	r0, #171
 3219 034e FFF7FEFF 		bl	ILI9341_WriteString
 3220              	.LVL280:
 583:Core/Src/freertos.c **** 
 3221              		.loc 1 583 3 view .LVU651
 3222 0352 0294     		str	r4, [sp, #8]
 3223 0354 0196     		str	r6, [sp, #4]
 3224 0356 6B68     		ldr	r3, [r5, #4]
 3225 0358 0093     		str	r3, [sp]
 3226 035a 2B68     		ldr	r3, [r5]
 3227 035c 5B4A     		ldr	r2, .L142+4
ARM GAS  C:\Users\Vento\AppData\Local\Temp\cc4kJFdO.s 			page 79


 3228 035e E321     		movs	r1, #227
 3229 0360 B220     		movs	r0, #178
 3230 0362 FFF7FEFF 		bl	ILI9341_WriteString
 3231              	.LVL281:
 585:Core/Src/freertos.c ****   {
 3232              		.loc 1 585 3 view .LVU652
 3233              	.LBB12:
 585:Core/Src/freertos.c ****   {
 3234              		.loc 1 585 7 view .LVU653
 585:Core/Src/freertos.c ****   {
 3235              		.loc 1 585 3 is_stmt 0 view .LVU654
 3236 0366 0DE0     		b	.L134
 3237              	.LVL282:
 3238              	.L135:
 587:Core/Src/freertos.c ****   }
 3239              		.loc 1 587 5 is_stmt 1 discriminator 3 view .LVU655
 587:Core/Src/freertos.c ****   }
 3240              		.loc 1 587 51 is_stmt 0 discriminator 3 view .LVU656
 3241 0368 594B     		ldr	r3, .L142+8
 3242 036a 2344     		add	r3, r3, r4
 3243 036c 197D     		ldrb	r1, [r3, #20]	@ zero_extendqisi2
 587:Core/Src/freertos.c ****   }
 3244              		.loc 1 587 5 discriminator 3 view .LVU657
 3245 036e C1F1DC01 		rsb	r1, r1, #220
 3246 0372 4FF47842 		mov	r2, #63488
 3247 0376 89B2     		uxth	r1, r1
 3248 0378 04F1BF00 		add	r0, r4, #191
 3249 037c FFF7FEFF 		bl	ILI9341_DrawPixel
 3250              	.LVL283:
 585:Core/Src/freertos.c ****   {
 3251              		.loc 1 585 31 is_stmt 1 discriminator 3 view .LVU658
 585:Core/Src/freertos.c ****   {
 3252              		.loc 1 585 32 is_stmt 0 discriminator 3 view .LVU659
 3253 0380 0134     		adds	r4, r4, #1
 3254              	.LVL284:
 585:Core/Src/freertos.c ****   {
 3255              		.loc 1 585 32 discriminator 3 view .LVU660
 3256 0382 E4B2     		uxtb	r4, r4
 3257              	.LVL285:
 3258              	.L134:
 585:Core/Src/freertos.c ****   {
 3259              		.loc 1 585 22 is_stmt 1 discriminator 1 view .LVU661
 585:Core/Src/freertos.c ****   {
 3260              		.loc 1 585 3 is_stmt 0 discriminator 1 view .LVU662
 3261 0384 772C     		cmp	r4, #119
 3262 0386 EFD9     		bls	.L135
 3263              	.LBE12:
 591:Core/Src/freertos.c ****   ILI9341_DrawLine(313, 98, 315, 100, ILI9341_WHITE);
 3264              		.loc 1 591 3 is_stmt 1 view .LVU663
 3265 0388 4FF6FF75 		movw	r5, #65535
 3266 038c 0095     		str	r5, [sp]
 3267 038e 6423     		movs	r3, #100
 3268 0390 40F23B12 		movw	r2, #315
 3269 0394 1946     		mov	r1, r3
 3270 0396 BE20     		movs	r0, #190
 3271 0398 FFF7FEFF 		bl	ILI9341_DrawLine
 3272              	.LVL286:
ARM GAS  C:\Users\Vento\AppData\Local\Temp\cc4kJFdO.s 			page 80


 592:Core/Src/freertos.c ****   ILI9341_DrawLine(313, 102, 315, 100, ILI9341_WHITE);
 3273              		.loc 1 592 3 view .LVU664
 3274 039c 0095     		str	r5, [sp]
 3275 039e 6423     		movs	r3, #100
 3276 03a0 40F23B12 		movw	r2, #315
 3277 03a4 6221     		movs	r1, #98
 3278 03a6 40F23910 		movw	r0, #313
 3279 03aa FFF7FEFF 		bl	ILI9341_DrawLine
 3280              	.LVL287:
 593:Core/Src/freertos.c ****   ILI9341_WriteString(310, 107, "t", Font_7x10, ILI9341_WHITE, ILI9341_BLACK);
 3281              		.loc 1 593 3 view .LVU665
 3282 03ae 0095     		str	r5, [sp]
 3283 03b0 6423     		movs	r3, #100
 3284 03b2 40F23B12 		movw	r2, #315
 3285 03b6 6621     		movs	r1, #102
 3286 03b8 40F23910 		movw	r0, #313
 3287 03bc FFF7FEFF 		bl	ILI9341_DrawLine
 3288              	.LVL288:
 594:Core/Src/freertos.c ****   ILI9341_DrawLine(250, 100, 250, 103, ILI9341_WHITE);
 3289              		.loc 1 594 3 view .LVU666
 3290 03c0 444E     		ldr	r6, .L142+12
 3291 03c2 0024     		movs	r4, #0
 3292              	.LVL289:
 594:Core/Src/freertos.c ****   ILI9341_DrawLine(250, 100, 250, 103, ILI9341_WHITE);
 3293              		.loc 1 594 3 is_stmt 0 view .LVU667
 3294 03c4 0294     		str	r4, [sp, #8]
 3295 03c6 0195     		str	r5, [sp, #4]
 3296 03c8 7368     		ldr	r3, [r6, #4]
 3297 03ca 0093     		str	r3, [sp]
 3298 03cc 3368     		ldr	r3, [r6]
 3299 03ce 424A     		ldr	r2, .L142+16
 3300 03d0 6B21     		movs	r1, #107
 3301 03d2 4FF49B70 		mov	r0, #310
 3302 03d6 FFF7FEFF 		bl	ILI9341_WriteString
 3303              	.LVL290:
 595:Core/Src/freertos.c ****   ILI9341_WriteString(243, 107, "60", Font_7x10, ILI9341_WHITE, ILI9341_BLACK);
 3304              		.loc 1 595 3 is_stmt 1 view .LVU668
 3305 03da 0095     		str	r5, [sp]
 3306 03dc 6723     		movs	r3, #103
 3307 03de FA22     		movs	r2, #250
 3308 03e0 6421     		movs	r1, #100
 3309 03e2 1046     		mov	r0, r2
 3310 03e4 FFF7FEFF 		bl	ILI9341_DrawLine
 3311              	.LVL291:
 596:Core/Src/freertos.c ****   
 3312              		.loc 1 596 3 view .LVU669
 3313 03e8 0294     		str	r4, [sp, #8]
 3314 03ea 0195     		str	r5, [sp, #4]
 3315 03ec 7368     		ldr	r3, [r6, #4]
 3316 03ee 0093     		str	r3, [sp]
 3317 03f0 3368     		ldr	r3, [r6]
 3318 03f2 3A4A     		ldr	r2, .L142+20
 3319 03f4 6B21     		movs	r1, #107
 3320 03f6 F320     		movs	r0, #243
 3321 03f8 FFF7FEFF 		bl	ILI9341_WriteString
 3322              	.LVL292:
 598:Core/Src/freertos.c ****   ILI9341_DrawLine(190, 20, 192, 22, ILI9341_WHITE);
ARM GAS  C:\Users\Vento\AppData\Local\Temp\cc4kJFdO.s 			page 81


 3323              		.loc 1 598 3 view .LVU670
 3324 03fc 0095     		str	r5, [sp]
 3325 03fe 6423     		movs	r3, #100
 3326 0400 BE22     		movs	r2, #190
 3327 0402 1421     		movs	r1, #20
 3328 0404 1046     		mov	r0, r2
 3329 0406 FFF7FEFF 		bl	ILI9341_DrawLine
 3330              	.LVL293:
 599:Core/Src/freertos.c ****   ILI9341_DrawLine(190, 20, 188, 22, ILI9341_WHITE);
 3331              		.loc 1 599 3 view .LVU671
 3332 040a 0095     		str	r5, [sp]
 3333 040c 1623     		movs	r3, #22
 3334 040e C022     		movs	r2, #192
 3335 0410 1421     		movs	r1, #20
 3336 0412 BE20     		movs	r0, #190
 3337 0414 FFF7FEFF 		bl	ILI9341_DrawLine
 3338              	.LVL294:
 600:Core/Src/freertos.c ****   ILI9341_WriteString(178, 15, "P", Font_7x10, ILI9341_WHITE, ILI9341_BLACK);
 3339              		.loc 1 600 3 view .LVU672
 3340 0418 0095     		str	r5, [sp]
 3341 041a 1623     		movs	r3, #22
 3342 041c BC22     		movs	r2, #188
 3343 041e 1421     		movs	r1, #20
 3344 0420 BE20     		movs	r0, #190
 3345 0422 FFF7FEFF 		bl	ILI9341_DrawLine
 3346              	.LVL295:
 601:Core/Src/freertos.c ****   ILI9341_DrawLine(187, 60, 190, 60, ILI9341_WHITE);
 3347              		.loc 1 601 3 view .LVU673
 3348 0426 0294     		str	r4, [sp, #8]
 3349 0428 0195     		str	r5, [sp, #4]
 3350 042a 7368     		ldr	r3, [r6, #4]
 3351 042c 0093     		str	r3, [sp]
 3352 042e 3368     		ldr	r3, [r6]
 3353 0430 2B4A     		ldr	r2, .L142+24
 3354 0432 0F21     		movs	r1, #15
 3355 0434 B220     		movs	r0, #178
 3356 0436 FFF7FEFF 		bl	ILI9341_WriteString
 3357              	.LVL296:
 602:Core/Src/freertos.c ****   ILI9341_WriteString(171, 56, "20", Font_7x10, ILI9341_WHITE, ILI9341_BLACK);
 3358              		.loc 1 602 3 view .LVU674
 3359 043a 0095     		str	r5, [sp]
 3360 043c 3C23     		movs	r3, #60
 3361 043e BE22     		movs	r2, #190
 3362 0440 1946     		mov	r1, r3
 3363 0442 BB20     		movs	r0, #187
 3364 0444 FFF7FEFF 		bl	ILI9341_DrawLine
 3365              	.LVL297:
 603:Core/Src/freertos.c **** 
 3366              		.loc 1 603 3 view .LVU675
 3367 0448 0294     		str	r4, [sp, #8]
 3368 044a 0195     		str	r5, [sp, #4]
 3369 044c 7368     		ldr	r3, [r6, #4]
 3370 044e 0093     		str	r3, [sp]
 3371 0450 3368     		ldr	r3, [r6]
 3372 0452 1D4A     		ldr	r2, .L142
 3373 0454 3821     		movs	r1, #56
 3374 0456 AB20     		movs	r0, #171
ARM GAS  C:\Users\Vento\AppData\Local\Temp\cc4kJFdO.s 			page 82


 3375 0458 FFF7FEFF 		bl	ILI9341_WriteString
 3376              	.LVL298:
 605:Core/Src/freertos.c **** 
 3377              		.loc 1 605 3 view .LVU676
 3378 045c 0294     		str	r4, [sp, #8]
 3379 045e 0195     		str	r5, [sp, #4]
 3380 0460 7368     		ldr	r3, [r6, #4]
 3381 0462 0093     		str	r3, [sp]
 3382 0464 3368     		ldr	r3, [r6]
 3383 0466 194A     		ldr	r2, .L142+4
 3384 0468 6B21     		movs	r1, #107
 3385 046a B220     		movs	r0, #178
 3386 046c FFF7FEFF 		bl	ILI9341_WriteString
 3387              	.LVL299:
 607:Core/Src/freertos.c ****   {
 3388              		.loc 1 607 3 view .LVU677
 3389              	.LBB13:
 607:Core/Src/freertos.c ****   {
 3390              		.loc 1 607 7 view .LVU678
 607:Core/Src/freertos.c ****   {
 3391              		.loc 1 607 3 is_stmt 0 view .LVU679
 3392 0470 0CE0     		b	.L136
 3393              	.LVL300:
 3394              	.L137:
 609:Core/Src/freertos.c ****   }
 3395              		.loc 1 609 5 is_stmt 1 discriminator 3 view .LVU680
 609:Core/Src/freertos.c ****   }
 3396              		.loc 1 609 51 is_stmt 0 discriminator 3 view .LVU681
 3397 0472 1C4B     		ldr	r3, .L142+28
 3398 0474 2344     		add	r3, r3, r4
 3399 0476 197D     		ldrb	r1, [r3, #20]	@ zero_extendqisi2
 609:Core/Src/freertos.c ****   }
 3400              		.loc 1 609 5 discriminator 3 view .LVU682
 3401 0478 C1F16401 		rsb	r1, r1, #100
 3402 047c 1F22     		movs	r2, #31
 3403 047e 89B2     		uxth	r1, r1
 3404 0480 04F1BF00 		add	r0, r4, #191
 3405 0484 FFF7FEFF 		bl	ILI9341_DrawPixel
 3406              	.LVL301:
 607:Core/Src/freertos.c ****   {
 3407              		.loc 1 607 31 is_stmt 1 discriminator 3 view .LVU683
 607:Core/Src/freertos.c ****   {
 3408              		.loc 1 607 32 is_stmt 0 discriminator 3 view .LVU684
 3409 0488 0134     		adds	r4, r4, #1
 3410              	.LVL302:
 607:Core/Src/freertos.c ****   {
 3411              		.loc 1 607 32 discriminator 3 view .LVU685
 3412 048a E4B2     		uxtb	r4, r4
 3413              	.LVL303:
 3414              	.L136:
 607:Core/Src/freertos.c ****   {
 3415              		.loc 1 607 22 is_stmt 1 discriminator 1 view .LVU686
 607:Core/Src/freertos.c ****   {
 3416              		.loc 1 607 3 is_stmt 0 discriminator 1 view .LVU687
 3417 048c 772C     		cmp	r4, #119
 3418 048e F0D9     		bls	.L137
 3419              	.LBE13:
ARM GAS  C:\Users\Vento\AppData\Local\Temp\cc4kJFdO.s 			page 83


 613:Core/Src/freertos.c ****   ILI9341_WriteString(Info_Control.pos_x-10, Info_Control.pos_y-7, "<<", Font_11x18, ILI9341_BLACK,
 3420              		.loc 1 613 3 is_stmt 1 view .LVU688
 3421 0490 154C     		ldr	r4, .L142+32
 3422              	.LVL304:
 613:Core/Src/freertos.c ****   ILI9341_WriteString(Info_Control.pos_x-10, Info_Control.pos_y-7, "<<", Font_11x18, ILI9341_BLACK,
 3423              		.loc 1 613 3 is_stmt 0 view .LVU689
 3424 0492 6389     		ldrh	r3, [r4, #10]
 3425 0494 A288     		ldrh	r2, [r4, #4]
 3426 0496 6188     		ldrh	r1, [r4, #2]
 3427 0498 2088     		ldrh	r0, [r4]
 3428 049a FFF7FEFF 		bl	ILI9341_FillCircle
 3429              	.LVL305:
 614:Core/Src/freertos.c **** 
 3430              		.loc 1 614 3 is_stmt 1 view .LVU690
 614:Core/Src/freertos.c **** 
 3431              		.loc 1 614 35 is_stmt 0 view .LVU691
 3432 049e 2088     		ldrh	r0, [r4]
 614:Core/Src/freertos.c **** 
 3433              		.loc 1 614 58 view .LVU692
 3434 04a0 6188     		ldrh	r1, [r4, #2]
 614:Core/Src/freertos.c **** 
 3435              		.loc 1 614 3 view .LVU693
 3436 04a2 124B     		ldr	r3, .L142+36
 3437 04a4 0739     		subs	r1, r1, #7
 3438 04a6 0A38     		subs	r0, r0, #10
 3439 04a8 6289     		ldrh	r2, [r4, #10]
 3440 04aa 0292     		str	r2, [sp, #8]
 3441 04ac 0022     		movs	r2, #0
 3442 04ae 0192     		str	r2, [sp, #4]
 3443 04b0 5A68     		ldr	r2, [r3, #4]
 3444 04b2 0092     		str	r2, [sp]
 3445 04b4 1B68     		ldr	r3, [r3]
 3446 04b6 0E4A     		ldr	r2, .L142+40
 3447 04b8 89B2     		uxth	r1, r1
 3448 04ba 80B2     		uxth	r0, r0
 3449 04bc FFF7FEFF 		bl	ILI9341_WriteString
 3450              	.LVL306:
 616:Core/Src/freertos.c **** 
 3451              		.loc 1 616 1 view .LVU694
 3452 04c0 0BB0     		add	sp, sp, #44
 3453              	.LCFI32:
 3454              		.cfi_def_cfa_offset 36
 3455              		@ sp needed
 3456 04c2 BDE8F08F 		pop	{r4, r5, r6, r7, r8, r9, r10, fp, pc}
 3457              	.L143:
 3458 04c6 00BF     		.align	2
 3459              	.L142:
 3460 04c8 34000000 		.word	.LC16
 3461 04cc 38000000 		.word	.LC17
 3462 04d0 00000000 		.word	.LANCHOR20
 3463 04d4 00000000 		.word	Font_7x10
 3464 04d8 28000000 		.word	.LC13
 3465 04dc 2C000000 		.word	.LC14
 3466 04e0 30000000 		.word	.LC15
 3467 04e4 00000000 		.word	.LANCHOR19
 3468 04e8 00000000 		.word	.LANCHOR18
 3469 04ec 00000000 		.word	Font_11x18
ARM GAS  C:\Users\Vento\AppData\Local\Temp\cc4kJFdO.s 			page 84


 3470 04f0 3C000000 		.word	.LC18
 3471              		.cfi_endproc
 3472              	.LFE78:
 3474              		.section	.text.Display_Task,"ax",%progbits
 3475              		.align	1
 3476              		.global	Display_Task
 3477              		.syntax unified
 3478              		.thumb
 3479              		.thumb_func
 3480              		.fpu softvfp
 3482              	Display_Task:
 3483              	.LVL307:
 3484              	.LFB70:
 210:Core/Src/freertos.c ****   /* USER CODE BEGIN Display_Task */
 3485              		.loc 1 210 1 is_stmt 1 view -0
 3486              		.cfi_startproc
 3487              		@ Volatile: function does not return.
 3488              		@ args = 0, pretend = 0, frame = 0
 3489              		@ frame_needed = 0, uses_anonymous_args = 0
 210:Core/Src/freertos.c ****   /* USER CODE BEGIN Display_Task */
 3490              		.loc 1 210 1 is_stmt 0 view .LVU696
 3491 0000 08B5     		push	{r3, lr}
 3492              	.LCFI33:
 3493              		.cfi_def_cfa_offset 8
 3494              		.cfi_offset 3, -8
 3495              		.cfi_offset 14, -4
 212:Core/Src/freertos.c ****   osTimerStart(TimeoutHandle, LCD_TimeOut);
 3496              		.loc 1 212 3 is_stmt 1 view .LVU697
 3497 0002 4FF47A71 		mov	r1, #1000
 3498 0006 174B     		ldr	r3, .L150
 3499 0008 1868     		ldr	r0, [r3]
 3500              	.LVL308:
 212:Core/Src/freertos.c ****   osTimerStart(TimeoutHandle, LCD_TimeOut);
 3501              		.loc 1 212 3 is_stmt 0 view .LVU698
 3502 000a FFF7FEFF 		bl	osTimerStart
 3503              	.LVL309:
 213:Core/Src/freertos.c ****   ILI9341_Unselect();
 3504              		.loc 1 213 3 is_stmt 1 view .LVU699
 3505 000e 1649     		ldr	r1, .L150+4
 3506 0010 164B     		ldr	r3, .L150+8
 3507 0012 1868     		ldr	r0, [r3]
 3508 0014 FFF7FEFF 		bl	osTimerStart
 3509              	.LVL310:
 214:Core/Src/freertos.c ****   ILI9341_TouchUnselect();
 3510              		.loc 1 214 3 view .LVU700
 3511 0018 FFF7FEFF 		bl	ILI9341_Unselect
 3512              	.LVL311:
 215:Core/Src/freertos.c ****   ILI9341_Init();
 3513              		.loc 1 215 3 view .LVU701
 3514 001c FFF7FEFF 		bl	ILI9341_TouchUnselect
 3515              	.LVL312:
 216:Core/Src/freertos.c **** 
 3516              		.loc 1 216 3 view .LVU702
 3517 0020 FFF7FEFF 		bl	ILI9341_Init
 3518              	.LVL313:
 3519 0024 0BE0     		b	.L148
 3520              	.L145:
ARM GAS  C:\Users\Vento\AppData\Local\Temp\cc4kJFdO.s 			page 85


 229:Core/Src/freertos.c ****         break;
 3521              		.loc 1 229 9 view .LVU703
 3522 0026 FFF7FEFF 		bl	SettingPageDisplay
 3523              	.LVL314:
 230:Core/Src/freertos.c **** 
 3524              		.loc 1 230 9 view .LVU704
 3525              	.L147:
 239:Core/Src/freertos.c ****     vTaskSuspend(myDisplayHandle);
 3526              		.loc 1 239 5 view .LVU705
 3527 002a 4FF47A71 		mov	r1, #1000
 3528 002e 0D4B     		ldr	r3, .L150
 3529 0030 1868     		ldr	r0, [r3]
 3530 0032 FFF7FEFF 		bl	osTimerStart
 3531              	.LVL315:
 240:Core/Src/freertos.c ****   }
 3532              		.loc 1 240 5 view .LVU706
 3533 0036 0E4B     		ldr	r3, .L150+12
 3534 0038 1868     		ldr	r0, [r3]
 3535 003a FFF7FEFF 		bl	vTaskSuspend
 3536              	.LVL316:
 219:Core/Src/freertos.c ****   {
 3537              		.loc 1 219 8 view .LVU707
 3538              	.L148:
 219:Core/Src/freertos.c ****   {
 3539              		.loc 1 219 3 view .LVU708
 221:Core/Src/freertos.c ****     switch (currentPage)
 3540              		.loc 1 221 5 view .LVU709
 3541 003e 094B     		ldr	r3, .L150
 3542 0040 1868     		ldr	r0, [r3]
 3543 0042 FFF7FEFF 		bl	osTimerStop
 3544              	.LVL317:
 222:Core/Src/freertos.c ****     {
 3545              		.loc 1 222 5 view .LVU710
 3546 0046 0B4B     		ldr	r3, .L150+16
 3547 0048 1B78     		ldrb	r3, [r3]	@ zero_extendqisi2
 3548 004a 012B     		cmp	r3, #1
 3549 004c EBD0     		beq	.L145
 3550 004e 022B     		cmp	r3, #2
 3551 0050 04D0     		beq	.L146
 3552 0052 002B     		cmp	r3, #0
 3553 0054 E9D1     		bne	.L147
 225:Core/Src/freertos.c ****         break;
 3554              		.loc 1 225 9 view .LVU711
 3555 0056 FFF7FEFF 		bl	ControlPageDisplay
 3556              	.LVL318:
 226:Core/Src/freertos.c **** 
 3557              		.loc 1 226 9 view .LVU712
 3558 005a E6E7     		b	.L147
 3559              	.L146:
 233:Core/Src/freertos.c ****         break;
 3560              		.loc 1 233 9 view .LVU713
 3561 005c FFF7FEFF 		bl	InfoPageDisplay
 3562              	.LVL319:
 234:Core/Src/freertos.c **** 
 3563              		.loc 1 234 9 view .LVU714
 3564 0060 E3E7     		b	.L147
 3565              	.L151:
ARM GAS  C:\Users\Vento\AppData\Local\Temp\cc4kJFdO.s 			page 86


 3566 0062 00BF     		.align	2
 3567              	.L150:
 3568 0064 00000000 		.word	.LANCHOR4
 3569 0068 20BF0200 		.word	180000
 3570 006c 00000000 		.word	.LANCHOR6
 3571 0070 00000000 		.word	.LANCHOR8
 3572 0074 00000000 		.word	.LANCHOR17
 3573              		.cfi_endproc
 3574              	.LFE70:
 3576              		.global	BinarySem_attributes
 3577              		.section	.rodata.str1.4,"aMS",%progbits,1
 3578              		.align	2
 3579              	.LC19:
 3580 0000 42696E61 		.ascii	"BinarySem\000"
 3580      72795365 
 3580      6D00
 3581              		.global	BinarySemHandle
 3582              		.global	Timeout_attributes
 3583 000a 0000     		.align	2
 3584              	.LC20:
 3585 000c 54696D65 		.ascii	"Timeout\000"
 3585      6F757400 
 3586              		.global	TimeoutHandle
 3587              		.global	myTimer_attributes
 3588              		.align	2
 3589              	.LC21:
 3590 0014 6D795469 		.ascii	"myTimer\000"
 3590      6D657200 
 3591              		.global	myTimerHandle
 3592              		.global	Button_attributes
 3593              		.align	2
 3594              	.LC22:
 3595 001c 42757474 		.ascii	"Button\000"
 3595      6F6E00
 3596              		.global	ButtonHandle
 3597              		.global	myPLC_attributes
 3598 0023 00       		.align	2
 3599              	.LC23:
 3600 0024 6D79504C 		.ascii	"myPLC\000"
 3600      4300
 3601              		.global	myPLCHandle
 3602              		.global	myDisplay_attributes
 3603 002a 0000     		.align	2
 3604              	.LC24:
 3605 002c 6D794469 		.ascii	"myDisplay\000"
 3605      73706C61 
 3605      7900
 3606              		.global	myDisplayHandle
 3607              		.global	Channel02
 3608              		.global	Channel01
 3609              		.global	currentPage
 3610              		.global	DeviceState
 3611              		.global	Control_Setting
 3612              		.global	Info_Control
 3613              		.global	Control_Info
 3614              		.global	Channel_2
 3615              		.global	Channel_1
ARM GAS  C:\Users\Vento\AppData\Local\Temp\cc4kJFdO.s 			page 87


 3616              		.section	.bss.BinarySemHandle,"aw",%nobits
 3617              		.align	2
 3618              		.set	.LANCHOR2,. + 0
 3621              	BinarySemHandle:
 3622 0000 00000000 		.space	4
 3623              		.section	.bss.ButtonHandle,"aw",%nobits
 3624              		.align	2
 3625              		.set	.LANCHOR12,. + 0
 3628              	ButtonHandle:
 3629 0000 00000000 		.space	4
 3630              		.section	.bss.TimeoutHandle,"aw",%nobits
 3631              		.align	2
 3632              		.set	.LANCHOR6,. + 0
 3635              	TimeoutHandle:
 3636 0000 00000000 		.space	4
 3637              		.section	.bss.currentPage,"aw",%nobits
 3638              		.set	.LANCHOR17,. + 0
 3641              	currentPage:
 3642 0000 00       		.space	1
 3643              		.section	.bss.myDisplayHandle,"aw",%nobits
 3644              		.align	2
 3645              		.set	.LANCHOR8,. + 0
 3648              	myDisplayHandle:
 3649 0000 00000000 		.space	4
 3650              		.section	.bss.myPLCHandle,"aw",%nobits
 3651              		.align	2
 3652              		.set	.LANCHOR10,. + 0
 3655              	myPLCHandle:
 3656 0000 00000000 		.space	4
 3657              		.section	.bss.myTimerHandle,"aw",%nobits
 3658              		.align	2
 3659              		.set	.LANCHOR4,. + 0
 3662              	myTimerHandle:
 3663 0000 00000000 		.space	4
 3664              		.section	.data.Channel01,"aw"
 3665              		.align	3
 3666              		.set	.LANCHOR19,. + 0
 3669              	Channel01:
 3670 0000 1A       		.byte	26
 3671 0001 00000000 		.space	7
 3671      000000
 3672 0008 66666666 		.word	1717986918
 3673 000c 66466140 		.word	1080116838
 3674 0010 00000000 		.word	0
 3675 0014 00000000 		.space	124
 3675      00000000 
 3675      00000000 
 3675      00000000 
 3675      00000000 
 3676              		.section	.data.Channel02,"aw"
 3677              		.align	3
 3678              		.set	.LANCHOR20,. + 0
 3681              	Channel02:
 3682 0000 3D       		.byte	61
 3683 0001 00000000 		.space	7
 3683      000000
 3684 0008 33333333 		.word	858993459
ARM GAS  C:\Users\Vento\AppData\Local\Temp\cc4kJFdO.s 			page 88


 3685 000c 33734B40 		.word	1078686515
 3686 0010 00000000 		.word	0
 3687 0014 00000000 		.space	124
 3687      00000000 
 3687      00000000 
 3687      00000000 
 3687      00000000 
 3688              		.section	.data.Channel_1,"aw"
 3689              		.align	2
 3690              		.set	.LANCHOR13,. + 0
 3693              	Channel_1:
 3694 0000 5000     		.short	80
 3695 0002 7800     		.short	120
 3696 0004 3200     		.short	50
 3697 0006 0000     		.short	0
 3698 0008 0000     		.short	0
 3699 000a 00F8     		.short	-2048
 3700 000c 00       		.byte	0
 3701 000d 000000   		.space	3
 3702 0010 00000000 		.word	0
 3703              		.section	.data.Channel_2,"aw"
 3704              		.align	2
 3705              		.set	.LANCHOR14,. + 0
 3708              	Channel_2:
 3709 0000 F000     		.short	240
 3710 0002 7800     		.short	120
 3711 0004 3200     		.short	50
 3712 0006 0000     		.short	0
 3713 0008 0000     		.short	0
 3714 000a 00F8     		.short	-2048
 3715 000c 00       		.byte	0
 3716 000d 000000   		.space	3
 3717 0010 00000000 		.word	0
 3718              		.section	.data.Control_Info,"aw"
 3719              		.align	2
 3720              		.set	.LANCHOR16,. + 0
 3723              	Control_Info:
 3724 0000 2B01     		.short	299
 3725 0002 DB00     		.short	219
 3726 0004 1400     		.short	20
 3727 0006 0000     		.short	0
 3728 0008 0000     		.short	0
 3729 000a 7C7D     		.short	32124
 3730 000c 00       		.byte	0
 3731 000d 000000   		.space	3
 3732 0010 00000000 		.word	0
 3733              		.section	.data.Control_Setting,"aw"
 3734              		.align	2
 3735              		.set	.LANCHOR15,. + 0
 3738              	Control_Setting:
 3739 0000 A000     		.short	160
 3740 0002 CD00     		.short	205
 3741 0004 0000     		.short	0
 3742 0006 6400     		.short	100
 3743 0008 1E00     		.short	30
 3744 000a E0FF     		.short	-32
 3745 000c 00       		.byte	0
ARM GAS  C:\Users\Vento\AppData\Local\Temp\cc4kJFdO.s 			page 89


 3746 000d 000000   		.space	3
 3747 0010 00000000 		.word	0
 3748              		.section	.data.DeviceState,"aw"
 3749              		.set	.LANCHOR0,. + 0
 3752              	DeviceState:
 3753 0000 01       		.byte	1
 3754              		.section	.data.Info_Control,"aw"
 3755              		.align	2
 3756              		.set	.LANCHOR18,. + 0
 3759              	Info_Control:
 3760 0000 1400     		.short	20
 3761 0002 DB00     		.short	219
 3762 0004 1400     		.short	20
 3763 0006 0000     		.short	0
 3764 0008 0000     		.short	0
 3765 000a 7C7D     		.short	32124
 3766 000c 00       		.byte	0
 3767 000d 000000   		.space	3
 3768 0010 00000000 		.word	0
 3769              		.section	.rodata.BinarySem_attributes,"a"
 3770              		.align	2
 3771              		.set	.LANCHOR1,. + 0
 3774              	BinarySem_attributes:
 3775 0000 00000000 		.word	.LC19
 3776 0004 00000000 		.space	12
 3776      00000000 
 3776      00000000 
 3777              		.section	.rodata.Button_attributes,"a"
 3778              		.align	2
 3779              		.set	.LANCHOR11,. + 0
 3782              	Button_attributes:
 3783 0000 1C000000 		.word	.LC22
 3784 0004 00000000 		.space	16
 3784      00000000 
 3784      00000000 
 3784      00000000 
 3785 0014 58020000 		.word	600
 3786 0018 20000000 		.word	32
 3787 001c 00000000 		.space	8
 3787      00000000 
 3788              		.section	.rodata.Timeout_attributes,"a"
 3789              		.align	2
 3790              		.set	.LANCHOR5,. + 0
 3793              	Timeout_attributes:
 3794 0000 0C000000 		.word	.LC20
 3795 0004 00000000 		.space	12
 3795      00000000 
 3795      00000000 
 3796              		.section	.rodata.myDisplay_attributes,"a"
 3797              		.align	2
 3798              		.set	.LANCHOR7,. + 0
 3801              	myDisplay_attributes:
 3802 0000 2C000000 		.word	.LC24
 3803 0004 00000000 		.space	16
 3803      00000000 
 3803      00000000 
 3803      00000000 
ARM GAS  C:\Users\Vento\AppData\Local\Temp\cc4kJFdO.s 			page 90


 3804 0014 20030000 		.word	800
 3805 0018 18000000 		.word	24
 3806 001c 00000000 		.space	8
 3806      00000000 
 3807              		.section	.rodata.myPLC_attributes,"a"
 3808              		.align	2
 3809              		.set	.LANCHOR9,. + 0
 3812              	myPLC_attributes:
 3813 0000 24000000 		.word	.LC23
 3814 0004 00000000 		.space	16
 3814      00000000 
 3814      00000000 
 3814      00000000 
 3815 0014 20030000 		.word	800
 3816 0018 18000000 		.word	24
 3817 001c 00000000 		.space	8
 3817      00000000 
 3818              		.section	.rodata.myTimer_attributes,"a"
 3819              		.align	2
 3820              		.set	.LANCHOR3,. + 0
 3823              	myTimer_attributes:
 3824 0000 14000000 		.word	.LC21
 3825 0004 00000000 		.space	12
 3825      00000000 
 3825      00000000 
 3826              		.text
 3827              	.Letext0:
 3828              		.file 2 "d:\\tools\\gcc-arm-none-eabi-10.3-2021.07\\arm-none-eabi\\include\\machine\\_default_type
 3829              		.file 3 "d:\\tools\\gcc-arm-none-eabi-10.3-2021.07\\arm-none-eabi\\include\\sys\\_stdint.h"
 3830              		.file 4 "Middlewares/Third_Party/FreeRTOS/Source/portable/GCC/ARM_CM3/portmacro.h"
 3831              		.file 5 "Drivers/CMSIS/Device/ST/STM32F1xx/Include/stm32f103xb.h"
 3832              		.file 6 "Drivers/STM32F1xx_HAL_Driver/Inc/stm32f1xx_hal_def.h"
 3833              		.file 7 "Drivers/STM32F1xx_HAL_Driver/Inc/stm32f1xx_hal_dma.h"
 3834              		.file 8 "Drivers/STM32F1xx_HAL_Driver/Inc/stm32f1xx_hal_spi.h"
 3835              		.file 9 "Middlewares/Third_Party/FreeRTOS/Source/CMSIS_RTOS_V2/cmsis_os2.h"
 3836              		.file 10 "Core/Inc/font.h"
 3837              		.file 11 "Core/Inc/touch.h"
 3838              		.file 12 "Middlewares/Third_Party/FreeRTOS/Source/include/task.h"
 3839              		.file 13 "Core/Inc/lcd.h"
 3840              		.file 14 "Drivers/STM32F1xx_HAL_Driver/Inc/stm32f1xx_hal_gpio.h"
 3841              		.file 15 "d:\\tools\\gcc-arm-none-eabi-10.3-2021.07\\arm-none-eabi\\include\\math.h"
 3842              		.file 16 "Drivers/STM32F1xx_HAL_Driver/Inc/stm32f1xx_hal.h"
ARM GAS  C:\Users\Vento\AppData\Local\Temp\cc4kJFdO.s 			page 91

