ARM GAS  C:\Users\Admin\AppData\Local\Temp\ccs8frJB.s 			page 1


   1              		.cpu cortex-m3
   2              		.eabi_attribute 20, 1
   3              		.eabi_attribute 21, 1
   4              		.eabi_attribute 23, 3
   5              		.eabi_attribute 24, 1
   6              		.eabi_attribute 25, 1
   7              		.eabi_attribute 26, 1
   8              		.eabi_attribute 30, 1
   9              		.eabi_attribute 34, 1
  10              		.eabi_attribute 18, 4
  11              		.file	"touch.c"
  12              		.text
  13              	.Ltext0:
  14              		.cfi_sections	.debug_frame
  15              		.section	.text.ILI9341_TouchSelect,"ax",%progbits
  16              		.align	1
  17              		.arch armv7-m
  18              		.syntax unified
  19              		.thumb
  20              		.thumb_func
  21              		.fpu softvfp
  23              	ILI9341_TouchSelect:
  24              	.LFB68:
  25              		.file 1 "Core/Src/touch.c"
   1:Core/Src/touch.c **** /* vim: set ai et ts=4 sw=4: */
   2:Core/Src/touch.c **** 
   3:Core/Src/touch.c **** #include "stm32f1xx_hal.h"
   4:Core/Src/touch.c **** #include "touch.h"
   5:Core/Src/touch.c **** #include <stdio.h>
   6:Core/Src/touch.c **** 
   7:Core/Src/touch.c **** #define READ_X 0xD0
   8:Core/Src/touch.c **** #define READ_Y 0x90
   9:Core/Src/touch.c **** 
  10:Core/Src/touch.c **** static void ILI9341_TouchSelect() {
  26              		.loc 1 10 35 view -0
  27              		.cfi_startproc
  28              		@ args = 0, pretend = 0, frame = 0
  29              		@ frame_needed = 0, uses_anonymous_args = 0
  30 0000 08B5     		push	{r3, lr}
  31              	.LCFI0:
  32              		.cfi_def_cfa_offset 8
  33              		.cfi_offset 3, -8
  34              		.cfi_offset 14, -4
  11:Core/Src/touch.c ****     HAL_GPIO_WritePin(ILI9341_TOUCH_CS_GPIO_Port, ILI9341_TOUCH_CS_Pin, GPIO_PIN_RESET);
  35              		.loc 1 11 5 view .LVU1
  36 0002 0022     		movs	r2, #0
  37 0004 4FF48071 		mov	r1, #256
  38 0008 0148     		ldr	r0, .L3
  39 000a FFF7FEFF 		bl	HAL_GPIO_WritePin
  40              	.LVL0:
  12:Core/Src/touch.c **** }
  41              		.loc 1 12 1 is_stmt 0 view .LVU2
  42 000e 08BD     		pop	{r3, pc}
  43              	.L4:
  44              		.align	2
  45              	.L3:
  46 0010 00080140 		.word	1073809408
ARM GAS  C:\Users\Admin\AppData\Local\Temp\ccs8frJB.s 			page 2


  47              		.cfi_endproc
  48              	.LFE68:
  50              		.section	.text.ILI9341_TouchUnselect,"ax",%progbits
  51              		.align	1
  52              		.global	ILI9341_TouchUnselect
  53              		.syntax unified
  54              		.thumb
  55              		.thumb_func
  56              		.fpu softvfp
  58              	ILI9341_TouchUnselect:
  59              	.LFB69:
  13:Core/Src/touch.c **** 
  14:Core/Src/touch.c **** void ILI9341_TouchUnselect() {
  60              		.loc 1 14 30 is_stmt 1 view -0
  61              		.cfi_startproc
  62              		@ args = 0, pretend = 0, frame = 0
  63              		@ frame_needed = 0, uses_anonymous_args = 0
  64 0000 08B5     		push	{r3, lr}
  65              	.LCFI1:
  66              		.cfi_def_cfa_offset 8
  67              		.cfi_offset 3, -8
  68              		.cfi_offset 14, -4
  15:Core/Src/touch.c ****     HAL_GPIO_WritePin(ILI9341_TOUCH_CS_GPIO_Port, ILI9341_TOUCH_CS_Pin, GPIO_PIN_SET);
  69              		.loc 1 15 5 view .LVU4
  70 0002 0122     		movs	r2, #1
  71 0004 4FF48071 		mov	r1, #256
  72 0008 0148     		ldr	r0, .L7
  73 000a FFF7FEFF 		bl	HAL_GPIO_WritePin
  74              	.LVL1:
  16:Core/Src/touch.c **** }
  75              		.loc 1 16 1 is_stmt 0 view .LVU5
  76 000e 08BD     		pop	{r3, pc}
  77              	.L8:
  78              		.align	2
  79              	.L7:
  80 0010 00080140 		.word	1073809408
  81              		.cfi_endproc
  82              	.LFE69:
  84              		.section	.text.ILI9341_TouchPressed,"ax",%progbits
  85              		.align	1
  86              		.global	ILI9341_TouchPressed
  87              		.syntax unified
  88              		.thumb
  89              		.thumb_func
  90              		.fpu softvfp
  92              	ILI9341_TouchPressed:
  93              	.LFB70:
  17:Core/Src/touch.c **** 
  18:Core/Src/touch.c **** bool ILI9341_TouchPressed() {
  94              		.loc 1 18 29 is_stmt 1 view -0
  95              		.cfi_startproc
  96              		@ args = 0, pretend = 0, frame = 0
  97              		@ frame_needed = 0, uses_anonymous_args = 0
  98 0000 08B5     		push	{r3, lr}
  99              	.LCFI2:
 100              		.cfi_def_cfa_offset 8
 101              		.cfi_offset 3, -8
ARM GAS  C:\Users\Admin\AppData\Local\Temp\ccs8frJB.s 			page 3


 102              		.cfi_offset 14, -4
  19:Core/Src/touch.c ****     return HAL_GPIO_ReadPin(ILI9341_TOUCH_IRQ_GPIO_Port, ILI9341_TOUCH_IRQ_Pin) == GPIO_PIN_RESET;
 103              		.loc 1 19 5 view .LVU7
 104              		.loc 1 19 12 is_stmt 0 view .LVU8
 105 0002 0821     		movs	r1, #8
 106 0004 0348     		ldr	r0, .L11
 107 0006 FFF7FEFF 		bl	HAL_GPIO_ReadPin
 108              	.LVL2:
  20:Core/Src/touch.c **** }
 109              		.loc 1 20 1 view .LVU9
 110 000a B0FA80F0 		clz	r0, r0
 111 000e 4009     		lsrs	r0, r0, #5
 112 0010 08BD     		pop	{r3, pc}
 113              	.L12:
 114 0012 00BF     		.align	2
 115              	.L11:
 116 0014 000C0140 		.word	1073810432
 117              		.cfi_endproc
 118              	.LFE70:
 120              		.section	.text.ILI9341_TouchGetCoordinates,"ax",%progbits
 121              		.align	1
 122              		.global	ILI9341_TouchGetCoordinates
 123              		.syntax unified
 124              		.thumb
 125              		.thumb_func
 126              		.fpu softvfp
 128              	ILI9341_TouchGetCoordinates:
 129              	.LVL3:
 130              	.LFB71:
  21:Core/Src/touch.c **** 
  22:Core/Src/touch.c **** bool ILI9341_TouchGetCoordinates(uint16_t* x, uint16_t* y) {
 131              		.loc 1 22 60 is_stmt 1 view -0
 132              		.cfi_startproc
 133              		@ args = 0, pretend = 0, frame = 16
 134              		@ frame_needed = 0, uses_anonymous_args = 0
 135              		.loc 1 22 60 is_stmt 0 view .LVU11
 136 0000 2DE9F04F 		push	{r4, r5, r6, r7, r8, r9, r10, fp, lr}
 137              	.LCFI3:
 138              		.cfi_def_cfa_offset 36
 139              		.cfi_offset 4, -36
 140              		.cfi_offset 5, -32
 141              		.cfi_offset 6, -28
 142              		.cfi_offset 7, -24
 143              		.cfi_offset 8, -20
 144              		.cfi_offset 9, -16
 145              		.cfi_offset 10, -12
 146              		.cfi_offset 11, -8
 147              		.cfi_offset 14, -4
 148 0004 87B0     		sub	sp, sp, #28
 149              	.LCFI4:
 150              		.cfi_def_cfa_offset 64
 151 0006 8346     		mov	fp, r0
 152 0008 0391     		str	r1, [sp, #12]
  23:Core/Src/touch.c ****     static const uint8_t cmd_read_x[] = { READ_X };
 153              		.loc 1 23 5 is_stmt 1 view .LVU12
  24:Core/Src/touch.c ****     static const uint8_t cmd_read_y[] = { READ_Y };
 154              		.loc 1 24 5 view .LVU13
ARM GAS  C:\Users\Admin\AppData\Local\Temp\ccs8frJB.s 			page 4


  25:Core/Src/touch.c ****     static const uint8_t zeroes_tx[] = { 0x00, 0x00 };
 155              		.loc 1 25 5 view .LVU14
  26:Core/Src/touch.c **** 
  27:Core/Src/touch.c ****     ILI9341_TouchSelect();
 156              		.loc 1 27 5 view .LVU15
 157 000a FFF7FEFF 		bl	ILI9341_TouchSelect
 158              	.LVL4:
  28:Core/Src/touch.c **** 
  29:Core/Src/touch.c ****     uint32_t avg_x = 0;
 159              		.loc 1 29 5 view .LVU16
  30:Core/Src/touch.c ****     uint32_t avg_y = 0;
 160              		.loc 1 30 5 view .LVU17
  31:Core/Src/touch.c ****     uint8_t nsamples = 0;
 161              		.loc 1 31 5 view .LVU18
  32:Core/Src/touch.c ****     for(uint8_t i = 0; i < 16; i++) {
 162              		.loc 1 32 5 view .LVU19
 163              	.LBB2:
 164              		.loc 1 32 9 view .LVU20
 165              		.loc 1 32 17 is_stmt 0 view .LVU21
 166 000e 0024     		movs	r4, #0
 167              	.LBE2:
  31:Core/Src/touch.c ****     uint8_t nsamples = 0;
 168              		.loc 1 31 13 view .LVU22
 169 0010 2646     		mov	r6, r4
  30:Core/Src/touch.c ****     uint32_t avg_y = 0;
 170              		.loc 1 30 14 view .LVU23
 171 0012 A046     		mov	r8, r4
  29:Core/Src/touch.c ****     uint32_t avg_y = 0;
 172              		.loc 1 29 14 view .LVU24
 173 0014 A246     		mov	r10, r4
 174              	.LVL5:
 175              	.L14:
 176              	.LBB4:
 177              		.loc 1 32 24 is_stmt 1 discriminator 1 view .LVU25
 178              		.loc 1 32 5 is_stmt 0 discriminator 1 view .LVU26
 179 0016 0F2C     		cmp	r4, #15
 180 0018 35D8     		bhi	.L16
 181              	.LBB3:
  33:Core/Src/touch.c ****         if(!ILI9341_TouchPressed())
 182              		.loc 1 33 9 is_stmt 1 view .LVU27
 183              		.loc 1 33 13 is_stmt 0 view .LVU28
 184 001a FFF7FEFF 		bl	ILI9341_TouchPressed
 185              	.LVL6:
 186              		.loc 1 33 11 view .LVU29
 187 001e 90B3     		cbz	r0, .L16
  34:Core/Src/touch.c ****             break;
  35:Core/Src/touch.c **** 
  36:Core/Src/touch.c ****         nsamples++;
 188              		.loc 1 36 9 is_stmt 1 view .LVU30
 189              		.loc 1 36 17 is_stmt 0 view .LVU31
 190 0020 0136     		adds	r6, r6, #1
 191              	.LVL7:
 192              		.loc 1 36 17 view .LVU32
 193 0022 F6B2     		uxtb	r6, r6
 194              	.LVL8:
  37:Core/Src/touch.c **** 
  38:Core/Src/touch.c ****         HAL_SPI_Transmit(&ILI9341_TOUCH_SPI_PORT, (uint8_t*)cmd_read_y, sizeof(cmd_read_y), HAL_MAX
ARM GAS  C:\Users\Admin\AppData\Local\Temp\ccs8frJB.s 			page 5


 195              		.loc 1 38 9 is_stmt 1 view .LVU33
 196 0024 2D4D     		ldr	r5, .L21
 197 0026 4FF0FF33 		mov	r3, #-1
 198 002a 0122     		movs	r2, #1
 199 002c 2C49     		ldr	r1, .L21+4
 200 002e 2846     		mov	r0, r5
 201 0030 FFF7FEFF 		bl	HAL_SPI_Transmit
 202              	.LVL9:
  39:Core/Src/touch.c ****         uint8_t y_raw[2];
 203              		.loc 1 39 9 view .LVU34
  40:Core/Src/touch.c ****         HAL_SPI_TransmitReceive(&ILI9341_TOUCH_SPI_PORT, (uint8_t*)zeroes_tx, y_raw, sizeof(y_raw),
 204              		.loc 1 40 9 view .LVU35
 205 0034 DFF8B490 		ldr	r9, .L21+16
 206 0038 4FF0FF37 		mov	r7, #-1
 207 003c 0097     		str	r7, [sp]
 208 003e 0223     		movs	r3, #2
 209 0040 04AA     		add	r2, sp, #16
 210 0042 4946     		mov	r1, r9
 211 0044 2846     		mov	r0, r5
 212 0046 FFF7FEFF 		bl	HAL_SPI_TransmitReceive
 213              	.LVL10:
  41:Core/Src/touch.c **** 
  42:Core/Src/touch.c ****         HAL_SPI_Transmit(&ILI9341_TOUCH_SPI_PORT, (uint8_t*)cmd_read_x, sizeof(cmd_read_x), HAL_MAX
 214              		.loc 1 42 9 view .LVU36
 215 004a 3B46     		mov	r3, r7
 216 004c 0122     		movs	r2, #1
 217 004e 2549     		ldr	r1, .L21+8
 218 0050 2846     		mov	r0, r5
 219 0052 FFF7FEFF 		bl	HAL_SPI_Transmit
 220              	.LVL11:
  43:Core/Src/touch.c ****         uint8_t x_raw[2];
 221              		.loc 1 43 9 view .LVU37
  44:Core/Src/touch.c ****         HAL_SPI_TransmitReceive(&ILI9341_TOUCH_SPI_PORT, (uint8_t*)zeroes_tx, x_raw, sizeof(x_raw),
 222              		.loc 1 44 9 view .LVU38
 223 0056 0097     		str	r7, [sp]
 224 0058 0223     		movs	r3, #2
 225 005a 05AA     		add	r2, sp, #20
 226 005c 4946     		mov	r1, r9
 227 005e 2846     		mov	r0, r5
 228 0060 FFF7FEFF 		bl	HAL_SPI_TransmitReceive
 229              	.LVL12:
  45:Core/Src/touch.c **** 
  46:Core/Src/touch.c ****         avg_x += (((uint16_t)x_raw[0]) << 8) | ((uint16_t)x_raw[1]);
 230              		.loc 1 46 9 view .LVU39
 231              		.loc 1 46 35 is_stmt 0 view .LVU40
 232 0064 9DF81420 		ldrb	r2, [sp, #20]	@ zero_extendqisi2
 233              		.loc 1 46 64 view .LVU41
 234 0068 9DF81530 		ldrb	r3, [sp, #21]	@ zero_extendqisi2
 235              		.loc 1 46 46 view .LVU42
 236 006c 43EA0223 		orr	r3, r3, r2, lsl #8
 237              		.loc 1 46 15 view .LVU43
 238 0070 9A44     		add	r10, r10, r3
 239              	.LVL13:
  47:Core/Src/touch.c ****         avg_y += (((uint16_t)y_raw[0]) << 8) | ((uint16_t)y_raw[1]);
 240              		.loc 1 47 9 is_stmt 1 view .LVU44
 241              		.loc 1 47 35 is_stmt 0 view .LVU45
 242 0072 9DF81020 		ldrb	r2, [sp, #16]	@ zero_extendqisi2
ARM GAS  C:\Users\Admin\AppData\Local\Temp\ccs8frJB.s 			page 6


 243              		.loc 1 47 64 view .LVU46
 244 0076 9DF81130 		ldrb	r3, [sp, #17]	@ zero_extendqisi2
 245              		.loc 1 47 46 view .LVU47
 246 007a 43EA0223 		orr	r3, r3, r2, lsl #8
 247              		.loc 1 47 15 view .LVU48
 248 007e 9844     		add	r8, r8, r3
 249              	.LVL14:
 250              		.loc 1 47 15 view .LVU49
 251              	.LBE3:
  32:Core/Src/touch.c ****         if(!ILI9341_TouchPressed())
 252              		.loc 1 32 32 is_stmt 1 view .LVU50
  32:Core/Src/touch.c ****         if(!ILI9341_TouchPressed())
 253              		.loc 1 32 33 is_stmt 0 view .LVU51
 254 0080 0134     		adds	r4, r4, #1
 255              	.LVL15:
  32:Core/Src/touch.c ****         if(!ILI9341_TouchPressed())
 256              		.loc 1 32 33 view .LVU52
 257 0082 E4B2     		uxtb	r4, r4
 258              	.LVL16:
  32:Core/Src/touch.c ****         if(!ILI9341_TouchPressed())
 259              		.loc 1 32 33 view .LVU53
 260 0084 C7E7     		b	.L14
 261              	.L16:
  32:Core/Src/touch.c ****         if(!ILI9341_TouchPressed())
 262              		.loc 1 32 33 view .LVU54
 263              	.LBE4:
  48:Core/Src/touch.c ****     }
  49:Core/Src/touch.c **** 
  50:Core/Src/touch.c ****     ILI9341_TouchUnselect();
 264              		.loc 1 50 5 is_stmt 1 view .LVU55
 265 0086 FFF7FEFF 		bl	ILI9341_TouchUnselect
 266              	.LVL17:
  51:Core/Src/touch.c **** 
  52:Core/Src/touch.c ****     if(nsamples < 16)
 267              		.loc 1 52 5 view .LVU56
 268              		.loc 1 52 7 is_stmt 0 view .LVU57
 269 008a 0F2E     		cmp	r6, #15
 270 008c 23D9     		bls	.L19
  53:Core/Src/touch.c ****         return false;
  54:Core/Src/touch.c **** 
  55:Core/Src/touch.c ****     uint32_t raw_x = (avg_x / 16);
 271              		.loc 1 55 5 is_stmt 1 view .LVU58
 272              	.LVL18:
  56:Core/Src/touch.c ****     // if(raw_x < ILI9341_TOUCH_MIN_RAW_X) raw_x = ILI9341_TOUCH_MIN_RAW_X;
  57:Core/Src/touch.c ****     // if(raw_x > ILI9341_TOUCH_MAX_RAW_X) raw_x = ILI9341_TOUCH_MAX_RAW_X;
  58:Core/Src/touch.c **** 
  59:Core/Src/touch.c ****     uint32_t raw_y = (avg_y / 16);
 273              		.loc 1 59 5 view .LVU59
 274              		.loc 1 59 14 is_stmt 0 view .LVU60
 275 008e 4FEA1818 		lsr	r8, r8, #4
 276              	.LVL19:
  60:Core/Src/touch.c ****     // if(raw_y < ILI9341_TOUCH_MIN_RAW_X) raw_y = ILI9341_TOUCH_MIN_RAW_Y;
  61:Core/Src/touch.c ****     // if(raw_y > ILI9341_TOUCH_MAX_RAW_Y) raw_y = ILI9341_TOUCH_MAX_RAW_Y;
  62:Core/Src/touch.c **** 
  63:Core/Src/touch.c ****     //char data[50];
  64:Core/Src/touch.c ****     // Uncomment this line to calibrate touchscreen:
  65:Core/Src/touch.c ****     //sprintf(data, "raw_x = %ld, raw_y = %ld\n\0", raw_x, raw_y);
ARM GAS  C:\Users\Admin\AppData\Local\Temp\ccs8frJB.s 			page 7


  66:Core/Src/touch.c ****     //uint32_t data[] = {raw_x, raw_y};
  67:Core/Src/touch.c ****     //HAL_UART_Transmit(&huart3, data, sizeof(data), 10);
  68:Core/Src/touch.c **** 
  69:Core/Src/touch.c ****     *x = (raw_x - ILI9341_TOUCH_MIN_RAW_X) * ILI9341_TOUCH_SCALE_X / (ILI9341_TOUCH_MAX_RAW_X - ILI
 277              		.loc 1 69 5 is_stmt 1 view .LVU61
 278              		.loc 1 69 44 is_stmt 0 view .LVU62
 279 0092 2AF00F03 		bic	r3, r10, #15
 280 0096 A3EB1A1A 		sub	r10, r3, r10, lsr #4
 281              	.LVL20:
 282              		.loc 1 69 44 view .LVU63
 283 009a 4FEA0A1A 		lsl	r10, r10, #4
 284 009e AAF5AF2A 		sub	r10, r10, #358400
 285 00a2 AAF5C86A 		sub	r10, r10, #1600
 286              		.loc 1 69 68 view .LVU64
 287 00a6 104A     		ldr	r2, .L21+12
 288 00a8 A2FB0A3A 		umull	r3, r10, r2, r10
 289 00ac 4FEA9A3A 		lsr	r10, r10, #14
 290              		.loc 1 69 8 view .LVU65
 291 00b0 ABF800A0 		strh	r10, [fp]	@ movhi
  70:Core/Src/touch.c ****     *y = (raw_y - ILI9341_TOUCH_MIN_RAW_Y) * ILI9341_TOUCH_SCALE_Y / (ILI9341_TOUCH_MAX_RAW_Y - ILI
 292              		.loc 1 70 5 is_stmt 1 view .LVU66
 293              		.loc 1 70 44 is_stmt 0 view .LVU67
 294 00b4 08EB8808 		add	r8, r8, r8, lsl #2
 295              	.LVL21:
 296              		.loc 1 70 44 view .LVU68
 297 00b8 4FEA8818 		lsl	r8, r8, #6
 298 00bc A8F51C23 		sub	r3, r8, #638976
 299 00c0 A3F58063 		sub	r3, r3, #1024
 300              		.loc 1 70 68 view .LVU69
 301 00c4 A2FB0323 		umull	r2, r3, r2, r3
 302 00c8 9B0B     		lsrs	r3, r3, #14
 303              		.loc 1 70 8 view .LVU70
 304 00ca 039A     		ldr	r2, [sp, #12]
 305 00cc 1380     		strh	r3, [r2]	@ movhi
  71:Core/Src/touch.c **** 
  72:Core/Src/touch.c ****     return true;
 306              		.loc 1 72 5 is_stmt 1 view .LVU71
 307              		.loc 1 72 12 is_stmt 0 view .LVU72
 308 00ce 0120     		movs	r0, #1
 309              	.L18:
  73:Core/Src/touch.c **** }
 310              		.loc 1 73 1 view .LVU73
 311 00d0 07B0     		add	sp, sp, #28
 312              	.LCFI5:
 313              		.cfi_remember_state
 314              		.cfi_def_cfa_offset 36
 315              		@ sp needed
 316 00d2 BDE8F08F 		pop	{r4, r5, r6, r7, r8, r9, r10, fp, pc}
 317              	.LVL22:
 318              	.L19:
 319              	.LCFI6:
 320              		.cfi_restore_state
  53:Core/Src/touch.c **** 
 321              		.loc 1 53 16 view .LVU74
 322 00d6 0020     		movs	r0, #0
 323 00d8 FAE7     		b	.L18
 324              	.L22:
ARM GAS  C:\Users\Admin\AppData\Local\Temp\ccs8frJB.s 			page 8


 325 00da 00BF     		.align	2
 326              	.L21:
 327 00dc 00000000 		.word	hspi2
 328 00e0 00000000 		.word	.LANCHOR0
 329 00e4 00000000 		.word	.LANCHOR2
 330 00e8 27072E8E 		.word	-1909586137
 331 00ec 00000000 		.word	.LANCHOR1
 332              		.cfi_endproc
 333              	.LFE71:
 335              		.section	.rodata.cmd_read_x.7600,"a"
 336              		.align	2
 337              		.set	.LANCHOR2,. + 0
 340              	cmd_read_x.7600:
 341 0000 D0       		.ascii	"\320"
 342              		.section	.rodata.cmd_read_y.7601,"a"
 343              		.align	2
 344              		.set	.LANCHOR0,. + 0
 347              	cmd_read_y.7601:
 348 0000 90       		.ascii	"\220"
 349              		.section	.rodata.zeroes_tx.7602,"a"
 350              		.align	2
 351              		.set	.LANCHOR1,. + 0
 354              	zeroes_tx.7602:
 355 0000 0000     		.space	2
 356              		.text
 357              	.Letext0:
 358              		.file 2 "c:\\program files (x86)\\gnu arm embedded toolchain\\9 2020-q2-update\\arm-none-eabi\\inc
 359              		.file 3 "c:\\program files (x86)\\gnu arm embedded toolchain\\9 2020-q2-update\\arm-none-eabi\\inc
 360              		.file 4 "Drivers/CMSIS/Include/core_cm3.h"
 361              		.file 5 "Drivers/CMSIS/Device/ST/STM32F1xx/Include/system_stm32f1xx.h"
 362              		.file 6 "Drivers/CMSIS/Device/ST/STM32F1xx/Include/stm32f103xb.h"
 363              		.file 7 "Drivers/STM32F1xx_HAL_Driver/Inc/stm32f1xx_hal_def.h"
 364              		.file 8 "Drivers/STM32F1xx_HAL_Driver/Inc/stm32f1xx_hal_gpio.h"
 365              		.file 9 "Drivers/STM32F1xx_HAL_Driver/Inc/stm32f1xx_hal_dma.h"
 366              		.file 10 "Drivers/STM32F1xx_HAL_Driver/Inc/stm32f1xx_hal_spi.h"
 367              		.file 11 "Drivers/STM32F1xx_HAL_Driver/Inc/stm32f1xx_hal_uart.h"
 368              		.file 12 "Drivers/STM32F1xx_HAL_Driver/Inc/stm32f1xx_hal.h"
 369              		.file 13 "Core/Inc/font.h"
 370              		.file 14 "Core/Inc/lcd.h"
 371              		.file 15 "Core/Inc/touch.h"
 372              		.file 16 "c:\\program files (x86)\\gnu arm embedded toolchain\\9 2020-q2-update\\lib\\gcc\\arm-non
 373              		.file 17 "c:\\program files (x86)\\gnu arm embedded toolchain\\9 2020-q2-update\\arm-none-eabi\\in
 374              		.file 18 "c:\\program files (x86)\\gnu arm embedded toolchain\\9 2020-q2-update\\arm-none-eabi\\in
 375              		.file 19 "c:\\program files (x86)\\gnu arm embedded toolchain\\9 2020-q2-update\\arm-none-eabi\\in
ARM GAS  C:\Users\Admin\AppData\Local\Temp\ccs8frJB.s 			page 9

