                                      1 ;--------------------------------------------------------
                                      2 ; File Created by SDCC : free open source ANSI-C Compiler
                                      3 ; Version 4.1.0 #12072 (MINGW64)
                                      4 ;--------------------------------------------------------
                                      5 	.module stm8s_adc1
                                      6 	.optsdcc -mstm8
                                      7 	
                                      8 ;--------------------------------------------------------
                                      9 ; Public variables in this module
                                     10 ;--------------------------------------------------------
                                     11 	.globl _assert_failed
                                     12 	.globl _ADC1_DeInit
                                     13 	.globl _ADC1_Init
                                     14 	.globl _ADC1_Cmd
                                     15 	.globl _ADC1_ScanModeCmd
                                     16 	.globl _ADC1_DataBufferCmd
                                     17 	.globl _ADC1_ITConfig
                                     18 	.globl _ADC1_PrescalerConfig
                                     19 	.globl _ADC1_SchmittTriggerConfig
                                     20 	.globl _ADC1_ConversionConfig
                                     21 	.globl _ADC1_ExternalTriggerConfig
                                     22 	.globl _ADC1_StartConversion
                                     23 	.globl _ADC1_GetConversionValue
                                     24 	.globl _ADC1_AWDChannelConfig
                                     25 	.globl _ADC1_SetHighThreshold
                                     26 	.globl _ADC1_SetLowThreshold
                                     27 	.globl _ADC1_GetBufferValue
                                     28 	.globl _ADC1_GetAWDChannelStatus
                                     29 	.globl _ADC1_GetFlagStatus
                                     30 	.globl _ADC1_ClearFlag
                                     31 	.globl _ADC1_GetITStatus
                                     32 	.globl _ADC1_ClearITPendingBit
                                     33 ;--------------------------------------------------------
                                     34 ; ram data
                                     35 ;--------------------------------------------------------
                                     36 	.area DATA
                                     37 ;--------------------------------------------------------
                                     38 ; ram data
                                     39 ;--------------------------------------------------------
                                     40 	.area INITIALIZED
                                     41 ;--------------------------------------------------------
                                     42 ; absolute external ram data
                                     43 ;--------------------------------------------------------
                                     44 	.area DABS (ABS)
                                     45 
                                     46 ; default segment ordering for linker
                                     47 	.area HOME
                                     48 	.area GSINIT
                                     49 	.area GSFINAL
                                     50 	.area CONST
                                     51 	.area INITIALIZER
                                     52 	.area CODE
                                     53 
                                     54 ;--------------------------------------------------------
                                     55 ; global & static initialisations
                                     56 ;--------------------------------------------------------
                                     57 	.area HOME
                                     58 	.area GSINIT
                                     59 	.area GSFINAL
                                     60 	.area GSINIT
                                     61 ;--------------------------------------------------------
                                     62 ; Home
                                     63 ;--------------------------------------------------------
                                     64 	.area HOME
                                     65 	.area HOME
                                     66 ;--------------------------------------------------------
                                     67 ; code
                                     68 ;--------------------------------------------------------
                                     69 	.area CODE
                                     70 ;	C:\Users\Admin\.platformio\packages\framework-ststm8spl\Libraries\STM8S_StdPeriph_Driver\src\stm8s_adc1.c: 52: void ADC1_DeInit(void)
                                     71 ;	-----------------------------------------
                                     72 ;	 function ADC1_DeInit
                                     73 ;	-----------------------------------------
      000000                         74 _ADC1_DeInit:
                                     75 ;	C:\Users\Admin\.platformio\packages\framework-ststm8spl\Libraries\STM8S_StdPeriph_Driver\src\stm8s_adc1.c: 54: ADC1->CSR  = ADC1_CSR_RESET_VALUE;
      000000 35 00 54 00      [ 1]   76 	mov	0x5400+0, #0x00
                                     77 ;	C:\Users\Admin\.platformio\packages\framework-ststm8spl\Libraries\STM8S_StdPeriph_Driver\src\stm8s_adc1.c: 55: ADC1->CR1  = ADC1_CR1_RESET_VALUE;
      000004 35 00 54 01      [ 1]   78 	mov	0x5401+0, #0x00
                                     79 ;	C:\Users\Admin\.platformio\packages\framework-ststm8spl\Libraries\STM8S_StdPeriph_Driver\src\stm8s_adc1.c: 56: ADC1->CR2  = ADC1_CR2_RESET_VALUE;
      000008 35 00 54 02      [ 1]   80 	mov	0x5402+0, #0x00
                                     81 ;	C:\Users\Admin\.platformio\packages\framework-ststm8spl\Libraries\STM8S_StdPeriph_Driver\src\stm8s_adc1.c: 57: ADC1->CR3  = ADC1_CR3_RESET_VALUE;
      00000C 35 00 54 03      [ 1]   82 	mov	0x5403+0, #0x00
                                     83 ;	C:\Users\Admin\.platformio\packages\framework-ststm8spl\Libraries\STM8S_StdPeriph_Driver\src\stm8s_adc1.c: 58: ADC1->TDRH = ADC1_TDRH_RESET_VALUE;
      000010 35 00 54 06      [ 1]   84 	mov	0x5406+0, #0x00
                                     85 ;	C:\Users\Admin\.platformio\packages\framework-ststm8spl\Libraries\STM8S_StdPeriph_Driver\src\stm8s_adc1.c: 59: ADC1->TDRL = ADC1_TDRL_RESET_VALUE;
      000014 35 00 54 07      [ 1]   86 	mov	0x5407+0, #0x00
                                     87 ;	C:\Users\Admin\.platformio\packages\framework-ststm8spl\Libraries\STM8S_StdPeriph_Driver\src\stm8s_adc1.c: 60: ADC1->HTRH = ADC1_HTRH_RESET_VALUE;
      000018 35 FF 54 08      [ 1]   88 	mov	0x5408+0, #0xff
                                     89 ;	C:\Users\Admin\.platformio\packages\framework-ststm8spl\Libraries\STM8S_StdPeriph_Driver\src\stm8s_adc1.c: 61: ADC1->HTRL = ADC1_HTRL_RESET_VALUE;
      00001C 35 03 54 09      [ 1]   90 	mov	0x5409+0, #0x03
                                     91 ;	C:\Users\Admin\.platformio\packages\framework-ststm8spl\Libraries\STM8S_StdPeriph_Driver\src\stm8s_adc1.c: 62: ADC1->LTRH = ADC1_LTRH_RESET_VALUE;
      000020 35 00 54 0A      [ 1]   92 	mov	0x540a+0, #0x00
                                     93 ;	C:\Users\Admin\.platformio\packages\framework-ststm8spl\Libraries\STM8S_StdPeriph_Driver\src\stm8s_adc1.c: 63: ADC1->LTRL = ADC1_LTRL_RESET_VALUE;
      000024 35 00 54 0B      [ 1]   94 	mov	0x540b+0, #0x00
                                     95 ;	C:\Users\Admin\.platformio\packages\framework-ststm8spl\Libraries\STM8S_StdPeriph_Driver\src\stm8s_adc1.c: 64: ADC1->AWCRH = ADC1_AWCRH_RESET_VALUE;
      000028 35 00 54 0E      [ 1]   96 	mov	0x540e+0, #0x00
                                     97 ;	C:\Users\Admin\.platformio\packages\framework-ststm8spl\Libraries\STM8S_StdPeriph_Driver\src\stm8s_adc1.c: 65: ADC1->AWCRL = ADC1_AWCRL_RESET_VALUE;
      00002C 35 00 54 0F      [ 1]   98 	mov	0x540f+0, #0x00
                                     99 ;	C:\Users\Admin\.platformio\packages\framework-ststm8spl\Libraries\STM8S_StdPeriph_Driver\src\stm8s_adc1.c: 66: }
      000030 81               [ 4]  100 	ret
                                    101 ;	C:\Users\Admin\.platformio\packages\framework-ststm8spl\Libraries\STM8S_StdPeriph_Driver\src\stm8s_adc1.c: 88: void ADC1_Init(ADC1_ConvMode_TypeDef ADC1_ConversionMode, ADC1_Channel_TypeDef ADC1_Channel, ADC1_PresSel_TypeDef ADC1_PrescalerSelection, ADC1_ExtTrig_TypeDef ADC1_ExtTrigger, FunctionalState ADC1_ExtTriggerState, ADC1_Align_TypeDef ADC1_Align, ADC1_SchmittTrigg_TypeDef ADC1_SchmittTriggerChannel, FunctionalState ADC1_SchmittTriggerState)
                                    102 ;	-----------------------------------------
                                    103 ;	 function ADC1_Init
                                    104 ;	-----------------------------------------
      000031                        105 _ADC1_Init:
                                    106 ;	C:\Users\Admin\.platformio\packages\framework-ststm8spl\Libraries\STM8S_StdPeriph_Driver\src\stm8s_adc1.c: 91: assert_param(IS_ADC1_CONVERSIONMODE_OK(ADC1_ConversionMode));
      000031 0D 03            [ 1]  107 	tnz	(0x03, sp)
      000033 27 14            [ 1]  108 	jreq	00104$
      000035 7B 03            [ 1]  109 	ld	a, (0x03, sp)
      000037 4A               [ 1]  110 	dec	a
      000038 27 0F            [ 1]  111 	jreq	00104$
      00003A 4B 5B            [ 1]  112 	push	#0x5b
      00003C 5F               [ 1]  113 	clrw	x
      00003D 89               [ 2]  114 	pushw	x
      00003E 4B 00            [ 1]  115 	push	#0x00
      000040 4Br00            [ 1]  116 	push	#<(___str_0+0)
      000042 4Bs00            [ 1]  117 	push	#((___str_0+0) >> 8)
      000044 CDr00r00         [ 4]  118 	call	_assert_failed
      000047 5B 06            [ 2]  119 	addw	sp, #6
      000049                        120 00104$:
                                    121 ;	C:\Users\Admin\.platformio\packages\framework-ststm8spl\Libraries\STM8S_StdPeriph_Driver\src\stm8s_adc1.c: 92: assert_param(IS_ADC1_CHANNEL_OK(ADC1_Channel));
      000049 0D 04            [ 1]  122 	tnz	(0x04, sp)
      00004B 27 4A            [ 1]  123 	jreq	00109$
      00004D 7B 04            [ 1]  124 	ld	a, (0x04, sp)
      00004F 4A               [ 1]  125 	dec	a
      000050 27 45            [ 1]  126 	jreq	00109$
      000052 7B 04            [ 1]  127 	ld	a, (0x04, sp)
      000054 A1 02            [ 1]  128 	cp	a, #0x02
      000056 27 3F            [ 1]  129 	jreq	00109$
      000058 7B 04            [ 1]  130 	ld	a, (0x04, sp)
      00005A A1 03            [ 1]  131 	cp	a, #0x03
      00005C 27 39            [ 1]  132 	jreq	00109$
      00005E 7B 04            [ 1]  133 	ld	a, (0x04, sp)
      000060 A1 04            [ 1]  134 	cp	a, #0x04
      000062 27 33            [ 1]  135 	jreq	00109$
      000064 7B 04            [ 1]  136 	ld	a, (0x04, sp)
      000066 A1 05            [ 1]  137 	cp	a, #0x05
      000068 27 2D            [ 1]  138 	jreq	00109$
      00006A 7B 04            [ 1]  139 	ld	a, (0x04, sp)
      00006C A1 06            [ 1]  140 	cp	a, #0x06
      00006E 27 27            [ 1]  141 	jreq	00109$
      000070 7B 04            [ 1]  142 	ld	a, (0x04, sp)
      000072 A1 07            [ 1]  143 	cp	a, #0x07
      000074 27 21            [ 1]  144 	jreq	00109$
      000076 7B 04            [ 1]  145 	ld	a, (0x04, sp)
      000078 A1 08            [ 1]  146 	cp	a, #0x08
      00007A 27 1B            [ 1]  147 	jreq	00109$
      00007C 7B 04            [ 1]  148 	ld	a, (0x04, sp)
      00007E A1 0C            [ 1]  149 	cp	a, #0x0c
      000080 27 15            [ 1]  150 	jreq	00109$
      000082 7B 04            [ 1]  151 	ld	a, (0x04, sp)
      000084 A1 09            [ 1]  152 	cp	a, #0x09
      000086 27 0F            [ 1]  153 	jreq	00109$
      000088 4B 5C            [ 1]  154 	push	#0x5c
      00008A 5F               [ 1]  155 	clrw	x
      00008B 89               [ 2]  156 	pushw	x
      00008C 4B 00            [ 1]  157 	push	#0x00
      00008E 4Br00            [ 1]  158 	push	#<(___str_0+0)
      000090 4Bs00            [ 1]  159 	push	#((___str_0+0) >> 8)
      000092 CDr00r00         [ 4]  160 	call	_assert_failed
      000095 5B 06            [ 2]  161 	addw	sp, #6
      000097                        162 00109$:
                                    163 ;	C:\Users\Admin\.platformio\packages\framework-ststm8spl\Libraries\STM8S_StdPeriph_Driver\src\stm8s_adc1.c: 93: assert_param(IS_ADC1_PRESSEL_OK(ADC1_PrescalerSelection));
      000097 0D 05            [ 1]  164 	tnz	(0x05, sp)
      000099 27 39            [ 1]  165 	jreq	00141$
      00009B 7B 05            [ 1]  166 	ld	a, (0x05, sp)
      00009D A1 10            [ 1]  167 	cp	a, #0x10
      00009F 27 33            [ 1]  168 	jreq	00141$
      0000A1 7B 05            [ 1]  169 	ld	a, (0x05, sp)
      0000A3 A1 20            [ 1]  170 	cp	a, #0x20
      0000A5 27 2D            [ 1]  171 	jreq	00141$
      0000A7 7B 05            [ 1]  172 	ld	a, (0x05, sp)
      0000A9 A1 30            [ 1]  173 	cp	a, #0x30
      0000AB 27 27            [ 1]  174 	jreq	00141$
      0000AD 7B 05            [ 1]  175 	ld	a, (0x05, sp)
      0000AF A1 40            [ 1]  176 	cp	a, #0x40
      0000B1 27 21            [ 1]  177 	jreq	00141$
      0000B3 7B 05            [ 1]  178 	ld	a, (0x05, sp)
      0000B5 A1 50            [ 1]  179 	cp	a, #0x50
      0000B7 27 1B            [ 1]  180 	jreq	00141$
      0000B9 7B 05            [ 1]  181 	ld	a, (0x05, sp)
      0000BB A1 60            [ 1]  182 	cp	a, #0x60
      0000BD 27 15            [ 1]  183 	jreq	00141$
      0000BF 7B 05            [ 1]  184 	ld	a, (0x05, sp)
      0000C1 A1 70            [ 1]  185 	cp	a, #0x70
      0000C3 27 0F            [ 1]  186 	jreq	00141$
      0000C5 4B 5D            [ 1]  187 	push	#0x5d
      0000C7 5F               [ 1]  188 	clrw	x
      0000C8 89               [ 2]  189 	pushw	x
      0000C9 4B 00            [ 1]  190 	push	#0x00
      0000CB 4Br00            [ 1]  191 	push	#<(___str_0+0)
      0000CD 4Bs00            [ 1]  192 	push	#((___str_0+0) >> 8)
      0000CF CDr00r00         [ 4]  193 	call	_assert_failed
      0000D2 5B 06            [ 2]  194 	addw	sp, #6
      0000D4                        195 00141$:
                                    196 ;	C:\Users\Admin\.platformio\packages\framework-ststm8spl\Libraries\STM8S_StdPeriph_Driver\src\stm8s_adc1.c: 94: assert_param(IS_ADC1_EXTTRIG_OK(ADC1_ExtTrigger));
      0000D4 0D 06            [ 1]  197 	tnz	(0x06, sp)
      0000D6 27 15            [ 1]  198 	jreq	00164$
      0000D8 7B 06            [ 1]  199 	ld	a, (0x06, sp)
      0000DA A1 10            [ 1]  200 	cp	a, #0x10
      0000DC 27 0F            [ 1]  201 	jreq	00164$
      0000DE 4B 5E            [ 1]  202 	push	#0x5e
      0000E0 5F               [ 1]  203 	clrw	x
      0000E1 89               [ 2]  204 	pushw	x
      0000E2 4B 00            [ 1]  205 	push	#0x00
      0000E4 4Br00            [ 1]  206 	push	#<(___str_0+0)
      0000E6 4Bs00            [ 1]  207 	push	#((___str_0+0) >> 8)
      0000E8 CDr00r00         [ 4]  208 	call	_assert_failed
      0000EB 5B 06            [ 2]  209 	addw	sp, #6
      0000ED                        210 00164$:
                                    211 ;	C:\Users\Admin\.platformio\packages\framework-ststm8spl\Libraries\STM8S_StdPeriph_Driver\src\stm8s_adc1.c: 95: assert_param(IS_FUNCTIONALSTATE_OK(((ADC1_ExtTriggerState))));
      0000ED 0D 07            [ 1]  212 	tnz	(0x07, sp)
      0000EF 27 14            [ 1]  213 	jreq	00169$
      0000F1 7B 07            [ 1]  214 	ld	a, (0x07, sp)
      0000F3 4A               [ 1]  215 	dec	a
      0000F4 27 0F            [ 1]  216 	jreq	00169$
      0000F6 4B 5F            [ 1]  217 	push	#0x5f
      0000F8 5F               [ 1]  218 	clrw	x
      0000F9 89               [ 2]  219 	pushw	x
      0000FA 4B 00            [ 1]  220 	push	#0x00
      0000FC 4Br00            [ 1]  221 	push	#<(___str_0+0)
      0000FE 4Bs00            [ 1]  222 	push	#((___str_0+0) >> 8)
      000100 CDr00r00         [ 4]  223 	call	_assert_failed
      000103 5B 06            [ 2]  224 	addw	sp, #6
      000105                        225 00169$:
                                    226 ;	C:\Users\Admin\.platformio\packages\framework-ststm8spl\Libraries\STM8S_StdPeriph_Driver\src\stm8s_adc1.c: 96: assert_param(IS_ADC1_ALIGN_OK(ADC1_Align));
      000105 0D 08            [ 1]  227 	tnz	(0x08, sp)
      000107 27 15            [ 1]  228 	jreq	00174$
      000109 7B 08            [ 1]  229 	ld	a, (0x08, sp)
      00010B A1 08            [ 1]  230 	cp	a, #0x08
      00010D 27 0F            [ 1]  231 	jreq	00174$
      00010F 4B 60            [ 1]  232 	push	#0x60
      000111 5F               [ 1]  233 	clrw	x
      000112 89               [ 2]  234 	pushw	x
      000113 4B 00            [ 1]  235 	push	#0x00
      000115 4Br00            [ 1]  236 	push	#<(___str_0+0)
      000117 4Bs00            [ 1]  237 	push	#((___str_0+0) >> 8)
      000119 CDr00r00         [ 4]  238 	call	_assert_failed
      00011C 5B 06            [ 2]  239 	addw	sp, #6
      00011E                        240 00174$:
                                    241 ;	C:\Users\Admin\.platformio\packages\framework-ststm8spl\Libraries\STM8S_StdPeriph_Driver\src\stm8s_adc1.c: 97: assert_param(IS_ADC1_SCHMITTTRIG_OK(ADC1_SchmittTriggerChannel));
      00011E 0D 09            [ 1]  242 	tnz	(0x09, sp)
      000120 27 4F            [ 1]  243 	jreq	00179$
      000122 7B 09            [ 1]  244 	ld	a, (0x09, sp)
      000124 4A               [ 1]  245 	dec	a
      000125 27 4A            [ 1]  246 	jreq	00179$
      000127 7B 09            [ 1]  247 	ld	a, (0x09, sp)
      000129 A1 02            [ 1]  248 	cp	a, #0x02
      00012B 27 44            [ 1]  249 	jreq	00179$
      00012D 7B 09            [ 1]  250 	ld	a, (0x09, sp)
      00012F A1 03            [ 1]  251 	cp	a, #0x03
      000131 27 3E            [ 1]  252 	jreq	00179$
      000133 7B 09            [ 1]  253 	ld	a, (0x09, sp)
      000135 A1 04            [ 1]  254 	cp	a, #0x04
      000137 27 38            [ 1]  255 	jreq	00179$
      000139 7B 09            [ 1]  256 	ld	a, (0x09, sp)
      00013B A1 05            [ 1]  257 	cp	a, #0x05
      00013D 27 32            [ 1]  258 	jreq	00179$
      00013F 7B 09            [ 1]  259 	ld	a, (0x09, sp)
      000141 A1 06            [ 1]  260 	cp	a, #0x06
      000143 27 2C            [ 1]  261 	jreq	00179$
      000145 7B 09            [ 1]  262 	ld	a, (0x09, sp)
      000147 A1 07            [ 1]  263 	cp	a, #0x07
      000149 27 26            [ 1]  264 	jreq	00179$
      00014B 7B 09            [ 1]  265 	ld	a, (0x09, sp)
      00014D A1 08            [ 1]  266 	cp	a, #0x08
      00014F 27 20            [ 1]  267 	jreq	00179$
      000151 7B 09            [ 1]  268 	ld	a, (0x09, sp)
      000153 A1 0C            [ 1]  269 	cp	a, #0x0c
      000155 27 1A            [ 1]  270 	jreq	00179$
      000157 7B 09            [ 1]  271 	ld	a, (0x09, sp)
      000159 4C               [ 1]  272 	inc	a
      00015A 27 15            [ 1]  273 	jreq	00179$
      00015C 7B 09            [ 1]  274 	ld	a, (0x09, sp)
      00015E A1 09            [ 1]  275 	cp	a, #0x09
      000160 27 0F            [ 1]  276 	jreq	00179$
      000162 4B 61            [ 1]  277 	push	#0x61
      000164 5F               [ 1]  278 	clrw	x
      000165 89               [ 2]  279 	pushw	x
      000166 4B 00            [ 1]  280 	push	#0x00
      000168 4Br00            [ 1]  281 	push	#<(___str_0+0)
      00016A 4Bs00            [ 1]  282 	push	#((___str_0+0) >> 8)
      00016C CDr00r00         [ 4]  283 	call	_assert_failed
      00016F 5B 06            [ 2]  284 	addw	sp, #6
      000171                        285 00179$:
                                    286 ;	C:\Users\Admin\.platformio\packages\framework-ststm8spl\Libraries\STM8S_StdPeriph_Driver\src\stm8s_adc1.c: 98: assert_param(IS_FUNCTIONALSTATE_OK(ADC1_SchmittTriggerState));
      000171 0D 0A            [ 1]  287 	tnz	(0x0a, sp)
      000173 27 14            [ 1]  288 	jreq	00214$
      000175 7B 0A            [ 1]  289 	ld	a, (0x0a, sp)
      000177 4A               [ 1]  290 	dec	a
      000178 27 0F            [ 1]  291 	jreq	00214$
      00017A 4B 62            [ 1]  292 	push	#0x62
      00017C 5F               [ 1]  293 	clrw	x
      00017D 89               [ 2]  294 	pushw	x
      00017E 4B 00            [ 1]  295 	push	#0x00
      000180 4Br00            [ 1]  296 	push	#<(___str_0+0)
      000182 4Bs00            [ 1]  297 	push	#((___str_0+0) >> 8)
      000184 CDr00r00         [ 4]  298 	call	_assert_failed
      000187 5B 06            [ 2]  299 	addw	sp, #6
      000189                        300 00214$:
                                    301 ;	C:\Users\Admin\.platformio\packages\framework-ststm8spl\Libraries\STM8S_StdPeriph_Driver\src\stm8s_adc1.c: 103: ADC1_ConversionConfig(ADC1_ConversionMode, ADC1_Channel, ADC1_Align);
      000189 7B 08            [ 1]  302 	ld	a, (0x08, sp)
      00018B 88               [ 1]  303 	push	a
      00018C 7B 05            [ 1]  304 	ld	a, (0x05, sp)
      00018E 88               [ 1]  305 	push	a
      00018F 7B 05            [ 1]  306 	ld	a, (0x05, sp)
      000191 88               [ 1]  307 	push	a
      000192 CDr03rCE         [ 4]  308 	call	_ADC1_ConversionConfig
      000195 5B 03            [ 2]  309 	addw	sp, #3
                                    310 ;	C:\Users\Admin\.platformio\packages\framework-ststm8spl\Libraries\STM8S_StdPeriph_Driver\src\stm8s_adc1.c: 105: ADC1_PrescalerConfig(ADC1_PrescalerSelection);
      000197 7B 05            [ 1]  311 	ld	a, (0x05, sp)
      000199 88               [ 1]  312 	push	a
      00019A CDr02r8F         [ 4]  313 	call	_ADC1_PrescalerConfig
      00019D 84               [ 1]  314 	pop	a
                                    315 ;	C:\Users\Admin\.platformio\packages\framework-ststm8spl\Libraries\STM8S_StdPeriph_Driver\src\stm8s_adc1.c: 110: ADC1_ExternalTriggerConfig(ADC1_ExtTrigger, ADC1_ExtTriggerState);
      00019E 7B 07            [ 1]  316 	ld	a, (0x07, sp)
      0001A0 88               [ 1]  317 	push	a
      0001A1 7B 07            [ 1]  318 	ld	a, (0x07, sp)
      0001A3 88               [ 1]  319 	push	a
      0001A4 CDr04r8D         [ 4]  320 	call	_ADC1_ExternalTriggerConfig
      0001A7 85               [ 2]  321 	popw	x
                                    322 ;	C:\Users\Admin\.platformio\packages\framework-ststm8spl\Libraries\STM8S_StdPeriph_Driver\src\stm8s_adc1.c: 115: ADC1_SchmittTriggerConfig(ADC1_SchmittTriggerChannel, ADC1_SchmittTriggerState);
      0001A8 7B 0A            [ 1]  323 	ld	a, (0x0a, sp)
      0001AA 88               [ 1]  324 	push	a
      0001AB 7B 0A            [ 1]  325 	ld	a, (0x0a, sp)
      0001AD 88               [ 1]  326 	push	a
      0001AE CDr02rDD         [ 4]  327 	call	_ADC1_SchmittTriggerConfig
      0001B1 85               [ 2]  328 	popw	x
                                    329 ;	C:\Users\Admin\.platformio\packages\framework-ststm8spl\Libraries\STM8S_StdPeriph_Driver\src\stm8s_adc1.c: 118: ADC1->CR1 |= ADC1_CR1_ADON;
      0001B2 72 10 54 01      [ 1]  330 	bset	21505, #0
                                    331 ;	C:\Users\Admin\.platformio\packages\framework-ststm8spl\Libraries\STM8S_StdPeriph_Driver\src\stm8s_adc1.c: 119: }
      0001B6 81               [ 4]  332 	ret
                                    333 ;	C:\Users\Admin\.platformio\packages\framework-ststm8spl\Libraries\STM8S_StdPeriph_Driver\src\stm8s_adc1.c: 126: void ADC1_Cmd(FunctionalState NewState)
                                    334 ;	-----------------------------------------
                                    335 ;	 function ADC1_Cmd
                                    336 ;	-----------------------------------------
      0001B7                        337 _ADC1_Cmd:
                                    338 ;	C:\Users\Admin\.platformio\packages\framework-ststm8spl\Libraries\STM8S_StdPeriph_Driver\src\stm8s_adc1.c: 129: assert_param(IS_FUNCTIONALSTATE_OK(NewState));
      0001B7 0D 03            [ 1]  339 	tnz	(0x03, sp)
      0001B9 27 14            [ 1]  340 	jreq	00107$
      0001BB 7B 03            [ 1]  341 	ld	a, (0x03, sp)
      0001BD 4A               [ 1]  342 	dec	a
      0001BE 27 0F            [ 1]  343 	jreq	00107$
      0001C0 4B 81            [ 1]  344 	push	#0x81
      0001C2 5F               [ 1]  345 	clrw	x
      0001C3 89               [ 2]  346 	pushw	x
      0001C4 4B 00            [ 1]  347 	push	#0x00
      0001C6 4Br00            [ 1]  348 	push	#<(___str_0+0)
      0001C8 4Bs00            [ 1]  349 	push	#((___str_0+0) >> 8)
      0001CA CDr00r00         [ 4]  350 	call	_assert_failed
      0001CD 5B 06            [ 2]  351 	addw	sp, #6
      0001CF                        352 00107$:
                                    353 ;	C:\Users\Admin\.platformio\packages\framework-ststm8spl\Libraries\STM8S_StdPeriph_Driver\src\stm8s_adc1.c: 133: ADC1->CR1 |= ADC1_CR1_ADON;
      0001CF C6 54 01         [ 1]  354 	ld	a, 0x5401
                                    355 ;	C:\Users\Admin\.platformio\packages\framework-ststm8spl\Libraries\STM8S_StdPeriph_Driver\src\stm8s_adc1.c: 131: if (NewState != DISABLE)
      0001D2 0D 03            [ 1]  356 	tnz	(0x03, sp)
      0001D4 27 06            [ 1]  357 	jreq	00102$
                                    358 ;	C:\Users\Admin\.platformio\packages\framework-ststm8spl\Libraries\STM8S_StdPeriph_Driver\src\stm8s_adc1.c: 133: ADC1->CR1 |= ADC1_CR1_ADON;
      0001D6 AA 01            [ 1]  359 	or	a, #0x01
      0001D8 C7 54 01         [ 1]  360 	ld	0x5401, a
      0001DB 81               [ 4]  361 	ret
      0001DC                        362 00102$:
                                    363 ;	C:\Users\Admin\.platformio\packages\framework-ststm8spl\Libraries\STM8S_StdPeriph_Driver\src\stm8s_adc1.c: 137: ADC1->CR1 &= (uint8_t)(~ADC1_CR1_ADON);
      0001DC A4 FE            [ 1]  364 	and	a, #0xfe
      0001DE C7 54 01         [ 1]  365 	ld	0x5401, a
                                    366 ;	C:\Users\Admin\.platformio\packages\framework-ststm8spl\Libraries\STM8S_StdPeriph_Driver\src\stm8s_adc1.c: 139: }
      0001E1 81               [ 4]  367 	ret
                                    368 ;	C:\Users\Admin\.platformio\packages\framework-ststm8spl\Libraries\STM8S_StdPeriph_Driver\src\stm8s_adc1.c: 146: void ADC1_ScanModeCmd(FunctionalState NewState)
                                    369 ;	-----------------------------------------
                                    370 ;	 function ADC1_ScanModeCmd
                                    371 ;	-----------------------------------------
      0001E2                        372 _ADC1_ScanModeCmd:
                                    373 ;	C:\Users\Admin\.platformio\packages\framework-ststm8spl\Libraries\STM8S_StdPeriph_Driver\src\stm8s_adc1.c: 149: assert_param(IS_FUNCTIONALSTATE_OK(NewState));
      0001E2 0D 03            [ 1]  374 	tnz	(0x03, sp)
      0001E4 27 14            [ 1]  375 	jreq	00107$
      0001E6 7B 03            [ 1]  376 	ld	a, (0x03, sp)
      0001E8 4A               [ 1]  377 	dec	a
      0001E9 27 0F            [ 1]  378 	jreq	00107$
      0001EB 4B 95            [ 1]  379 	push	#0x95
      0001ED 5F               [ 1]  380 	clrw	x
      0001EE 89               [ 2]  381 	pushw	x
      0001EF 4B 00            [ 1]  382 	push	#0x00
      0001F1 4Br00            [ 1]  383 	push	#<(___str_0+0)
      0001F3 4Bs00            [ 1]  384 	push	#((___str_0+0) >> 8)
      0001F5 CDr00r00         [ 4]  385 	call	_assert_failed
      0001F8 5B 06            [ 2]  386 	addw	sp, #6
      0001FA                        387 00107$:
                                    388 ;	C:\Users\Admin\.platformio\packages\framework-ststm8spl\Libraries\STM8S_StdPeriph_Driver\src\stm8s_adc1.c: 153: ADC1->CR2 |= ADC1_CR2_SCAN;
      0001FA C6 54 02         [ 1]  389 	ld	a, 0x5402
                                    390 ;	C:\Users\Admin\.platformio\packages\framework-ststm8spl\Libraries\STM8S_StdPeriph_Driver\src\stm8s_adc1.c: 151: if (NewState != DISABLE)
      0001FD 0D 03            [ 1]  391 	tnz	(0x03, sp)
      0001FF 27 06            [ 1]  392 	jreq	00102$
                                    393 ;	C:\Users\Admin\.platformio\packages\framework-ststm8spl\Libraries\STM8S_StdPeriph_Driver\src\stm8s_adc1.c: 153: ADC1->CR2 |= ADC1_CR2_SCAN;
      000201 AA 02            [ 1]  394 	or	a, #0x02
      000203 C7 54 02         [ 1]  395 	ld	0x5402, a
      000206 81               [ 4]  396 	ret
      000207                        397 00102$:
                                    398 ;	C:\Users\Admin\.platformio\packages\framework-ststm8spl\Libraries\STM8S_StdPeriph_Driver\src\stm8s_adc1.c: 157: ADC1->CR2 &= (uint8_t)(~ADC1_CR2_SCAN);
      000207 A4 FD            [ 1]  399 	and	a, #0xfd
      000209 C7 54 02         [ 1]  400 	ld	0x5402, a
                                    401 ;	C:\Users\Admin\.platformio\packages\framework-ststm8spl\Libraries\STM8S_StdPeriph_Driver\src\stm8s_adc1.c: 159: }
      00020C 81               [ 4]  402 	ret
                                    403 ;	C:\Users\Admin\.platformio\packages\framework-ststm8spl\Libraries\STM8S_StdPeriph_Driver\src\stm8s_adc1.c: 166: void ADC1_DataBufferCmd(FunctionalState NewState)
                                    404 ;	-----------------------------------------
                                    405 ;	 function ADC1_DataBufferCmd
                                    406 ;	-----------------------------------------
      00020D                        407 _ADC1_DataBufferCmd:
                                    408 ;	C:\Users\Admin\.platformio\packages\framework-ststm8spl\Libraries\STM8S_StdPeriph_Driver\src\stm8s_adc1.c: 169: assert_param(IS_FUNCTIONALSTATE_OK(NewState));
      00020D 0D 03            [ 1]  409 	tnz	(0x03, sp)
      00020F 27 14            [ 1]  410 	jreq	00107$
      000211 7B 03            [ 1]  411 	ld	a, (0x03, sp)
      000213 4A               [ 1]  412 	dec	a
      000214 27 0F            [ 1]  413 	jreq	00107$
      000216 4B A9            [ 1]  414 	push	#0xa9
      000218 5F               [ 1]  415 	clrw	x
      000219 89               [ 2]  416 	pushw	x
      00021A 4B 00            [ 1]  417 	push	#0x00
      00021C 4Br00            [ 1]  418 	push	#<(___str_0+0)
      00021E 4Bs00            [ 1]  419 	push	#((___str_0+0) >> 8)
      000220 CDr00r00         [ 4]  420 	call	_assert_failed
      000223 5B 06            [ 2]  421 	addw	sp, #6
      000225                        422 00107$:
                                    423 ;	C:\Users\Admin\.platformio\packages\framework-ststm8spl\Libraries\STM8S_StdPeriph_Driver\src\stm8s_adc1.c: 173: ADC1->CR3 |= ADC1_CR3_DBUF;
      000225 C6 54 03         [ 1]  424 	ld	a, 0x5403
                                    425 ;	C:\Users\Admin\.platformio\packages\framework-ststm8spl\Libraries\STM8S_StdPeriph_Driver\src\stm8s_adc1.c: 171: if (NewState != DISABLE)
      000228 0D 03            [ 1]  426 	tnz	(0x03, sp)
      00022A 27 06            [ 1]  427 	jreq	00102$
                                    428 ;	C:\Users\Admin\.platformio\packages\framework-ststm8spl\Libraries\STM8S_StdPeriph_Driver\src\stm8s_adc1.c: 173: ADC1->CR3 |= ADC1_CR3_DBUF;
      00022C AA 80            [ 1]  429 	or	a, #0x80
      00022E C7 54 03         [ 1]  430 	ld	0x5403, a
      000231 81               [ 4]  431 	ret
      000232                        432 00102$:
                                    433 ;	C:\Users\Admin\.platformio\packages\framework-ststm8spl\Libraries\STM8S_StdPeriph_Driver\src\stm8s_adc1.c: 177: ADC1->CR3 &= (uint8_t)(~ADC1_CR3_DBUF);
      000232 A4 7F            [ 1]  434 	and	a, #0x7f
      000234 C7 54 03         [ 1]  435 	ld	0x5403, a
                                    436 ;	C:\Users\Admin\.platformio\packages\framework-ststm8spl\Libraries\STM8S_StdPeriph_Driver\src\stm8s_adc1.c: 179: }
      000237 81               [ 4]  437 	ret
                                    438 ;	C:\Users\Admin\.platformio\packages\framework-ststm8spl\Libraries\STM8S_StdPeriph_Driver\src\stm8s_adc1.c: 190: void ADC1_ITConfig(ADC1_IT_TypeDef ADC1_IT, FunctionalState NewState)
                                    439 ;	-----------------------------------------
                                    440 ;	 function ADC1_ITConfig
                                    441 ;	-----------------------------------------
      000238                        442 _ADC1_ITConfig:
      000238 88               [ 1]  443 	push	a
                                    444 ;	C:\Users\Admin\.platformio\packages\framework-ststm8spl\Libraries\STM8S_StdPeriph_Driver\src\stm8s_adc1.c: 193: assert_param(IS_ADC1_IT_OK(ADC1_IT));
      000239 1E 04            [ 2]  445 	ldw	x, (0x04, sp)
      00023B A3 00 20         [ 2]  446 	cpw	x, #0x0020
      00023E 27 18            [ 1]  447 	jreq	00107$
      000240 A3 00 10         [ 2]  448 	cpw	x, #0x0010
      000243 27 13            [ 1]  449 	jreq	00107$
      000245 89               [ 2]  450 	pushw	x
      000246 4B C1            [ 1]  451 	push	#0xc1
      000248 4B 00            [ 1]  452 	push	#0x00
      00024A 4B 00            [ 1]  453 	push	#0x00
      00024C 4B 00            [ 1]  454 	push	#0x00
      00024E 4Br00            [ 1]  455 	push	#<(___str_0+0)
      000250 4Bs00            [ 1]  456 	push	#((___str_0+0) >> 8)
      000252 CDr00r00         [ 4]  457 	call	_assert_failed
      000255 5B 06            [ 2]  458 	addw	sp, #6
      000257 85               [ 2]  459 	popw	x
      000258                        460 00107$:
                                    461 ;	C:\Users\Admin\.platformio\packages\framework-ststm8spl\Libraries\STM8S_StdPeriph_Driver\src\stm8s_adc1.c: 194: assert_param(IS_FUNCTIONALSTATE_OK(NewState));
      000258 0D 06            [ 1]  462 	tnz	(0x06, sp)
      00025A 27 18            [ 1]  463 	jreq	00112$
      00025C 7B 06            [ 1]  464 	ld	a, (0x06, sp)
      00025E 4A               [ 1]  465 	dec	a
      00025F 27 13            [ 1]  466 	jreq	00112$
      000261 89               [ 2]  467 	pushw	x
      000262 4B C2            [ 1]  468 	push	#0xc2
      000264 4B 00            [ 1]  469 	push	#0x00
      000266 4B 00            [ 1]  470 	push	#0x00
      000268 4B 00            [ 1]  471 	push	#0x00
      00026A 4Br00            [ 1]  472 	push	#<(___str_0+0)
      00026C 4Bs00            [ 1]  473 	push	#((___str_0+0) >> 8)
      00026E CDr00r00         [ 4]  474 	call	_assert_failed
      000271 5B 06            [ 2]  475 	addw	sp, #6
      000273 85               [ 2]  476 	popw	x
      000274                        477 00112$:
                                    478 ;	C:\Users\Admin\.platformio\packages\framework-ststm8spl\Libraries\STM8S_StdPeriph_Driver\src\stm8s_adc1.c: 199: ADC1->CSR |= (uint8_t)ADC1_IT;
      000274 C6 54 00         [ 1]  479 	ld	a, 0x5400
      000277 6B 01            [ 1]  480 	ld	(0x01, sp), a
                                    481 ;	C:\Users\Admin\.platformio\packages\framework-ststm8spl\Libraries\STM8S_StdPeriph_Driver\src\stm8s_adc1.c: 196: if (NewState != DISABLE)
      000279 0D 06            [ 1]  482 	tnz	(0x06, sp)
      00027B 27 09            [ 1]  483 	jreq	00102$
                                    484 ;	C:\Users\Admin\.platformio\packages\framework-ststm8spl\Libraries\STM8S_StdPeriph_Driver\src\stm8s_adc1.c: 199: ADC1->CSR |= (uint8_t)ADC1_IT;
      00027D 7B 05            [ 1]  485 	ld	a, (0x05, sp)
      00027F 1A 01            [ 1]  486 	or	a, (0x01, sp)
      000281 C7 54 00         [ 1]  487 	ld	0x5400, a
      000284 20 07            [ 2]  488 	jra	00104$
      000286                        489 00102$:
                                    490 ;	C:\Users\Admin\.platformio\packages\framework-ststm8spl\Libraries\STM8S_StdPeriph_Driver\src\stm8s_adc1.c: 204: ADC1->CSR &= (uint8_t)((uint16_t)~(uint16_t)ADC1_IT);
      000286 53               [ 2]  491 	cplw	x
      000287 9F               [ 1]  492 	ld	a, xl
      000288 14 01            [ 1]  493 	and	a, (0x01, sp)
      00028A C7 54 00         [ 1]  494 	ld	0x5400, a
      00028D                        495 00104$:
                                    496 ;	C:\Users\Admin\.platformio\packages\framework-ststm8spl\Libraries\STM8S_StdPeriph_Driver\src\stm8s_adc1.c: 206: }
      00028D 84               [ 1]  497 	pop	a
      00028E 81               [ 4]  498 	ret
                                    499 ;	C:\Users\Admin\.platformio\packages\framework-ststm8spl\Libraries\STM8S_StdPeriph_Driver\src\stm8s_adc1.c: 214: void ADC1_PrescalerConfig(ADC1_PresSel_TypeDef ADC1_Prescaler)
                                    500 ;	-----------------------------------------
                                    501 ;	 function ADC1_PrescalerConfig
                                    502 ;	-----------------------------------------
      00028F                        503 _ADC1_PrescalerConfig:
                                    504 ;	C:\Users\Admin\.platformio\packages\framework-ststm8spl\Libraries\STM8S_StdPeriph_Driver\src\stm8s_adc1.c: 217: assert_param(IS_ADC1_PRESSEL_OK(ADC1_Prescaler));
      00028F 0D 03            [ 1]  505 	tnz	(0x03, sp)
      000291 27 39            [ 1]  506 	jreq	00104$
      000293 7B 03            [ 1]  507 	ld	a, (0x03, sp)
      000295 A1 10            [ 1]  508 	cp	a, #0x10
      000297 27 33            [ 1]  509 	jreq	00104$
      000299 7B 03            [ 1]  510 	ld	a, (0x03, sp)
      00029B A1 20            [ 1]  511 	cp	a, #0x20
      00029D 27 2D            [ 1]  512 	jreq	00104$
      00029F 7B 03            [ 1]  513 	ld	a, (0x03, sp)
      0002A1 A1 30            [ 1]  514 	cp	a, #0x30
      0002A3 27 27            [ 1]  515 	jreq	00104$
      0002A5 7B 03            [ 1]  516 	ld	a, (0x03, sp)
      0002A7 A1 40            [ 1]  517 	cp	a, #0x40
      0002A9 27 21            [ 1]  518 	jreq	00104$
      0002AB 7B 03            [ 1]  519 	ld	a, (0x03, sp)
      0002AD A1 50            [ 1]  520 	cp	a, #0x50
      0002AF 27 1B            [ 1]  521 	jreq	00104$
      0002B1 7B 03            [ 1]  522 	ld	a, (0x03, sp)
      0002B3 A1 60            [ 1]  523 	cp	a, #0x60
      0002B5 27 15            [ 1]  524 	jreq	00104$
      0002B7 7B 03            [ 1]  525 	ld	a, (0x03, sp)
      0002B9 A1 70            [ 1]  526 	cp	a, #0x70
      0002BB 27 0F            [ 1]  527 	jreq	00104$
      0002BD 4B D9            [ 1]  528 	push	#0xd9
      0002BF 5F               [ 1]  529 	clrw	x
      0002C0 89               [ 2]  530 	pushw	x
      0002C1 4B 00            [ 1]  531 	push	#0x00
      0002C3 4Br00            [ 1]  532 	push	#<(___str_0+0)
      0002C5 4Bs00            [ 1]  533 	push	#((___str_0+0) >> 8)
      0002C7 CDr00r00         [ 4]  534 	call	_assert_failed
      0002CA 5B 06            [ 2]  535 	addw	sp, #6
      0002CC                        536 00104$:
                                    537 ;	C:\Users\Admin\.platformio\packages\framework-ststm8spl\Libraries\STM8S_StdPeriph_Driver\src\stm8s_adc1.c: 220: ADC1->CR1 &= (uint8_t)(~ADC1_CR1_SPSEL);
      0002CC C6 54 01         [ 1]  538 	ld	a, 0x5401
      0002CF A4 8F            [ 1]  539 	and	a, #0x8f
      0002D1 C7 54 01         [ 1]  540 	ld	0x5401, a
                                    541 ;	C:\Users\Admin\.platformio\packages\framework-ststm8spl\Libraries\STM8S_StdPeriph_Driver\src\stm8s_adc1.c: 222: ADC1->CR1 |= (uint8_t)(ADC1_Prescaler);
      0002D4 C6 54 01         [ 1]  542 	ld	a, 0x5401
      0002D7 1A 03            [ 1]  543 	or	a, (0x03, sp)
      0002D9 C7 54 01         [ 1]  544 	ld	0x5401, a
                                    545 ;	C:\Users\Admin\.platformio\packages\framework-ststm8spl\Libraries\STM8S_StdPeriph_Driver\src\stm8s_adc1.c: 223: }
      0002DC 81               [ 4]  546 	ret
                                    547 ;	C:\Users\Admin\.platformio\packages\framework-ststm8spl\Libraries\STM8S_StdPeriph_Driver\src\stm8s_adc1.c: 233: void ADC1_SchmittTriggerConfig(ADC1_SchmittTrigg_TypeDef ADC1_SchmittTriggerChannel, FunctionalState NewState)
                                    548 ;	-----------------------------------------
                                    549 ;	 function ADC1_SchmittTriggerConfig
                                    550 ;	-----------------------------------------
      0002DD                        551 _ADC1_SchmittTriggerConfig:
      0002DD 88               [ 1]  552 	push	a
                                    553 ;	C:\Users\Admin\.platformio\packages\framework-ststm8spl\Libraries\STM8S_StdPeriph_Driver\src\stm8s_adc1.c: 236: assert_param(IS_ADC1_SCHMITTTRIG_OK(ADC1_SchmittTriggerChannel));
      0002DE 7B 04            [ 1]  554 	ld	a, (0x04, sp)
      0002E0 4C               [ 1]  555 	inc	a
      0002E1 26 05            [ 1]  556 	jrne	00254$
      0002E3 A6 01            [ 1]  557 	ld	a, #0x01
      0002E5 6B 01            [ 1]  558 	ld	(0x01, sp), a
      0002E7 C5                     559 	.byte 0xc5
      0002E8                        560 00254$:
      0002E8 0F 01            [ 1]  561 	clr	(0x01, sp)
      0002EA                        562 00255$:
      0002EA 0D 04            [ 1]  563 	tnz	(0x04, sp)
      0002EC 27 4E            [ 1]  564 	jreq	00119$
      0002EE 7B 04            [ 1]  565 	ld	a, (0x04, sp)
      0002F0 4A               [ 1]  566 	dec	a
      0002F1 27 49            [ 1]  567 	jreq	00119$
      0002F3 7B 04            [ 1]  568 	ld	a, (0x04, sp)
      0002F5 A1 02            [ 1]  569 	cp	a, #0x02
      0002F7 27 43            [ 1]  570 	jreq	00119$
      0002F9 7B 04            [ 1]  571 	ld	a, (0x04, sp)
      0002FB A1 03            [ 1]  572 	cp	a, #0x03
      0002FD 27 3D            [ 1]  573 	jreq	00119$
      0002FF 7B 04            [ 1]  574 	ld	a, (0x04, sp)
      000301 A1 04            [ 1]  575 	cp	a, #0x04
      000303 27 37            [ 1]  576 	jreq	00119$
      000305 7B 04            [ 1]  577 	ld	a, (0x04, sp)
      000307 A1 05            [ 1]  578 	cp	a, #0x05
      000309 27 31            [ 1]  579 	jreq	00119$
      00030B 7B 04            [ 1]  580 	ld	a, (0x04, sp)
      00030D A1 06            [ 1]  581 	cp	a, #0x06
      00030F 27 2B            [ 1]  582 	jreq	00119$
      000311 7B 04            [ 1]  583 	ld	a, (0x04, sp)
      000313 A1 07            [ 1]  584 	cp	a, #0x07
      000315 27 25            [ 1]  585 	jreq	00119$
      000317 7B 04            [ 1]  586 	ld	a, (0x04, sp)
      000319 A1 08            [ 1]  587 	cp	a, #0x08
      00031B 27 1F            [ 1]  588 	jreq	00119$
      00031D 7B 04            [ 1]  589 	ld	a, (0x04, sp)
      00031F A1 0C            [ 1]  590 	cp	a, #0x0c
      000321 27 19            [ 1]  591 	jreq	00119$
      000323 0D 01            [ 1]  592 	tnz	(0x01, sp)
      000325 26 15            [ 1]  593 	jrne	00119$
      000327 7B 04            [ 1]  594 	ld	a, (0x04, sp)
      000329 A1 09            [ 1]  595 	cp	a, #0x09
      00032B 27 0F            [ 1]  596 	jreq	00119$
      00032D 4B EC            [ 1]  597 	push	#0xec
      00032F 5F               [ 1]  598 	clrw	x
      000330 89               [ 2]  599 	pushw	x
      000331 4B 00            [ 1]  600 	push	#0x00
      000333 4Br00            [ 1]  601 	push	#<(___str_0+0)
      000335 4Bs00            [ 1]  602 	push	#((___str_0+0) >> 8)
      000337 CDr00r00         [ 4]  603 	call	_assert_failed
      00033A 5B 06            [ 2]  604 	addw	sp, #6
      00033C                        605 00119$:
                                    606 ;	C:\Users\Admin\.platformio\packages\framework-ststm8spl\Libraries\STM8S_StdPeriph_Driver\src\stm8s_adc1.c: 237: assert_param(IS_FUNCTIONALSTATE_OK(NewState));
      00033C 0D 05            [ 1]  607 	tnz	(0x05, sp)
      00033E 27 14            [ 1]  608 	jreq	00154$
      000340 7B 05            [ 1]  609 	ld	a, (0x05, sp)
      000342 4A               [ 1]  610 	dec	a
      000343 27 0F            [ 1]  611 	jreq	00154$
      000345 4B ED            [ 1]  612 	push	#0xed
      000347 5F               [ 1]  613 	clrw	x
      000348 89               [ 2]  614 	pushw	x
      000349 4B 00            [ 1]  615 	push	#0x00
      00034B 4Br00            [ 1]  616 	push	#<(___str_0+0)
      00034D 4Bs00            [ 1]  617 	push	#((___str_0+0) >> 8)
      00034F CDr00r00         [ 4]  618 	call	_assert_failed
      000352 5B 06            [ 2]  619 	addw	sp, #6
      000354                        620 00154$:
                                    621 ;	C:\Users\Admin\.platformio\packages\framework-ststm8spl\Libraries\STM8S_StdPeriph_Driver\src\stm8s_adc1.c: 239: if (ADC1_SchmittTriggerChannel == ADC1_SCHMITTTRIG_ALL)
      000354 7B 01            [ 1]  622 	ld	a, (0x01, sp)
      000356 27 21            [ 1]  623 	jreq	00114$
                                    624 ;	C:\Users\Admin\.platformio\packages\framework-ststm8spl\Libraries\STM8S_StdPeriph_Driver\src\stm8s_adc1.c: 243: ADC1->TDRL &= (uint8_t)0x0;
      000358 C6 54 07         [ 1]  625 	ld	a, 0x5407
                                    626 ;	C:\Users\Admin\.platformio\packages\framework-ststm8spl\Libraries\STM8S_StdPeriph_Driver\src\stm8s_adc1.c: 241: if (NewState != DISABLE)
      00035B 0D 05            [ 1]  627 	tnz	(0x05, sp)
      00035D 27 0D            [ 1]  628 	jreq	00102$
                                    629 ;	C:\Users\Admin\.platformio\packages\framework-ststm8spl\Libraries\STM8S_StdPeriph_Driver\src\stm8s_adc1.c: 243: ADC1->TDRL &= (uint8_t)0x0;
      00035F 35 00 54 07      [ 1]  630 	mov	0x5407+0, #0x00
                                    631 ;	C:\Users\Admin\.platformio\packages\framework-ststm8spl\Libraries\STM8S_StdPeriph_Driver\src\stm8s_adc1.c: 244: ADC1->TDRH &= (uint8_t)0x0;
      000363 C6 54 06         [ 1]  632 	ld	a, 0x5406
      000366 35 00 54 06      [ 1]  633 	mov	0x5406+0, #0x00
      00036A 20 60            [ 2]  634 	jra	00116$
      00036C                        635 00102$:
                                    636 ;	C:\Users\Admin\.platformio\packages\framework-ststm8spl\Libraries\STM8S_StdPeriph_Driver\src\stm8s_adc1.c: 248: ADC1->TDRL |= (uint8_t)0xFF;
      00036C 35 FF 54 07      [ 1]  637 	mov	0x5407+0, #0xff
                                    638 ;	C:\Users\Admin\.platformio\packages\framework-ststm8spl\Libraries\STM8S_StdPeriph_Driver\src\stm8s_adc1.c: 249: ADC1->TDRH |= (uint8_t)0xFF;
      000370 C6 54 06         [ 1]  639 	ld	a, 0x5406
      000373 35 FF 54 06      [ 1]  640 	mov	0x5406+0, #0xff
      000377 20 53            [ 2]  641 	jra	00116$
      000379                        642 00114$:
                                    643 ;	C:\Users\Admin\.platformio\packages\framework-ststm8spl\Libraries\STM8S_StdPeriph_Driver\src\stm8s_adc1.c: 252: else if (ADC1_SchmittTriggerChannel < ADC1_SCHMITTTRIG_CHANNEL8)
      000379 7B 04            [ 1]  644 	ld	a, (0x04, sp)
      00037B A1 08            [ 1]  645 	cp	a, #0x08
      00037D 24 25            [ 1]  646 	jrnc	00111$
                                    647 ;	C:\Users\Admin\.platformio\packages\framework-ststm8spl\Libraries\STM8S_StdPeriph_Driver\src\stm8s_adc1.c: 243: ADC1->TDRL &= (uint8_t)0x0;
      00037F C6 54 07         [ 1]  648 	ld	a, 0x5407
      000382 6B 01            [ 1]  649 	ld	(0x01, sp), a
                                    650 ;	C:\Users\Admin\.platformio\packages\framework-ststm8spl\Libraries\STM8S_StdPeriph_Driver\src\stm8s_adc1.c: 256: ADC1->TDRL &= (uint8_t)(~(uint8_t)((uint8_t)0x01 << (uint8_t)ADC1_SchmittTriggerChannel));
      000384 A6 01            [ 1]  651 	ld	a, #0x01
      000386 88               [ 1]  652 	push	a
      000387 7B 05            [ 1]  653 	ld	a, (0x05, sp)
      000389 27 05            [ 1]  654 	jreq	00296$
      00038B                        655 00295$:
      00038B 08 01            [ 1]  656 	sll	(1, sp)
      00038D 4A               [ 1]  657 	dec	a
      00038E 26 FB            [ 1]  658 	jrne	00295$
      000390                        659 00296$:
      000390 84               [ 1]  660 	pop	a
                                    661 ;	C:\Users\Admin\.platformio\packages\framework-ststm8spl\Libraries\STM8S_StdPeriph_Driver\src\stm8s_adc1.c: 254: if (NewState != DISABLE)
      000391 0D 05            [ 1]  662 	tnz	(0x05, sp)
      000393 27 08            [ 1]  663 	jreq	00105$
                                    664 ;	C:\Users\Admin\.platformio\packages\framework-ststm8spl\Libraries\STM8S_StdPeriph_Driver\src\stm8s_adc1.c: 256: ADC1->TDRL &= (uint8_t)(~(uint8_t)((uint8_t)0x01 << (uint8_t)ADC1_SchmittTriggerChannel));
      000395 43               [ 1]  665 	cpl	a
      000396 14 01            [ 1]  666 	and	a, (0x01, sp)
      000398 C7 54 07         [ 1]  667 	ld	0x5407, a
      00039B 20 2F            [ 2]  668 	jra	00116$
      00039D                        669 00105$:
                                    670 ;	C:\Users\Admin\.platformio\packages\framework-ststm8spl\Libraries\STM8S_StdPeriph_Driver\src\stm8s_adc1.c: 260: ADC1->TDRL |= (uint8_t)((uint8_t)0x01 << (uint8_t)ADC1_SchmittTriggerChannel);
      00039D 1A 01            [ 1]  671 	or	a, (0x01, sp)
      00039F C7 54 07         [ 1]  672 	ld	0x5407, a
      0003A2 20 28            [ 2]  673 	jra	00116$
      0003A4                        674 00111$:
                                    675 ;	C:\Users\Admin\.platformio\packages\framework-ststm8spl\Libraries\STM8S_StdPeriph_Driver\src\stm8s_adc1.c: 244: ADC1->TDRH &= (uint8_t)0x0;
      0003A4 C6 54 06         [ 1]  676 	ld	a, 0x5406
      0003A7 6B 01            [ 1]  677 	ld	(0x01, sp), a
                                    678 ;	C:\Users\Admin\.platformio\packages\framework-ststm8spl\Libraries\STM8S_StdPeriph_Driver\src\stm8s_adc1.c: 267: ADC1->TDRH &= (uint8_t)(~(uint8_t)((uint8_t)0x01 << ((uint8_t)ADC1_SchmittTriggerChannel - (uint8_t)8)));
      0003A9 7B 04            [ 1]  679 	ld	a, (0x04, sp)
      0003AB A0 08            [ 1]  680 	sub	a, #0x08
      0003AD 97               [ 1]  681 	ld	xl, a
      0003AE A6 01            [ 1]  682 	ld	a, #0x01
      0003B0 88               [ 1]  683 	push	a
      0003B1 9F               [ 1]  684 	ld	a, xl
      0003B2 4D               [ 1]  685 	tnz	a
      0003B3 27 05            [ 1]  686 	jreq	00299$
      0003B5                        687 00298$:
      0003B5 08 01            [ 1]  688 	sll	(1, sp)
      0003B7 4A               [ 1]  689 	dec	a
      0003B8 26 FB            [ 1]  690 	jrne	00298$
      0003BA                        691 00299$:
      0003BA 84               [ 1]  692 	pop	a
                                    693 ;	C:\Users\Admin\.platformio\packages\framework-ststm8spl\Libraries\STM8S_StdPeriph_Driver\src\stm8s_adc1.c: 265: if (NewState != DISABLE)
      0003BB 0D 05            [ 1]  694 	tnz	(0x05, sp)
      0003BD 27 08            [ 1]  695 	jreq	00108$
                                    696 ;	C:\Users\Admin\.platformio\packages\framework-ststm8spl\Libraries\STM8S_StdPeriph_Driver\src\stm8s_adc1.c: 267: ADC1->TDRH &= (uint8_t)(~(uint8_t)((uint8_t)0x01 << ((uint8_t)ADC1_SchmittTriggerChannel - (uint8_t)8)));
      0003BF 43               [ 1]  697 	cpl	a
      0003C0 14 01            [ 1]  698 	and	a, (0x01, sp)
      0003C2 C7 54 06         [ 1]  699 	ld	0x5406, a
      0003C5 20 05            [ 2]  700 	jra	00116$
      0003C7                        701 00108$:
                                    702 ;	C:\Users\Admin\.platformio\packages\framework-ststm8spl\Libraries\STM8S_StdPeriph_Driver\src\stm8s_adc1.c: 271: ADC1->TDRH |= (uint8_t)((uint8_t)0x01 << ((uint8_t)ADC1_SchmittTriggerChannel - (uint8_t)8));
      0003C7 1A 01            [ 1]  703 	or	a, (0x01, sp)
      0003C9 C7 54 06         [ 1]  704 	ld	0x5406, a
      0003CC                        705 00116$:
                                    706 ;	C:\Users\Admin\.platformio\packages\framework-ststm8spl\Libraries\STM8S_StdPeriph_Driver\src\stm8s_adc1.c: 274: }
      0003CC 84               [ 1]  707 	pop	a
      0003CD 81               [ 4]  708 	ret
                                    709 ;	C:\Users\Admin\.platformio\packages\framework-ststm8spl\Libraries\STM8S_StdPeriph_Driver\src\stm8s_adc1.c: 286: void ADC1_ConversionConfig(ADC1_ConvMode_TypeDef ADC1_ConversionMode, ADC1_Channel_TypeDef ADC1_Channel, ADC1_Align_TypeDef ADC1_Align)
                                    710 ;	-----------------------------------------
                                    711 ;	 function ADC1_ConversionConfig
                                    712 ;	-----------------------------------------
      0003CE                        713 _ADC1_ConversionConfig:
      0003CE 88               [ 1]  714 	push	a
                                    715 ;	C:\Users\Admin\.platformio\packages\framework-ststm8spl\Libraries\STM8S_StdPeriph_Driver\src\stm8s_adc1.c: 289: assert_param(IS_ADC1_CONVERSIONMODE_OK(ADC1_ConversionMode));
      0003CF 7B 04            [ 1]  716 	ld	a, (0x04, sp)
      0003D1 4A               [ 1]  717 	dec	a
      0003D2 26 05            [ 1]  718 	jrne	00229$
      0003D4 A6 01            [ 1]  719 	ld	a, #0x01
      0003D6 6B 01            [ 1]  720 	ld	(0x01, sp), a
      0003D8 C5                     721 	.byte 0xc5
      0003D9                        722 00229$:
      0003D9 0F 01            [ 1]  723 	clr	(0x01, sp)
      0003DB                        724 00230$:
      0003DB 0D 04            [ 1]  725 	tnz	(0x04, sp)
      0003DD 27 13            [ 1]  726 	jreq	00107$
      0003DF 0D 01            [ 1]  727 	tnz	(0x01, sp)
      0003E1 26 0F            [ 1]  728 	jrne	00107$
      0003E3 4B 21            [ 1]  729 	push	#0x21
      0003E5 4B 01            [ 1]  730 	push	#0x01
      0003E7 5F               [ 1]  731 	clrw	x
      0003E8 89               [ 2]  732 	pushw	x
      0003E9 4Br00            [ 1]  733 	push	#<(___str_0+0)
      0003EB 4Bs00            [ 1]  734 	push	#((___str_0+0) >> 8)
      0003ED CDr00r00         [ 4]  735 	call	_assert_failed
      0003F0 5B 06            [ 2]  736 	addw	sp, #6
      0003F2                        737 00107$:
                                    738 ;	C:\Users\Admin\.platformio\packages\framework-ststm8spl\Libraries\STM8S_StdPeriph_Driver\src\stm8s_adc1.c: 290: assert_param(IS_ADC1_CHANNEL_OK(ADC1_Channel));
      0003F2 0D 05            [ 1]  739 	tnz	(0x05, sp)
      0003F4 27 4A            [ 1]  740 	jreq	00112$
      0003F6 7B 05            [ 1]  741 	ld	a, (0x05, sp)
      0003F8 4A               [ 1]  742 	dec	a
      0003F9 27 45            [ 1]  743 	jreq	00112$
      0003FB 7B 05            [ 1]  744 	ld	a, (0x05, sp)
      0003FD A1 02            [ 1]  745 	cp	a, #0x02
      0003FF 27 3F            [ 1]  746 	jreq	00112$
      000401 7B 05            [ 1]  747 	ld	a, (0x05, sp)
      000403 A1 03            [ 1]  748 	cp	a, #0x03
      000405 27 39            [ 1]  749 	jreq	00112$
      000407 7B 05            [ 1]  750 	ld	a, (0x05, sp)
      000409 A1 04            [ 1]  751 	cp	a, #0x04
      00040B 27 33            [ 1]  752 	jreq	00112$
      00040D 7B 05            [ 1]  753 	ld	a, (0x05, sp)
      00040F A1 05            [ 1]  754 	cp	a, #0x05
      000411 27 2D            [ 1]  755 	jreq	00112$
      000413 7B 05            [ 1]  756 	ld	a, (0x05, sp)
      000415 A1 06            [ 1]  757 	cp	a, #0x06
      000417 27 27            [ 1]  758 	jreq	00112$
      000419 7B 05            [ 1]  759 	ld	a, (0x05, sp)
      00041B A1 07            [ 1]  760 	cp	a, #0x07
      00041D 27 21            [ 1]  761 	jreq	00112$
      00041F 7B 05            [ 1]  762 	ld	a, (0x05, sp)
      000421 A1 08            [ 1]  763 	cp	a, #0x08
      000423 27 1B            [ 1]  764 	jreq	00112$
      000425 7B 05            [ 1]  765 	ld	a, (0x05, sp)
      000427 A1 0C            [ 1]  766 	cp	a, #0x0c
      000429 27 15            [ 1]  767 	jreq	00112$
      00042B 7B 05            [ 1]  768 	ld	a, (0x05, sp)
      00042D A1 09            [ 1]  769 	cp	a, #0x09
      00042F 27 0F            [ 1]  770 	jreq	00112$
      000431 4B 22            [ 1]  771 	push	#0x22
      000433 4B 01            [ 1]  772 	push	#0x01
      000435 5F               [ 1]  773 	clrw	x
      000436 89               [ 2]  774 	pushw	x
      000437 4Br00            [ 1]  775 	push	#<(___str_0+0)
      000439 4Bs00            [ 1]  776 	push	#((___str_0+0) >> 8)
      00043B CDr00r00         [ 4]  777 	call	_assert_failed
      00043E 5B 06            [ 2]  778 	addw	sp, #6
      000440                        779 00112$:
                                    780 ;	C:\Users\Admin\.platformio\packages\framework-ststm8spl\Libraries\STM8S_StdPeriph_Driver\src\stm8s_adc1.c: 291: assert_param(IS_ADC1_ALIGN_OK(ADC1_Align));
      000440 0D 06            [ 1]  781 	tnz	(0x06, sp)
      000442 27 15            [ 1]  782 	jreq	00144$
      000444 7B 06            [ 1]  783 	ld	a, (0x06, sp)
      000446 A1 08            [ 1]  784 	cp	a, #0x08
      000448 27 0F            [ 1]  785 	jreq	00144$
      00044A 4B 23            [ 1]  786 	push	#0x23
      00044C 4B 01            [ 1]  787 	push	#0x01
      00044E 5F               [ 1]  788 	clrw	x
      00044F 89               [ 2]  789 	pushw	x
      000450 4Br00            [ 1]  790 	push	#<(___str_0+0)
      000452 4Bs00            [ 1]  791 	push	#((___str_0+0) >> 8)
      000454 CDr00r00         [ 4]  792 	call	_assert_failed
      000457 5B 06            [ 2]  793 	addw	sp, #6
      000459                        794 00144$:
                                    795 ;	C:\Users\Admin\.platformio\packages\framework-ststm8spl\Libraries\STM8S_StdPeriph_Driver\src\stm8s_adc1.c: 294: ADC1->CR2 &= (uint8_t)(~ADC1_CR2_ALIGN);
      000459 72 17 54 02      [ 1]  796 	bres	21506, #3
                                    797 ;	C:\Users\Admin\.platformio\packages\framework-ststm8spl\Libraries\STM8S_StdPeriph_Driver\src\stm8s_adc1.c: 296: ADC1->CR2 |= (uint8_t)(ADC1_Align);
      00045D C6 54 02         [ 1]  798 	ld	a, 0x5402
      000460 1A 06            [ 1]  799 	or	a, (0x06, sp)
      000462 C7 54 02         [ 1]  800 	ld	0x5402, a
                                    801 ;	C:\Users\Admin\.platformio\packages\framework-ststm8spl\Libraries\STM8S_StdPeriph_Driver\src\stm8s_adc1.c: 301: ADC1->CR1 |= ADC1_CR1_CONT;
      000465 C6 54 01         [ 1]  802 	ld	a, 0x5401
      000468 97               [ 1]  803 	ld	xl, a
                                    804 ;	C:\Users\Admin\.platformio\packages\framework-ststm8spl\Libraries\STM8S_StdPeriph_Driver\src\stm8s_adc1.c: 298: if (ADC1_ConversionMode == ADC1_CONVERSIONMODE_CONTINUOUS)
      000469 7B 01            [ 1]  805 	ld	a, (0x01, sp)
      00046B 27 08            [ 1]  806 	jreq	00102$
                                    807 ;	C:\Users\Admin\.platformio\packages\framework-ststm8spl\Libraries\STM8S_StdPeriph_Driver\src\stm8s_adc1.c: 301: ADC1->CR1 |= ADC1_CR1_CONT;
      00046D 9F               [ 1]  808 	ld	a, xl
      00046E AA 02            [ 1]  809 	or	a, #0x02
      000470 C7 54 01         [ 1]  810 	ld	0x5401, a
      000473 20 06            [ 2]  811 	jra	00103$
      000475                        812 00102$:
                                    813 ;	C:\Users\Admin\.platformio\packages\framework-ststm8spl\Libraries\STM8S_StdPeriph_Driver\src\stm8s_adc1.c: 306: ADC1->CR1 &= (uint8_t)(~ADC1_CR1_CONT);
      000475 9F               [ 1]  814 	ld	a, xl
      000476 A4 FD            [ 1]  815 	and	a, #0xfd
      000478 C7 54 01         [ 1]  816 	ld	0x5401, a
      00047B                        817 00103$:
                                    818 ;	C:\Users\Admin\.platformio\packages\framework-ststm8spl\Libraries\STM8S_StdPeriph_Driver\src\stm8s_adc1.c: 310: ADC1->CSR &= (uint8_t)(~ADC1_CSR_CH);
      00047B C6 54 00         [ 1]  819 	ld	a, 0x5400
      00047E A4 F0            [ 1]  820 	and	a, #0xf0
      000480 C7 54 00         [ 1]  821 	ld	0x5400, a
                                    822 ;	C:\Users\Admin\.platformio\packages\framework-ststm8spl\Libraries\STM8S_StdPeriph_Driver\src\stm8s_adc1.c: 312: ADC1->CSR |= (uint8_t)(ADC1_Channel);
      000483 C6 54 00         [ 1]  823 	ld	a, 0x5400
      000486 1A 05            [ 1]  824 	or	a, (0x05, sp)
      000488 C7 54 00         [ 1]  825 	ld	0x5400, a
                                    826 ;	C:\Users\Admin\.platformio\packages\framework-ststm8spl\Libraries\STM8S_StdPeriph_Driver\src\stm8s_adc1.c: 313: }
      00048B 84               [ 1]  827 	pop	a
      00048C 81               [ 4]  828 	ret
                                    829 ;	C:\Users\Admin\.platformio\packages\framework-ststm8spl\Libraries\STM8S_StdPeriph_Driver\src\stm8s_adc1.c: 325: void ADC1_ExternalTriggerConfig(ADC1_ExtTrig_TypeDef ADC1_ExtTrigger, FunctionalState NewState)
                                    830 ;	-----------------------------------------
                                    831 ;	 function ADC1_ExternalTriggerConfig
                                    832 ;	-----------------------------------------
      00048D                        833 _ADC1_ExternalTriggerConfig:
                                    834 ;	C:\Users\Admin\.platformio\packages\framework-ststm8spl\Libraries\STM8S_StdPeriph_Driver\src\stm8s_adc1.c: 328: assert_param(IS_ADC1_EXTTRIG_OK(ADC1_ExtTrigger));
      00048D 0D 03            [ 1]  835 	tnz	(0x03, sp)
      00048F 27 15            [ 1]  836 	jreq	00107$
      000491 7B 03            [ 1]  837 	ld	a, (0x03, sp)
      000493 A1 10            [ 1]  838 	cp	a, #0x10
      000495 27 0F            [ 1]  839 	jreq	00107$
      000497 4B 48            [ 1]  840 	push	#0x48
      000499 4B 01            [ 1]  841 	push	#0x01
      00049B 5F               [ 1]  842 	clrw	x
      00049C 89               [ 2]  843 	pushw	x
      00049D 4Br00            [ 1]  844 	push	#<(___str_0+0)
      00049F 4Bs00            [ 1]  845 	push	#((___str_0+0) >> 8)
      0004A1 CDr00r00         [ 4]  846 	call	_assert_failed
      0004A4 5B 06            [ 2]  847 	addw	sp, #6
      0004A6                        848 00107$:
                                    849 ;	C:\Users\Admin\.platformio\packages\framework-ststm8spl\Libraries\STM8S_StdPeriph_Driver\src\stm8s_adc1.c: 329: assert_param(IS_FUNCTIONALSTATE_OK(NewState));
      0004A6 0D 04            [ 1]  850 	tnz	(0x04, sp)
      0004A8 27 14            [ 1]  851 	jreq	00112$
      0004AA 7B 04            [ 1]  852 	ld	a, (0x04, sp)
      0004AC 4A               [ 1]  853 	dec	a
      0004AD 27 0F            [ 1]  854 	jreq	00112$
      0004AF 4B 49            [ 1]  855 	push	#0x49
      0004B1 4B 01            [ 1]  856 	push	#0x01
      0004B3 5F               [ 1]  857 	clrw	x
      0004B4 89               [ 2]  858 	pushw	x
      0004B5 4Br00            [ 1]  859 	push	#<(___str_0+0)
      0004B7 4Bs00            [ 1]  860 	push	#((___str_0+0) >> 8)
      0004B9 CDr00r00         [ 4]  861 	call	_assert_failed
      0004BC 5B 06            [ 2]  862 	addw	sp, #6
      0004BE                        863 00112$:
                                    864 ;	C:\Users\Admin\.platformio\packages\framework-ststm8spl\Libraries\STM8S_StdPeriph_Driver\src\stm8s_adc1.c: 332: ADC1->CR2 &= (uint8_t)(~ADC1_CR2_EXTSEL);
      0004BE C6 54 02         [ 1]  865 	ld	a, 0x5402
      0004C1 A4 CF            [ 1]  866 	and	a, #0xcf
      0004C3 C7 54 02         [ 1]  867 	ld	0x5402, a
      0004C6 C6 54 02         [ 1]  868 	ld	a, 0x5402
                                    869 ;	C:\Users\Admin\.platformio\packages\framework-ststm8spl\Libraries\STM8S_StdPeriph_Driver\src\stm8s_adc1.c: 334: if (NewState != DISABLE)
      0004C9 0D 04            [ 1]  870 	tnz	(0x04, sp)
      0004CB 27 07            [ 1]  871 	jreq	00102$
                                    872 ;	C:\Users\Admin\.platformio\packages\framework-ststm8spl\Libraries\STM8S_StdPeriph_Driver\src\stm8s_adc1.c: 337: ADC1->CR2 |= (uint8_t)(ADC1_CR2_EXTTRIG);
      0004CD AA 40            [ 1]  873 	or	a, #0x40
      0004CF C7 54 02         [ 1]  874 	ld	0x5402, a
      0004D2 20 05            [ 2]  875 	jra	00103$
      0004D4                        876 00102$:
                                    877 ;	C:\Users\Admin\.platformio\packages\framework-ststm8spl\Libraries\STM8S_StdPeriph_Driver\src\stm8s_adc1.c: 342: ADC1->CR2 &= (uint8_t)(~ADC1_CR2_EXTTRIG);
      0004D4 A4 BF            [ 1]  878 	and	a, #0xbf
      0004D6 C7 54 02         [ 1]  879 	ld	0x5402, a
      0004D9                        880 00103$:
                                    881 ;	C:\Users\Admin\.platformio\packages\framework-ststm8spl\Libraries\STM8S_StdPeriph_Driver\src\stm8s_adc1.c: 346: ADC1->CR2 |= (uint8_t)(ADC1_ExtTrigger);
      0004D9 C6 54 02         [ 1]  882 	ld	a, 0x5402
      0004DC 1A 03            [ 1]  883 	or	a, (0x03, sp)
      0004DE C7 54 02         [ 1]  884 	ld	0x5402, a
                                    885 ;	C:\Users\Admin\.platformio\packages\framework-ststm8spl\Libraries\STM8S_StdPeriph_Driver\src\stm8s_adc1.c: 347: }
      0004E1 81               [ 4]  886 	ret
                                    887 ;	C:\Users\Admin\.platformio\packages\framework-ststm8spl\Libraries\STM8S_StdPeriph_Driver\src\stm8s_adc1.c: 358: void ADC1_StartConversion(void)
                                    888 ;	-----------------------------------------
                                    889 ;	 function ADC1_StartConversion
                                    890 ;	-----------------------------------------
      0004E2                        891 _ADC1_StartConversion:
                                    892 ;	C:\Users\Admin\.platformio\packages\framework-ststm8spl\Libraries\STM8S_StdPeriph_Driver\src\stm8s_adc1.c: 360: ADC1->CR1 |= ADC1_CR1_ADON;
      0004E2 72 10 54 01      [ 1]  893 	bset	21505, #0
                                    894 ;	C:\Users\Admin\.platformio\packages\framework-ststm8spl\Libraries\STM8S_StdPeriph_Driver\src\stm8s_adc1.c: 361: }
      0004E6 81               [ 4]  895 	ret
                                    896 ;	C:\Users\Admin\.platformio\packages\framework-ststm8spl\Libraries\STM8S_StdPeriph_Driver\src\stm8s_adc1.c: 370: uint16_t ADC1_GetConversionValue(void)
                                    897 ;	-----------------------------------------
                                    898 ;	 function ADC1_GetConversionValue
                                    899 ;	-----------------------------------------
      0004E7                        900 _ADC1_GetConversionValue:
      0004E7 52 04            [ 2]  901 	sub	sp, #4
                                    902 ;	C:\Users\Admin\.platformio\packages\framework-ststm8spl\Libraries\STM8S_StdPeriph_Driver\src\stm8s_adc1.c: 375: if ((ADC1->CR2 & ADC1_CR2_ALIGN) != 0) /* Right alignment */
      0004E9 C6 54 02         [ 1]  903 	ld	a, 0x5402
      0004EC A5 08            [ 1]  904 	bcp	a, #0x08
      0004EE 27 15            [ 1]  905 	jreq	00102$
                                    906 ;	C:\Users\Admin\.platformio\packages\framework-ststm8spl\Libraries\STM8S_StdPeriph_Driver\src\stm8s_adc1.c: 378: templ = ADC1->DRL;
      0004F0 C6 54 05         [ 1]  907 	ld	a, 0x5405
      0004F3 97               [ 1]  908 	ld	xl, a
                                    909 ;	C:\Users\Admin\.platformio\packages\framework-ststm8spl\Libraries\STM8S_StdPeriph_Driver\src\stm8s_adc1.c: 380: temph = ADC1->DRH;
      0004F4 C6 54 04         [ 1]  910 	ld	a, 0x5404
                                    911 ;	C:\Users\Admin\.platformio\packages\framework-ststm8spl\Libraries\STM8S_StdPeriph_Driver\src\stm8s_adc1.c: 382: temph = (uint16_t)(templ | (uint16_t)(temph << (uint8_t)8));
      0004F7 0F 02            [ 1]  912 	clr	(0x02, sp)
      0004F9 0F 03            [ 1]  913 	clr	(0x03, sp)
      0004FB 1A 03            [ 1]  914 	or	a, (0x03, sp)
      0004FD 01               [ 1]  915 	rrwa	x
      0004FE 1A 02            [ 1]  916 	or	a, (0x02, sp)
      000500 97               [ 1]  917 	ld	xl, a
      000501 1F 03            [ 2]  918 	ldw	(0x03, sp), x
      000503 20 1D            [ 2]  919 	jra	00103$
      000505                        920 00102$:
                                    921 ;	C:\Users\Admin\.platformio\packages\framework-ststm8spl\Libraries\STM8S_StdPeriph_Driver\src\stm8s_adc1.c: 387: temph = ADC1->DRH;
      000505 C6 54 04         [ 1]  922 	ld	a, 0x5404
      000508 5F               [ 1]  923 	clrw	x
      000509 97               [ 1]  924 	ld	xl, a
      00050A 51               [ 1]  925 	exgw	x, y
                                    926 ;	C:\Users\Admin\.platformio\packages\framework-ststm8spl\Libraries\STM8S_StdPeriph_Driver\src\stm8s_adc1.c: 389: templ = ADC1->DRL;
      00050B C6 54 05         [ 1]  927 	ld	a, 0x5405
                                    928 ;	C:\Users\Admin\.platformio\packages\framework-ststm8spl\Libraries\STM8S_StdPeriph_Driver\src\stm8s_adc1.c: 391: temph = (uint16_t)((uint16_t)((uint16_t)templ << 6) | (uint16_t)((uint16_t)temph << 8));
      00050E 5F               [ 1]  929 	clrw	x
      00050F 97               [ 1]  930 	ld	xl, a
      000510 58               [ 2]  931 	sllw	x
      000511 58               [ 2]  932 	sllw	x
      000512 58               [ 2]  933 	sllw	x
      000513 58               [ 2]  934 	sllw	x
      000514 58               [ 2]  935 	sllw	x
      000515 58               [ 2]  936 	sllw	x
      000516 1F 03            [ 2]  937 	ldw	(0x03, sp), x
      000518 7B 04            [ 1]  938 	ld	a, (0x04, sp)
      00051A 97               [ 1]  939 	ld	xl, a
      00051B 90 9F            [ 1]  940 	ld	a, yl
      00051D 1A 03            [ 1]  941 	or	a, (0x03, sp)
      00051F 95               [ 1]  942 	ld	xh, a
      000520 1F 03            [ 2]  943 	ldw	(0x03, sp), x
      000522                        944 00103$:
                                    945 ;	C:\Users\Admin\.platformio\packages\framework-ststm8spl\Libraries\STM8S_StdPeriph_Driver\src\stm8s_adc1.c: 394: return ((uint16_t)temph);
      000522 1E 03            [ 2]  946 	ldw	x, (0x03, sp)
                                    947 ;	C:\Users\Admin\.platformio\packages\framework-ststm8spl\Libraries\STM8S_StdPeriph_Driver\src\stm8s_adc1.c: 395: }
      000524 5B 04            [ 2]  948 	addw	sp, #4
      000526 81               [ 4]  949 	ret
                                    950 ;	C:\Users\Admin\.platformio\packages\framework-ststm8spl\Libraries\STM8S_StdPeriph_Driver\src\stm8s_adc1.c: 405: void ADC1_AWDChannelConfig(ADC1_Channel_TypeDef Channel, FunctionalState NewState)
                                    951 ;	-----------------------------------------
                                    952 ;	 function ADC1_AWDChannelConfig
                                    953 ;	-----------------------------------------
      000527                        954 _ADC1_AWDChannelConfig:
      000527 88               [ 1]  955 	push	a
                                    956 ;	C:\Users\Admin\.platformio\packages\framework-ststm8spl\Libraries\STM8S_StdPeriph_Driver\src\stm8s_adc1.c: 408: assert_param(IS_FUNCTIONALSTATE_OK(NewState));
      000528 0D 05            [ 1]  957 	tnz	(0x05, sp)
      00052A 27 14            [ 1]  958 	jreq	00113$
      00052C 7B 05            [ 1]  959 	ld	a, (0x05, sp)
      00052E 4A               [ 1]  960 	dec	a
      00052F 27 0F            [ 1]  961 	jreq	00113$
      000531 4B 98            [ 1]  962 	push	#0x98
      000533 4B 01            [ 1]  963 	push	#0x01
      000535 5F               [ 1]  964 	clrw	x
      000536 89               [ 2]  965 	pushw	x
      000537 4Br00            [ 1]  966 	push	#<(___str_0+0)
      000539 4Bs00            [ 1]  967 	push	#((___str_0+0) >> 8)
      00053B CDr00r00         [ 4]  968 	call	_assert_failed
      00053E 5B 06            [ 2]  969 	addw	sp, #6
      000540                        970 00113$:
                                    971 ;	C:\Users\Admin\.platformio\packages\framework-ststm8spl\Libraries\STM8S_StdPeriph_Driver\src\stm8s_adc1.c: 409: assert_param(IS_ADC1_CHANNEL_OK(Channel));
      000540 0D 04            [ 1]  972 	tnz	(0x04, sp)
      000542 27 4A            [ 1]  973 	jreq	00118$
      000544 7B 04            [ 1]  974 	ld	a, (0x04, sp)
      000546 4A               [ 1]  975 	dec	a
      000547 27 45            [ 1]  976 	jreq	00118$
      000549 7B 04            [ 1]  977 	ld	a, (0x04, sp)
      00054B A1 02            [ 1]  978 	cp	a, #0x02
      00054D 27 3F            [ 1]  979 	jreq	00118$
      00054F 7B 04            [ 1]  980 	ld	a, (0x04, sp)
      000551 A1 03            [ 1]  981 	cp	a, #0x03
      000553 27 39            [ 1]  982 	jreq	00118$
      000555 7B 04            [ 1]  983 	ld	a, (0x04, sp)
      000557 A1 04            [ 1]  984 	cp	a, #0x04
      000559 27 33            [ 1]  985 	jreq	00118$
      00055B 7B 04            [ 1]  986 	ld	a, (0x04, sp)
      00055D A1 05            [ 1]  987 	cp	a, #0x05
      00055F 27 2D            [ 1]  988 	jreq	00118$
      000561 7B 04            [ 1]  989 	ld	a, (0x04, sp)
      000563 A1 06            [ 1]  990 	cp	a, #0x06
      000565 27 27            [ 1]  991 	jreq	00118$
      000567 7B 04            [ 1]  992 	ld	a, (0x04, sp)
      000569 A1 07            [ 1]  993 	cp	a, #0x07
      00056B 27 21            [ 1]  994 	jreq	00118$
      00056D 7B 04            [ 1]  995 	ld	a, (0x04, sp)
      00056F A1 08            [ 1]  996 	cp	a, #0x08
      000571 27 1B            [ 1]  997 	jreq	00118$
      000573 7B 04            [ 1]  998 	ld	a, (0x04, sp)
      000575 A1 0C            [ 1]  999 	cp	a, #0x0c
      000577 27 15            [ 1] 1000 	jreq	00118$
      000579 7B 04            [ 1] 1001 	ld	a, (0x04, sp)
      00057B A1 09            [ 1] 1002 	cp	a, #0x09
      00057D 27 0F            [ 1] 1003 	jreq	00118$
      00057F 4B 99            [ 1] 1004 	push	#0x99
      000581 4B 01            [ 1] 1005 	push	#0x01
      000583 5F               [ 1] 1006 	clrw	x
      000584 89               [ 2] 1007 	pushw	x
      000585 4Br00            [ 1] 1008 	push	#<(___str_0+0)
      000587 4Bs00            [ 1] 1009 	push	#((___str_0+0) >> 8)
      000589 CDr00r00         [ 4] 1010 	call	_assert_failed
      00058C 5B 06            [ 2] 1011 	addw	sp, #6
      00058E                       1012 00118$:
                                   1013 ;	C:\Users\Admin\.platformio\packages\framework-ststm8spl\Libraries\STM8S_StdPeriph_Driver\src\stm8s_adc1.c: 411: if (Channel < (uint8_t)8)
      00058E 7B 04            [ 1] 1014 	ld	a, (0x04, sp)
      000590 A1 08            [ 1] 1015 	cp	a, #0x08
      000592 24 25            [ 1] 1016 	jrnc	00108$
                                   1017 ;	C:\Users\Admin\.platformio\packages\framework-ststm8spl\Libraries\STM8S_StdPeriph_Driver\src\stm8s_adc1.c: 415: ADC1->AWCRL |= (uint8_t)((uint8_t)1 << Channel);
      000594 C6 54 0F         [ 1] 1018 	ld	a, 0x540f
      000597 6B 01            [ 1] 1019 	ld	(0x01, sp), a
      000599 A6 01            [ 1] 1020 	ld	a, #0x01
      00059B 88               [ 1] 1021 	push	a
      00059C 7B 05            [ 1] 1022 	ld	a, (0x05, sp)
      00059E 27 05            [ 1] 1023 	jreq	00266$
      0005A0                       1024 00265$:
      0005A0 08 01            [ 1] 1025 	sll	(1, sp)
      0005A2 4A               [ 1] 1026 	dec	a
      0005A3 26 FB            [ 1] 1027 	jrne	00265$
      0005A5                       1028 00266$:
      0005A5 84               [ 1] 1029 	pop	a
                                   1030 ;	C:\Users\Admin\.platformio\packages\framework-ststm8spl\Libraries\STM8S_StdPeriph_Driver\src\stm8s_adc1.c: 413: if (NewState != DISABLE)
      0005A6 0D 05            [ 1] 1031 	tnz	(0x05, sp)
      0005A8 27 07            [ 1] 1032 	jreq	00102$
                                   1033 ;	C:\Users\Admin\.platformio\packages\framework-ststm8spl\Libraries\STM8S_StdPeriph_Driver\src\stm8s_adc1.c: 415: ADC1->AWCRL |= (uint8_t)((uint8_t)1 << Channel);
      0005AA 1A 01            [ 1] 1034 	or	a, (0x01, sp)
      0005AC C7 54 0F         [ 1] 1035 	ld	0x540f, a
      0005AF 20 30            [ 2] 1036 	jra	00110$
      0005B1                       1037 00102$:
                                   1038 ;	C:\Users\Admin\.platformio\packages\framework-ststm8spl\Libraries\STM8S_StdPeriph_Driver\src\stm8s_adc1.c: 419: ADC1->AWCRL &= (uint8_t)~(uint8_t)((uint8_t)1 << Channel);
      0005B1 43               [ 1] 1039 	cpl	a
      0005B2 14 01            [ 1] 1040 	and	a, (0x01, sp)
      0005B4 C7 54 0F         [ 1] 1041 	ld	0x540f, a
      0005B7 20 28            [ 2] 1042 	jra	00110$
      0005B9                       1043 00108$:
                                   1044 ;	C:\Users\Admin\.platformio\packages\framework-ststm8spl\Libraries\STM8S_StdPeriph_Driver\src\stm8s_adc1.c: 426: ADC1->AWCRH |= (uint8_t)((uint8_t)1 << (Channel - (uint8_t)8));
      0005B9 C6 54 0E         [ 1] 1045 	ld	a, 0x540e
      0005BC 6B 01            [ 1] 1046 	ld	(0x01, sp), a
      0005BE 7B 04            [ 1] 1047 	ld	a, (0x04, sp)
      0005C0 A0 08            [ 1] 1048 	sub	a, #0x08
      0005C2 97               [ 1] 1049 	ld	xl, a
      0005C3 A6 01            [ 1] 1050 	ld	a, #0x01
      0005C5 88               [ 1] 1051 	push	a
      0005C6 9F               [ 1] 1052 	ld	a, xl
      0005C7 4D               [ 1] 1053 	tnz	a
      0005C8 27 05            [ 1] 1054 	jreq	00269$
      0005CA                       1055 00268$:
      0005CA 08 01            [ 1] 1056 	sll	(1, sp)
      0005CC 4A               [ 1] 1057 	dec	a
      0005CD 26 FB            [ 1] 1058 	jrne	00268$
      0005CF                       1059 00269$:
      0005CF 84               [ 1] 1060 	pop	a
                                   1061 ;	C:\Users\Admin\.platformio\packages\framework-ststm8spl\Libraries\STM8S_StdPeriph_Driver\src\stm8s_adc1.c: 424: if (NewState != DISABLE)
      0005D0 0D 05            [ 1] 1062 	tnz	(0x05, sp)
      0005D2 27 07            [ 1] 1063 	jreq	00105$
                                   1064 ;	C:\Users\Admin\.platformio\packages\framework-ststm8spl\Libraries\STM8S_StdPeriph_Driver\src\stm8s_adc1.c: 426: ADC1->AWCRH |= (uint8_t)((uint8_t)1 << (Channel - (uint8_t)8));
      0005D4 1A 01            [ 1] 1065 	or	a, (0x01, sp)
      0005D6 C7 54 0E         [ 1] 1066 	ld	0x540e, a
      0005D9 20 06            [ 2] 1067 	jra	00110$
      0005DB                       1068 00105$:
                                   1069 ;	C:\Users\Admin\.platformio\packages\framework-ststm8spl\Libraries\STM8S_StdPeriph_Driver\src\stm8s_adc1.c: 430: ADC1->AWCRH &= (uint8_t)~(uint8_t)((uint8_t)1 << (uint8_t)(Channel - (uint8_t)8));
      0005DB 43               [ 1] 1070 	cpl	a
      0005DC 14 01            [ 1] 1071 	and	a, (0x01, sp)
      0005DE C7 54 0E         [ 1] 1072 	ld	0x540e, a
      0005E1                       1073 00110$:
                                   1074 ;	C:\Users\Admin\.platformio\packages\framework-ststm8spl\Libraries\STM8S_StdPeriph_Driver\src\stm8s_adc1.c: 433: }
      0005E1 84               [ 1] 1075 	pop	a
      0005E2 81               [ 4] 1076 	ret
                                   1077 ;	C:\Users\Admin\.platformio\packages\framework-ststm8spl\Libraries\STM8S_StdPeriph_Driver\src\stm8s_adc1.c: 441: void ADC1_SetHighThreshold(uint16_t Threshold)
                                   1078 ;	-----------------------------------------
                                   1079 ;	 function ADC1_SetHighThreshold
                                   1080 ;	-----------------------------------------
      0005E3                       1081 _ADC1_SetHighThreshold:
                                   1082 ;	C:\Users\Admin\.platformio\packages\framework-ststm8spl\Libraries\STM8S_StdPeriph_Driver\src\stm8s_adc1.c: 443: ADC1->HTRH = (uint8_t)(Threshold >> (uint8_t)2);
      0005E3 1E 03            [ 2] 1083 	ldw	x, (0x03, sp)
      0005E5 54               [ 2] 1084 	srlw	x
      0005E6 54               [ 2] 1085 	srlw	x
      0005E7 9F               [ 1] 1086 	ld	a, xl
      0005E8 C7 54 08         [ 1] 1087 	ld	0x5408, a
                                   1088 ;	C:\Users\Admin\.platformio\packages\framework-ststm8spl\Libraries\STM8S_StdPeriph_Driver\src\stm8s_adc1.c: 444: ADC1->HTRL = (uint8_t)Threshold;
      0005EB 7B 04            [ 1] 1089 	ld	a, (0x04, sp)
      0005ED C7 54 09         [ 1] 1090 	ld	0x5409, a
                                   1091 ;	C:\Users\Admin\.platformio\packages\framework-ststm8spl\Libraries\STM8S_StdPeriph_Driver\src\stm8s_adc1.c: 445: }
      0005F0 81               [ 4] 1092 	ret
                                   1093 ;	C:\Users\Admin\.platformio\packages\framework-ststm8spl\Libraries\STM8S_StdPeriph_Driver\src\stm8s_adc1.c: 453: void ADC1_SetLowThreshold(uint16_t Threshold)
                                   1094 ;	-----------------------------------------
                                   1095 ;	 function ADC1_SetLowThreshold
                                   1096 ;	-----------------------------------------
      0005F1                       1097 _ADC1_SetLowThreshold:
                                   1098 ;	C:\Users\Admin\.platformio\packages\framework-ststm8spl\Libraries\STM8S_StdPeriph_Driver\src\stm8s_adc1.c: 455: ADC1->LTRL = (uint8_t)Threshold;
      0005F1 7B 04            [ 1] 1099 	ld	a, (0x04, sp)
      0005F3 C7 54 0B         [ 1] 1100 	ld	0x540b, a
                                   1101 ;	C:\Users\Admin\.platformio\packages\framework-ststm8spl\Libraries\STM8S_StdPeriph_Driver\src\stm8s_adc1.c: 456: ADC1->LTRH = (uint8_t)(Threshold >> (uint8_t)2);
      0005F6 1E 03            [ 2] 1102 	ldw	x, (0x03, sp)
      0005F8 54               [ 2] 1103 	srlw	x
      0005F9 54               [ 2] 1104 	srlw	x
      0005FA 9F               [ 1] 1105 	ld	a, xl
      0005FB C7 54 0A         [ 1] 1106 	ld	0x540a, a
                                   1107 ;	C:\Users\Admin\.platformio\packages\framework-ststm8spl\Libraries\STM8S_StdPeriph_Driver\src\stm8s_adc1.c: 457: }
      0005FE 81               [ 4] 1108 	ret
                                   1109 ;	C:\Users\Admin\.platformio\packages\framework-ststm8spl\Libraries\STM8S_StdPeriph_Driver\src\stm8s_adc1.c: 466: uint16_t ADC1_GetBufferValue(uint8_t Buffer)
                                   1110 ;	-----------------------------------------
                                   1111 ;	 function ADC1_GetBufferValue
                                   1112 ;	-----------------------------------------
      0005FF                       1113 _ADC1_GetBufferValue:
      0005FF 52 04            [ 2] 1114 	sub	sp, #4
                                   1115 ;	C:\Users\Admin\.platformio\packages\framework-ststm8spl\Libraries\STM8S_StdPeriph_Driver\src\stm8s_adc1.c: 472: assert_param(IS_ADC1_BUFFER_OK(Buffer));
      000601 7B 07            [ 1] 1116 	ld	a, (0x07, sp)
      000603 A1 09            [ 1] 1117 	cp	a, #0x09
      000605 23 0F            [ 2] 1118 	jrule	00107$
      000607 4B D8            [ 1] 1119 	push	#0xd8
      000609 4B 01            [ 1] 1120 	push	#0x01
      00060B 5F               [ 1] 1121 	clrw	x
      00060C 89               [ 2] 1122 	pushw	x
      00060D 4Br00            [ 1] 1123 	push	#<(___str_0+0)
      00060F 4Bs00            [ 1] 1124 	push	#((___str_0+0) >> 8)
      000611 CDr00r00         [ 4] 1125 	call	_assert_failed
      000614 5B 06            [ 2] 1126 	addw	sp, #6
      000616                       1127 00107$:
                                   1128 ;	C:\Users\Admin\.platformio\packages\framework-ststm8spl\Libraries\STM8S_StdPeriph_Driver\src\stm8s_adc1.c: 474: if ((ADC1->CR2 & ADC1_CR2_ALIGN) != 0) /* Right alignment */
      000616 C6 54 02         [ 1] 1129 	ld	a, 0x5402
      000619 6B 04            [ 1] 1130 	ld	(0x04, sp), a
                                   1131 ;	C:\Users\Admin\.platformio\packages\framework-ststm8spl\Libraries\STM8S_StdPeriph_Driver\src\stm8s_adc1.c: 477: templ = *(uint8_t*)(uint16_t)((uint16_t)ADC1_BaseAddress + (uint8_t)(Buffer << 1) + 1);
      00061B 7B 07            [ 1] 1132 	ld	a, (0x07, sp)
      00061D 48               [ 1] 1133 	sll	a
      00061E 5F               [ 1] 1134 	clrw	x
      00061F 97               [ 1] 1135 	ld	xl, a
      000620 90 93            [ 1] 1136 	ldw	y, x
      000622 72 A9 53 E1      [ 2] 1137 	addw	y, #0x53e1
                                   1138 ;	C:\Users\Admin\.platformio\packages\framework-ststm8spl\Libraries\STM8S_StdPeriph_Driver\src\stm8s_adc1.c: 479: temph = *(uint8_t*)(uint16_t)((uint16_t)ADC1_BaseAddress + (uint8_t)(Buffer << 1));
      000626 1C 53 E0         [ 2] 1139 	addw	x, #0x53e0
                                   1140 ;	C:\Users\Admin\.platformio\packages\framework-ststm8spl\Libraries\STM8S_StdPeriph_Driver\src\stm8s_adc1.c: 477: templ = *(uint8_t*)(uint16_t)((uint16_t)ADC1_BaseAddress + (uint8_t)(Buffer << 1) + 1);
                                   1141 ;	C:\Users\Admin\.platformio\packages\framework-ststm8spl\Libraries\STM8S_StdPeriph_Driver\src\stm8s_adc1.c: 479: temph = *(uint8_t*)(uint16_t)((uint16_t)ADC1_BaseAddress + (uint8_t)(Buffer << 1));
                                   1142 ;	C:\Users\Admin\.platformio\packages\framework-ststm8spl\Libraries\STM8S_StdPeriph_Driver\src\stm8s_adc1.c: 477: templ = *(uint8_t*)(uint16_t)((uint16_t)ADC1_BaseAddress + (uint8_t)(Buffer << 1) + 1);
      000629 90 F6            [ 1] 1143 	ld	a, (y)
      00062B 90 97            [ 1] 1144 	ld	yl, a
                                   1145 ;	C:\Users\Admin\.platformio\packages\framework-ststm8spl\Libraries\STM8S_StdPeriph_Driver\src\stm8s_adc1.c: 479: temph = *(uint8_t*)(uint16_t)((uint16_t)ADC1_BaseAddress + (uint8_t)(Buffer << 1));
      00062D F6               [ 1] 1146 	ld	a, (x)
      00062E 5F               [ 1] 1147 	clrw	x
                                   1148 ;	C:\Users\Admin\.platformio\packages\framework-ststm8spl\Libraries\STM8S_StdPeriph_Driver\src\stm8s_adc1.c: 474: if ((ADC1->CR2 & ADC1_CR2_ALIGN) != 0) /* Right alignment */
      00062F 88               [ 1] 1149 	push	a
      000630 7B 05            [ 1] 1150 	ld	a, (0x05, sp)
      000632 A5 08            [ 1] 1151 	bcp	a, #0x08
      000634 84               [ 1] 1152 	pop	a
      000635 27 10            [ 1] 1153 	jreq	00102$
                                   1154 ;	C:\Users\Admin\.platformio\packages\framework-ststm8spl\Libraries\STM8S_StdPeriph_Driver\src\stm8s_adc1.c: 477: templ = *(uint8_t*)(uint16_t)((uint16_t)ADC1_BaseAddress + (uint8_t)(Buffer << 1) + 1);
                                   1155 ;	C:\Users\Admin\.platformio\packages\framework-ststm8spl\Libraries\STM8S_StdPeriph_Driver\src\stm8s_adc1.c: 479: temph = *(uint8_t*)(uint16_t)((uint16_t)ADC1_BaseAddress + (uint8_t)(Buffer << 1));
                                   1156 ;	C:\Users\Admin\.platformio\packages\framework-ststm8spl\Libraries\STM8S_StdPeriph_Driver\src\stm8s_adc1.c: 481: temph = (uint16_t)(templ | (uint16_t)(temph << (uint8_t)8));
      000637 0F 02            [ 1] 1157 	clr	(0x02, sp)
      000639 0F 03            [ 1] 1158 	clr	(0x03, sp)
      00063B 1A 03            [ 1] 1159 	or	a, (0x03, sp)
      00063D 95               [ 1] 1160 	ld	xh, a
      00063E 90 9F            [ 1] 1161 	ld	a, yl
      000640 1A 02            [ 1] 1162 	or	a, (0x02, sp)
      000642 97               [ 1] 1163 	ld	xl, a
      000643 1F 03            [ 2] 1164 	ldw	(0x03, sp), x
      000645 20 19            [ 2] 1165 	jra	00103$
      000647                       1166 00102$:
                                   1167 ;	C:\Users\Admin\.platformio\packages\framework-ststm8spl\Libraries\STM8S_StdPeriph_Driver\src\stm8s_adc1.c: 486: temph = *(uint8_t*)(uint16_t)((uint16_t)ADC1_BaseAddress + (uint8_t)(Buffer << 1));
      000647 90 95            [ 1] 1168 	ld	yh, a
      000649 9E               [ 1] 1169 	ld	a, xh
                                   1170 ;	C:\Users\Admin\.platformio\packages\framework-ststm8spl\Libraries\STM8S_StdPeriph_Driver\src\stm8s_adc1.c: 488: templ = *(uint8_t*)(uint16_t)((uint16_t)ADC1_BaseAddress + (uint8_t)(Buffer << 1) + 1);
      00064A 93               [ 1] 1171 	ldw	x, y
                                   1172 ;	C:\Users\Admin\.platformio\packages\framework-ststm8spl\Libraries\STM8S_StdPeriph_Driver\src\stm8s_adc1.c: 490: temph = (uint16_t)((uint16_t)((uint16_t)templ << 6) | (uint16_t)(temph << 8));
      00064B 02               [ 1] 1173 	rlwa	x
      00064C 4F               [ 1] 1174 	clr	a
      00064D 01               [ 1] 1175 	rrwa	x
      00064E 58               [ 2] 1176 	sllw	x
      00064F 58               [ 2] 1177 	sllw	x
      000650 58               [ 2] 1178 	sllw	x
      000651 58               [ 2] 1179 	sllw	x
      000652 58               [ 2] 1180 	sllw	x
      000653 58               [ 2] 1181 	sllw	x
      000654 1F 01            [ 2] 1182 	ldw	(0x01, sp), x
      000656 7B 02            [ 1] 1183 	ld	a, (0x02, sp)
      000658 6B 04            [ 1] 1184 	ld	(0x04, sp), a
      00065A 90 9E            [ 1] 1185 	ld	a, yh
      00065C 1A 01            [ 1] 1186 	or	a, (0x01, sp)
      00065E 6B 03            [ 1] 1187 	ld	(0x03, sp), a
      000660                       1188 00103$:
                                   1189 ;	C:\Users\Admin\.platformio\packages\framework-ststm8spl\Libraries\STM8S_StdPeriph_Driver\src\stm8s_adc1.c: 493: return ((uint16_t)temph);
      000660 1E 03            [ 2] 1190 	ldw	x, (0x03, sp)
                                   1191 ;	C:\Users\Admin\.platformio\packages\framework-ststm8spl\Libraries\STM8S_StdPeriph_Driver\src\stm8s_adc1.c: 494: }
      000662 5B 04            [ 2] 1192 	addw	sp, #4
      000664 81               [ 4] 1193 	ret
                                   1194 ;	C:\Users\Admin\.platformio\packages\framework-ststm8spl\Libraries\STM8S_StdPeriph_Driver\src\stm8s_adc1.c: 502: FlagStatus ADC1_GetAWDChannelStatus(ADC1_Channel_TypeDef Channel)
                                   1195 ;	-----------------------------------------
                                   1196 ;	 function ADC1_GetAWDChannelStatus
                                   1197 ;	-----------------------------------------
      000665                       1198 _ADC1_GetAWDChannelStatus:
      000665 88               [ 1] 1199 	push	a
                                   1200 ;	C:\Users\Admin\.platformio\packages\framework-ststm8spl\Libraries\STM8S_StdPeriph_Driver\src\stm8s_adc1.c: 507: assert_param(IS_ADC1_CHANNEL_OK(Channel));
      000666 0D 04            [ 1] 1201 	tnz	(0x04, sp)
      000668 27 4A            [ 1] 1202 	jreq	00107$
      00066A 7B 04            [ 1] 1203 	ld	a, (0x04, sp)
      00066C 4A               [ 1] 1204 	dec	a
      00066D 27 45            [ 1] 1205 	jreq	00107$
      00066F 7B 04            [ 1] 1206 	ld	a, (0x04, sp)
      000671 A1 02            [ 1] 1207 	cp	a, #0x02
      000673 27 3F            [ 1] 1208 	jreq	00107$
      000675 7B 04            [ 1] 1209 	ld	a, (0x04, sp)
      000677 A1 03            [ 1] 1210 	cp	a, #0x03
      000679 27 39            [ 1] 1211 	jreq	00107$
      00067B 7B 04            [ 1] 1212 	ld	a, (0x04, sp)
      00067D A1 04            [ 1] 1213 	cp	a, #0x04
      00067F 27 33            [ 1] 1214 	jreq	00107$
      000681 7B 04            [ 1] 1215 	ld	a, (0x04, sp)
      000683 A1 05            [ 1] 1216 	cp	a, #0x05
      000685 27 2D            [ 1] 1217 	jreq	00107$
      000687 7B 04            [ 1] 1218 	ld	a, (0x04, sp)
      000689 A1 06            [ 1] 1219 	cp	a, #0x06
      00068B 27 27            [ 1] 1220 	jreq	00107$
      00068D 7B 04            [ 1] 1221 	ld	a, (0x04, sp)
      00068F A1 07            [ 1] 1222 	cp	a, #0x07
      000691 27 21            [ 1] 1223 	jreq	00107$
      000693 7B 04            [ 1] 1224 	ld	a, (0x04, sp)
      000695 A1 08            [ 1] 1225 	cp	a, #0x08
      000697 27 1B            [ 1] 1226 	jreq	00107$
      000699 7B 04            [ 1] 1227 	ld	a, (0x04, sp)
      00069B A1 0C            [ 1] 1228 	cp	a, #0x0c
      00069D 27 15            [ 1] 1229 	jreq	00107$
      00069F 7B 04            [ 1] 1230 	ld	a, (0x04, sp)
      0006A1 A1 09            [ 1] 1231 	cp	a, #0x09
      0006A3 27 0F            [ 1] 1232 	jreq	00107$
      0006A5 4B FB            [ 1] 1233 	push	#0xfb
      0006A7 4B 01            [ 1] 1234 	push	#0x01
      0006A9 5F               [ 1] 1235 	clrw	x
      0006AA 89               [ 2] 1236 	pushw	x
      0006AB 4Br00            [ 1] 1237 	push	#<(___str_0+0)
      0006AD 4Bs00            [ 1] 1238 	push	#((___str_0+0) >> 8)
      0006AF CDr00r00         [ 4] 1239 	call	_assert_failed
      0006B2 5B 06            [ 2] 1240 	addw	sp, #6
      0006B4                       1241 00107$:
                                   1242 ;	C:\Users\Admin\.platformio\packages\framework-ststm8spl\Libraries\STM8S_StdPeriph_Driver\src\stm8s_adc1.c: 509: if (Channel < (uint8_t)8)
      0006B4 7B 04            [ 1] 1243 	ld	a, (0x04, sp)
      0006B6 A1 08            [ 1] 1244 	cp	a, #0x08
      0006B8 24 16            [ 1] 1245 	jrnc	00102$
                                   1246 ;	C:\Users\Admin\.platformio\packages\framework-ststm8spl\Libraries\STM8S_StdPeriph_Driver\src\stm8s_adc1.c: 511: status = (uint8_t)(ADC1->AWSRL & (uint8_t)((uint8_t)1 << Channel));
      0006BA C6 54 0D         [ 1] 1247 	ld	a, 0x540d
      0006BD 88               [ 1] 1248 	push	a
      0006BE A6 01            [ 1] 1249 	ld	a, #0x01
      0006C0 6B 02            [ 1] 1250 	ld	(0x02, sp), a
      0006C2 7B 05            [ 1] 1251 	ld	a, (0x05, sp)
      0006C4 27 05            [ 1] 1252 	jreq	00231$
      0006C6                       1253 00230$:
      0006C6 08 02            [ 1] 1254 	sll	(0x02, sp)
      0006C8 4A               [ 1] 1255 	dec	a
      0006C9 26 FB            [ 1] 1256 	jrne	00230$
      0006CB                       1257 00231$:
      0006CB 84               [ 1] 1258 	pop	a
      0006CC 14 01            [ 1] 1259 	and	a, (0x01, sp)
      0006CE 20 19            [ 2] 1260 	jra	00103$
      0006D0                       1261 00102$:
                                   1262 ;	C:\Users\Admin\.platformio\packages\framework-ststm8spl\Libraries\STM8S_StdPeriph_Driver\src\stm8s_adc1.c: 515: status = (uint8_t)(ADC1->AWSRH & (uint8_t)((uint8_t)1 << (Channel - (uint8_t)8)));
      0006D0 C6 54 0C         [ 1] 1263 	ld	a, 0x540c
      0006D3 97               [ 1] 1264 	ld	xl, a
      0006D4 7B 04            [ 1] 1265 	ld	a, (0x04, sp)
      0006D6 A0 08            [ 1] 1266 	sub	a, #0x08
      0006D8 88               [ 1] 1267 	push	a
      0006D9 A6 01            [ 1] 1268 	ld	a, #0x01
      0006DB 6B 02            [ 1] 1269 	ld	(0x02, sp), a
      0006DD 84               [ 1] 1270 	pop	a
      0006DE 4D               [ 1] 1271 	tnz	a
      0006DF 27 05            [ 1] 1272 	jreq	00233$
      0006E1                       1273 00232$:
      0006E1 08 01            [ 1] 1274 	sll	(0x01, sp)
      0006E3 4A               [ 1] 1275 	dec	a
      0006E4 26 FB            [ 1] 1276 	jrne	00232$
      0006E6                       1277 00233$:
      0006E6 9F               [ 1] 1278 	ld	a, xl
      0006E7 14 01            [ 1] 1279 	and	a, (0x01, sp)
      0006E9                       1280 00103$:
                                   1281 ;	C:\Users\Admin\.platformio\packages\framework-ststm8spl\Libraries\STM8S_StdPeriph_Driver\src\stm8s_adc1.c: 518: return ((FlagStatus)status);
                                   1282 ;	C:\Users\Admin\.platformio\packages\framework-ststm8spl\Libraries\STM8S_StdPeriph_Driver\src\stm8s_adc1.c: 519: }
      0006E9 5B 01            [ 2] 1283 	addw	sp, #1
      0006EB 81               [ 4] 1284 	ret
                                   1285 ;	C:\Users\Admin\.platformio\packages\framework-ststm8spl\Libraries\STM8S_StdPeriph_Driver\src\stm8s_adc1.c: 527: FlagStatus ADC1_GetFlagStatus(ADC1_Flag_TypeDef Flag)
                                   1286 ;	-----------------------------------------
                                   1287 ;	 function ADC1_GetFlagStatus
                                   1288 ;	-----------------------------------------
      0006EC                       1289 _ADC1_GetFlagStatus:
      0006EC 89               [ 2] 1290 	pushw	x
                                   1291 ;	C:\Users\Admin\.platformio\packages\framework-ststm8spl\Libraries\STM8S_StdPeriph_Driver\src\stm8s_adc1.c: 533: assert_param(IS_ADC1_FLAG_OK(Flag));
      0006ED 7B 05            [ 1] 1292 	ld	a, (0x05, sp)
      0006EF A1 80            [ 1] 1293 	cp	a, #0x80
      0006F1 27 57            [ 1] 1294 	jreq	00113$
      0006F3 7B 05            [ 1] 1295 	ld	a, (0x05, sp)
      0006F5 A1 41            [ 1] 1296 	cp	a, #0x41
      0006F7 27 51            [ 1] 1297 	jreq	00113$
      0006F9 7B 05            [ 1] 1298 	ld	a, (0x05, sp)
      0006FB A1 40            [ 1] 1299 	cp	a, #0x40
      0006FD 27 4B            [ 1] 1300 	jreq	00113$
      0006FF 7B 05            [ 1] 1301 	ld	a, (0x05, sp)
      000701 A1 10            [ 1] 1302 	cp	a, #0x10
      000703 27 45            [ 1] 1303 	jreq	00113$
      000705 7B 05            [ 1] 1304 	ld	a, (0x05, sp)
      000707 A1 11            [ 1] 1305 	cp	a, #0x11
      000709 27 3F            [ 1] 1306 	jreq	00113$
      00070B 7B 05            [ 1] 1307 	ld	a, (0x05, sp)
      00070D A1 12            [ 1] 1308 	cp	a, #0x12
      00070F 27 39            [ 1] 1309 	jreq	00113$
      000711 7B 05            [ 1] 1310 	ld	a, (0x05, sp)
      000713 A1 13            [ 1] 1311 	cp	a, #0x13
      000715 27 33            [ 1] 1312 	jreq	00113$
      000717 7B 05            [ 1] 1313 	ld	a, (0x05, sp)
      000719 A1 14            [ 1] 1314 	cp	a, #0x14
      00071B 27 2D            [ 1] 1315 	jreq	00113$
      00071D 7B 05            [ 1] 1316 	ld	a, (0x05, sp)
      00071F A1 15            [ 1] 1317 	cp	a, #0x15
      000721 27 27            [ 1] 1318 	jreq	00113$
      000723 7B 05            [ 1] 1319 	ld	a, (0x05, sp)
      000725 A1 16            [ 1] 1320 	cp	a, #0x16
      000727 27 21            [ 1] 1321 	jreq	00113$
      000729 7B 05            [ 1] 1322 	ld	a, (0x05, sp)
      00072B A1 17            [ 1] 1323 	cp	a, #0x17
      00072D 27 1B            [ 1] 1324 	jreq	00113$
      00072F 7B 05            [ 1] 1325 	ld	a, (0x05, sp)
      000731 A1 18            [ 1] 1326 	cp	a, #0x18
      000733 27 15            [ 1] 1327 	jreq	00113$
      000735 7B 05            [ 1] 1328 	ld	a, (0x05, sp)
      000737 A1 19            [ 1] 1329 	cp	a, #0x19
      000739 27 0F            [ 1] 1330 	jreq	00113$
      00073B 4B 15            [ 1] 1331 	push	#0x15
      00073D 4B 02            [ 1] 1332 	push	#0x02
      00073F 5F               [ 1] 1333 	clrw	x
      000740 89               [ 2] 1334 	pushw	x
      000741 4Br00            [ 1] 1335 	push	#<(___str_0+0)
      000743 4Bs00            [ 1] 1336 	push	#((___str_0+0) >> 8)
      000745 CDr00r00         [ 4] 1337 	call	_assert_failed
      000748 5B 06            [ 2] 1338 	addw	sp, #6
      00074A                       1339 00113$:
                                   1340 ;	C:\Users\Admin\.platformio\packages\framework-ststm8spl\Libraries\STM8S_StdPeriph_Driver\src\stm8s_adc1.c: 535: if ((Flag & 0x0F) == 0x01)
      00074A 7B 05            [ 1] 1341 	ld	a, (0x05, sp)
      00074C 0F 01            [ 1] 1342 	clr	(0x01, sp)
      00074E 88               [ 1] 1343 	push	a
      00074F A4 0F            [ 1] 1344 	and	a, #0x0f
      000751 97               [ 1] 1345 	ld	xl, a
      000752 4F               [ 1] 1346 	clr	a
      000753 95               [ 1] 1347 	ld	xh, a
      000754 84               [ 1] 1348 	pop	a
      000755 5A               [ 2] 1349 	decw	x
      000756 26 07            [ 1] 1350 	jrne	00108$
                                   1351 ;	C:\Users\Admin\.platformio\packages\framework-ststm8spl\Libraries\STM8S_StdPeriph_Driver\src\stm8s_adc1.c: 538: flagstatus = (uint8_t)(ADC1->CR3 & ADC1_CR3_OVR);
      000758 C6 54 03         [ 1] 1352 	ld	a, 0x5403
      00075B A4 40            [ 1] 1353 	and	a, #0x40
      00075D 20 47            [ 2] 1354 	jra	00109$
      00075F                       1355 00108$:
                                   1356 ;	C:\Users\Admin\.platformio\packages\framework-ststm8spl\Libraries\STM8S_StdPeriph_Driver\src\stm8s_adc1.c: 540: else if ((Flag & 0xF0) == 0x10)
      00075F A4 F0            [ 1] 1357 	and	a, #0xf0
      000761 97               [ 1] 1358 	ld	xl, a
      000762 4F               [ 1] 1359 	clr	a
      000763 95               [ 1] 1360 	ld	xh, a
      000764 A3 00 10         [ 2] 1361 	cpw	x, #0x0010
      000767 26 38            [ 1] 1362 	jrne	00105$
                                   1363 ;	C:\Users\Admin\.platformio\packages\framework-ststm8spl\Libraries\STM8S_StdPeriph_Driver\src\stm8s_adc1.c: 543: temp = (uint8_t)(Flag & (uint8_t)0x0F);
      000769 7B 05            [ 1] 1364 	ld	a, (0x05, sp)
      00076B A4 0F            [ 1] 1365 	and	a, #0x0f
                                   1366 ;	C:\Users\Admin\.platformio\packages\framework-ststm8spl\Libraries\STM8S_StdPeriph_Driver\src\stm8s_adc1.c: 544: if (temp < 8)
      00076D 97               [ 1] 1367 	ld	xl, a
      00076E A1 08            [ 1] 1368 	cp	a, #0x08
      000770 24 16            [ 1] 1369 	jrnc	00102$
                                   1370 ;	C:\Users\Admin\.platformio\packages\framework-ststm8spl\Libraries\STM8S_StdPeriph_Driver\src\stm8s_adc1.c: 546: flagstatus = (uint8_t)(ADC1->AWSRL & (uint8_t)((uint8_t)1 << temp));
      000772 C6 54 0D         [ 1] 1371 	ld	a, 0x540d
      000775 6B 02            [ 1] 1372 	ld	(0x02, sp), a
      000777 A6 01            [ 1] 1373 	ld	a, #0x01
      000779 88               [ 1] 1374 	push	a
      00077A 9F               [ 1] 1375 	ld	a, xl
      00077B 4D               [ 1] 1376 	tnz	a
      00077C 27 05            [ 1] 1377 	jreq	00277$
      00077E                       1378 00276$:
      00077E 08 01            [ 1] 1379 	sll	(1, sp)
      000780 4A               [ 1] 1380 	dec	a
      000781 26 FB            [ 1] 1381 	jrne	00276$
      000783                       1382 00277$:
      000783 84               [ 1] 1383 	pop	a
      000784 14 02            [ 1] 1384 	and	a, (0x02, sp)
      000786 20 1E            [ 2] 1385 	jra	00109$
      000788                       1386 00102$:
                                   1387 ;	C:\Users\Admin\.platformio\packages\framework-ststm8spl\Libraries\STM8S_StdPeriph_Driver\src\stm8s_adc1.c: 550: flagstatus = (uint8_t)(ADC1->AWSRH & (uint8_t)((uint8_t)1 << (temp - 8)));
      000788 C6 54 0C         [ 1] 1388 	ld	a, 0x540c
      00078B 6B 02            [ 1] 1389 	ld	(0x02, sp), a
      00078D 1D 00 08         [ 2] 1390 	subw	x, #8
      000790 A6 01            [ 1] 1391 	ld	a, #0x01
      000792 88               [ 1] 1392 	push	a
      000793 9F               [ 1] 1393 	ld	a, xl
      000794 4D               [ 1] 1394 	tnz	a
      000795 27 05            [ 1] 1395 	jreq	00279$
      000797                       1396 00278$:
      000797 08 01            [ 1] 1397 	sll	(1, sp)
      000799 4A               [ 1] 1398 	dec	a
      00079A 26 FB            [ 1] 1399 	jrne	00278$
      00079C                       1400 00279$:
      00079C 84               [ 1] 1401 	pop	a
      00079D 14 02            [ 1] 1402 	and	a, (0x02, sp)
      00079F 20 05            [ 2] 1403 	jra	00109$
      0007A1                       1404 00105$:
                                   1405 ;	C:\Users\Admin\.platformio\packages\framework-ststm8spl\Libraries\STM8S_StdPeriph_Driver\src\stm8s_adc1.c: 555: flagstatus = (uint8_t)(ADC1->CSR & Flag);
      0007A1 C6 54 00         [ 1] 1406 	ld	a, 0x5400
      0007A4 14 05            [ 1] 1407 	and	a, (0x05, sp)
      0007A6                       1408 00109$:
                                   1409 ;	C:\Users\Admin\.platformio\packages\framework-ststm8spl\Libraries\STM8S_StdPeriph_Driver\src\stm8s_adc1.c: 557: return ((FlagStatus)flagstatus);
                                   1410 ;	C:\Users\Admin\.platformio\packages\framework-ststm8spl\Libraries\STM8S_StdPeriph_Driver\src\stm8s_adc1.c: 559: }
      0007A6 85               [ 2] 1411 	popw	x
      0007A7 81               [ 4] 1412 	ret
                                   1413 ;	C:\Users\Admin\.platformio\packages\framework-ststm8spl\Libraries\STM8S_StdPeriph_Driver\src\stm8s_adc1.c: 567: void ADC1_ClearFlag(ADC1_Flag_TypeDef Flag)
                                   1414 ;	-----------------------------------------
                                   1415 ;	 function ADC1_ClearFlag
                                   1416 ;	-----------------------------------------
      0007A8                       1417 _ADC1_ClearFlag:
      0007A8 89               [ 2] 1418 	pushw	x
                                   1419 ;	C:\Users\Admin\.platformio\packages\framework-ststm8spl\Libraries\STM8S_StdPeriph_Driver\src\stm8s_adc1.c: 572: assert_param(IS_ADC1_FLAG_OK(Flag));
      0007A9 7B 05            [ 1] 1420 	ld	a, (0x05, sp)
      0007AB A1 80            [ 1] 1421 	cp	a, #0x80
      0007AD 27 57            [ 1] 1422 	jreq	00113$
      0007AF 7B 05            [ 1] 1423 	ld	a, (0x05, sp)
      0007B1 A1 41            [ 1] 1424 	cp	a, #0x41
      0007B3 27 51            [ 1] 1425 	jreq	00113$
      0007B5 7B 05            [ 1] 1426 	ld	a, (0x05, sp)
      0007B7 A1 40            [ 1] 1427 	cp	a, #0x40
      0007B9 27 4B            [ 1] 1428 	jreq	00113$
      0007BB 7B 05            [ 1] 1429 	ld	a, (0x05, sp)
      0007BD A1 10            [ 1] 1430 	cp	a, #0x10
      0007BF 27 45            [ 1] 1431 	jreq	00113$
      0007C1 7B 05            [ 1] 1432 	ld	a, (0x05, sp)
      0007C3 A1 11            [ 1] 1433 	cp	a, #0x11
      0007C5 27 3F            [ 1] 1434 	jreq	00113$
      0007C7 7B 05            [ 1] 1435 	ld	a, (0x05, sp)
      0007C9 A1 12            [ 1] 1436 	cp	a, #0x12
      0007CB 27 39            [ 1] 1437 	jreq	00113$
      0007CD 7B 05            [ 1] 1438 	ld	a, (0x05, sp)
      0007CF A1 13            [ 1] 1439 	cp	a, #0x13
      0007D1 27 33            [ 1] 1440 	jreq	00113$
      0007D3 7B 05            [ 1] 1441 	ld	a, (0x05, sp)
      0007D5 A1 14            [ 1] 1442 	cp	a, #0x14
      0007D7 27 2D            [ 1] 1443 	jreq	00113$
      0007D9 7B 05            [ 1] 1444 	ld	a, (0x05, sp)
      0007DB A1 15            [ 1] 1445 	cp	a, #0x15
      0007DD 27 27            [ 1] 1446 	jreq	00113$
      0007DF 7B 05            [ 1] 1447 	ld	a, (0x05, sp)
      0007E1 A1 16            [ 1] 1448 	cp	a, #0x16
      0007E3 27 21            [ 1] 1449 	jreq	00113$
      0007E5 7B 05            [ 1] 1450 	ld	a, (0x05, sp)
      0007E7 A1 17            [ 1] 1451 	cp	a, #0x17
      0007E9 27 1B            [ 1] 1452 	jreq	00113$
      0007EB 7B 05            [ 1] 1453 	ld	a, (0x05, sp)
      0007ED A1 18            [ 1] 1454 	cp	a, #0x18
      0007EF 27 15            [ 1] 1455 	jreq	00113$
      0007F1 7B 05            [ 1] 1456 	ld	a, (0x05, sp)
      0007F3 A1 19            [ 1] 1457 	cp	a, #0x19
      0007F5 27 0F            [ 1] 1458 	jreq	00113$
      0007F7 4B 3C            [ 1] 1459 	push	#0x3c
      0007F9 4B 02            [ 1] 1460 	push	#0x02
      0007FB 5F               [ 1] 1461 	clrw	x
      0007FC 89               [ 2] 1462 	pushw	x
      0007FD 4Br00            [ 1] 1463 	push	#<(___str_0+0)
      0007FF 4Bs00            [ 1] 1464 	push	#((___str_0+0) >> 8)
      000801 CDr00r00         [ 4] 1465 	call	_assert_failed
      000804 5B 06            [ 2] 1466 	addw	sp, #6
      000806                       1467 00113$:
                                   1468 ;	C:\Users\Admin\.platformio\packages\framework-ststm8spl\Libraries\STM8S_StdPeriph_Driver\src\stm8s_adc1.c: 574: if ((Flag & 0x0F) == 0x01)
      000806 7B 05            [ 1] 1469 	ld	a, (0x05, sp)
      000808 0F 01            [ 1] 1470 	clr	(0x01, sp)
      00080A 88               [ 1] 1471 	push	a
      00080B A4 0F            [ 1] 1472 	and	a, #0x0f
      00080D 97               [ 1] 1473 	ld	xl, a
      00080E 4F               [ 1] 1474 	clr	a
      00080F 95               [ 1] 1475 	ld	xh, a
      000810 84               [ 1] 1476 	pop	a
      000811 5A               [ 2] 1477 	decw	x
      000812 26 06            [ 1] 1478 	jrne	00108$
                                   1479 ;	C:\Users\Admin\.platformio\packages\framework-ststm8spl\Libraries\STM8S_StdPeriph_Driver\src\stm8s_adc1.c: 577: ADC1->CR3 &= (uint8_t)(~ADC1_CR3_OVR);
      000814 72 1D 54 03      [ 1] 1480 	bres	21507, #6
      000818 20 57            [ 2] 1481 	jra	00110$
      00081A                       1482 00108$:
                                   1483 ;	C:\Users\Admin\.platformio\packages\framework-ststm8spl\Libraries\STM8S_StdPeriph_Driver\src\stm8s_adc1.c: 579: else if ((Flag & 0xF0) == 0x10)
      00081A A4 F0            [ 1] 1484 	and	a, #0xf0
      00081C 97               [ 1] 1485 	ld	xl, a
      00081D 4F               [ 1] 1486 	clr	a
      00081E 95               [ 1] 1487 	ld	xh, a
      00081F A3 00 10         [ 2] 1488 	cpw	x, #0x0010
      000822 26 40            [ 1] 1489 	jrne	00105$
                                   1490 ;	C:\Users\Admin\.platformio\packages\framework-ststm8spl\Libraries\STM8S_StdPeriph_Driver\src\stm8s_adc1.c: 582: temp = (uint8_t)(Flag & (uint8_t)0x0F);
      000824 7B 05            [ 1] 1491 	ld	a, (0x05, sp)
      000826 A4 0F            [ 1] 1492 	and	a, #0x0f
                                   1493 ;	C:\Users\Admin\.platformio\packages\framework-ststm8spl\Libraries\STM8S_StdPeriph_Driver\src\stm8s_adc1.c: 583: if (temp < 8)
      000828 97               [ 1] 1494 	ld	xl, a
      000829 A1 08            [ 1] 1495 	cp	a, #0x08
      00082B 24 1A            [ 1] 1496 	jrnc	00102$
                                   1497 ;	C:\Users\Admin\.platformio\packages\framework-ststm8spl\Libraries\STM8S_StdPeriph_Driver\src\stm8s_adc1.c: 585: ADC1->AWSRL &= (uint8_t)~(uint8_t)((uint8_t)1 << temp);
      00082D C6 54 0D         [ 1] 1498 	ld	a, 0x540d
      000830 6B 02            [ 1] 1499 	ld	(0x02, sp), a
      000832 A6 01            [ 1] 1500 	ld	a, #0x01
      000834 88               [ 1] 1501 	push	a
      000835 9F               [ 1] 1502 	ld	a, xl
      000836 4D               [ 1] 1503 	tnz	a
      000837 27 05            [ 1] 1504 	jreq	00277$
      000839                       1505 00276$:
      000839 08 01            [ 1] 1506 	sll	(1, sp)
      00083B 4A               [ 1] 1507 	dec	a
      00083C 26 FB            [ 1] 1508 	jrne	00276$
      00083E                       1509 00277$:
      00083E 84               [ 1] 1510 	pop	a
      00083F 43               [ 1] 1511 	cpl	a
      000840 14 02            [ 1] 1512 	and	a, (0x02, sp)
      000842 C7 54 0D         [ 1] 1513 	ld	0x540d, a
      000845 20 2A            [ 2] 1514 	jra	00110$
      000847                       1515 00102$:
                                   1516 ;	C:\Users\Admin\.platformio\packages\framework-ststm8spl\Libraries\STM8S_StdPeriph_Driver\src\stm8s_adc1.c: 589: ADC1->AWSRH &= (uint8_t)~(uint8_t)((uint8_t)1 << (temp - 8));
      000847 C6 54 0C         [ 1] 1517 	ld	a, 0x540c
      00084A 6B 02            [ 1] 1518 	ld	(0x02, sp), a
      00084C 1D 00 08         [ 2] 1519 	subw	x, #8
      00084F A6 01            [ 1] 1520 	ld	a, #0x01
      000851 88               [ 1] 1521 	push	a
      000852 9F               [ 1] 1522 	ld	a, xl
      000853 4D               [ 1] 1523 	tnz	a
      000854 27 05            [ 1] 1524 	jreq	00279$
      000856                       1525 00278$:
      000856 08 01            [ 1] 1526 	sll	(1, sp)
      000858 4A               [ 1] 1527 	dec	a
      000859 26 FB            [ 1] 1528 	jrne	00278$
      00085B                       1529 00279$:
      00085B 84               [ 1] 1530 	pop	a
      00085C 43               [ 1] 1531 	cpl	a
      00085D 14 02            [ 1] 1532 	and	a, (0x02, sp)
      00085F C7 54 0C         [ 1] 1533 	ld	0x540c, a
      000862 20 0D            [ 2] 1534 	jra	00110$
      000864                       1535 00105$:
                                   1536 ;	C:\Users\Admin\.platformio\packages\framework-ststm8spl\Libraries\STM8S_StdPeriph_Driver\src\stm8s_adc1.c: 594: ADC1->CSR &= (uint8_t) (~Flag);
      000864 C6 54 00         [ 1] 1537 	ld	a, 0x5400
      000867 6B 02            [ 1] 1538 	ld	(0x02, sp), a
      000869 7B 05            [ 1] 1539 	ld	a, (0x05, sp)
      00086B 43               [ 1] 1540 	cpl	a
      00086C 14 02            [ 1] 1541 	and	a, (0x02, sp)
      00086E C7 54 00         [ 1] 1542 	ld	0x5400, a
      000871                       1543 00110$:
                                   1544 ;	C:\Users\Admin\.platformio\packages\framework-ststm8spl\Libraries\STM8S_StdPeriph_Driver\src\stm8s_adc1.c: 596: }
      000871 85               [ 2] 1545 	popw	x
      000872 81               [ 4] 1546 	ret
                                   1547 ;	C:\Users\Admin\.platformio\packages\framework-ststm8spl\Libraries\STM8S_StdPeriph_Driver\src\stm8s_adc1.c: 616: ITStatus ADC1_GetITStatus(ADC1_IT_TypeDef ITPendingBit)
                                   1548 ;	-----------------------------------------
                                   1549 ;	 function ADC1_GetITStatus
                                   1550 ;	-----------------------------------------
      000873                       1551 _ADC1_GetITStatus:
      000873 88               [ 1] 1552 	push	a
                                   1553 ;	C:\Users\Admin\.platformio\packages\framework-ststm8spl\Libraries\STM8S_StdPeriph_Driver\src\stm8s_adc1.c: 622: assert_param(IS_ADC1_ITPENDINGBIT_OK(ITPendingBit));
      000874 1E 04            [ 2] 1554 	ldw	x, (0x04, sp)
      000876 A3 00 80         [ 2] 1555 	cpw	x, #0x0080
      000879 27 4B            [ 1] 1556 	jreq	00110$
      00087B A3 01 40         [ 2] 1557 	cpw	x, #0x0140
      00087E 27 46            [ 1] 1558 	jreq	00110$
      000880 A3 01 10         [ 2] 1559 	cpw	x, #0x0110
      000883 27 41            [ 1] 1560 	jreq	00110$
      000885 A3 01 11         [ 2] 1561 	cpw	x, #0x0111
      000888 27 3C            [ 1] 1562 	jreq	00110$
      00088A A3 01 12         [ 2] 1563 	cpw	x, #0x0112
      00088D 27 37            [ 1] 1564 	jreq	00110$
      00088F A3 01 13         [ 2] 1565 	cpw	x, #0x0113
      000892 27 32            [ 1] 1566 	jreq	00110$
      000894 A3 01 14         [ 2] 1567 	cpw	x, #0x0114
      000897 27 2D            [ 1] 1568 	jreq	00110$
      000899 A3 01 15         [ 2] 1569 	cpw	x, #0x0115
      00089C 27 28            [ 1] 1570 	jreq	00110$
      00089E A3 01 16         [ 2] 1571 	cpw	x, #0x0116
      0008A1 27 23            [ 1] 1572 	jreq	00110$
      0008A3 A3 01 17         [ 2] 1573 	cpw	x, #0x0117
      0008A6 27 1E            [ 1] 1574 	jreq	00110$
      0008A8 A3 01 18         [ 2] 1575 	cpw	x, #0x0118
      0008AB 27 19            [ 1] 1576 	jreq	00110$
      0008AD A3 01 1C         [ 2] 1577 	cpw	x, #0x011c
      0008B0 27 14            [ 1] 1578 	jreq	00110$
      0008B2 A3 01 19         [ 2] 1579 	cpw	x, #0x0119
      0008B5 27 0F            [ 1] 1580 	jreq	00110$
      0008B7 4B 6E            [ 1] 1581 	push	#0x6e
      0008B9 4B 02            [ 1] 1582 	push	#0x02
      0008BB 5F               [ 1] 1583 	clrw	x
      0008BC 89               [ 2] 1584 	pushw	x
      0008BD 4Br00            [ 1] 1585 	push	#<(___str_0+0)
      0008BF 4Bs00            [ 1] 1586 	push	#((___str_0+0) >> 8)
      0008C1 CDr00r00         [ 4] 1587 	call	_assert_failed
      0008C4 5B 06            [ 2] 1588 	addw	sp, #6
      0008C6                       1589 00110$:
                                   1590 ;	C:\Users\Admin\.platformio\packages\framework-ststm8spl\Libraries\STM8S_StdPeriph_Driver\src\stm8s_adc1.c: 624: if (((uint16_t)ITPendingBit & 0xF0) == 0x10)
      0008C6 1E 04            [ 2] 1591 	ldw	x, (0x04, sp)
      0008C8 90 5F            [ 1] 1592 	clrw	y
      0008CA 9F               [ 1] 1593 	ld	a, xl
      0008CB A4 F0            [ 1] 1594 	and	a, #0xf0
      0008CD 90 97            [ 1] 1595 	ld	yl, a
      0008CF 90 A3 00 10      [ 2] 1596 	cpw	y, #0x0010
      0008D3 26 37            [ 1] 1597 	jrne	00105$
                                   1598 ;	C:\Users\Admin\.platformio\packages\framework-ststm8spl\Libraries\STM8S_StdPeriph_Driver\src\stm8s_adc1.c: 627: temp = (uint8_t)((uint16_t)ITPendingBit & 0x0F);
      0008D5 9F               [ 1] 1599 	ld	a, xl
      0008D6 A4 0F            [ 1] 1600 	and	a, #0x0f
                                   1601 ;	C:\Users\Admin\.platformio\packages\framework-ststm8spl\Libraries\STM8S_StdPeriph_Driver\src\stm8s_adc1.c: 628: if (temp < 8)
      0008D8 97               [ 1] 1602 	ld	xl, a
      0008D9 A1 08            [ 1] 1603 	cp	a, #0x08
      0008DB 24 16            [ 1] 1604 	jrnc	00102$
                                   1605 ;	C:\Users\Admin\.platformio\packages\framework-ststm8spl\Libraries\STM8S_StdPeriph_Driver\src\stm8s_adc1.c: 630: itstatus = (ITStatus)(ADC1->AWSRL & (uint8_t)((uint8_t)1 << temp));
      0008DD C6 54 0D         [ 1] 1606 	ld	a, 0x540d
      0008E0 88               [ 1] 1607 	push	a
      0008E1 A6 01            [ 1] 1608 	ld	a, #0x01
      0008E3 6B 02            [ 1] 1609 	ld	(0x02, sp), a
      0008E5 9F               [ 1] 1610 	ld	a, xl
      0008E6 4D               [ 1] 1611 	tnz	a
      0008E7 27 05            [ 1] 1612 	jreq	00266$
      0008E9                       1613 00265$:
      0008E9 08 02            [ 1] 1614 	sll	(0x02, sp)
      0008EB 4A               [ 1] 1615 	dec	a
      0008EC 26 FB            [ 1] 1616 	jrne	00265$
      0008EE                       1617 00266$:
      0008EE 84               [ 1] 1618 	pop	a
      0008EF 14 01            [ 1] 1619 	and	a, (0x01, sp)
      0008F1 20 20            [ 2] 1620 	jra	00106$
      0008F3                       1621 00102$:
                                   1622 ;	C:\Users\Admin\.platformio\packages\framework-ststm8spl\Libraries\STM8S_StdPeriph_Driver\src\stm8s_adc1.c: 634: itstatus = (ITStatus)(ADC1->AWSRH & (uint8_t)((uint8_t)1 << (temp - 8)));
      0008F3 C6 54 0C         [ 1] 1623 	ld	a, 0x540c
      0008F6 6B 01            [ 1] 1624 	ld	(0x01, sp), a
      0008F8 1D 00 08         [ 2] 1625 	subw	x, #8
      0008FB A6 01            [ 1] 1626 	ld	a, #0x01
      0008FD 88               [ 1] 1627 	push	a
      0008FE 9F               [ 1] 1628 	ld	a, xl
      0008FF 4D               [ 1] 1629 	tnz	a
      000900 27 05            [ 1] 1630 	jreq	00268$
      000902                       1631 00267$:
      000902 08 01            [ 1] 1632 	sll	(1, sp)
      000904 4A               [ 1] 1633 	dec	a
      000905 26 FB            [ 1] 1634 	jrne	00267$
      000907                       1635 00268$:
      000907 84               [ 1] 1636 	pop	a
      000908 14 01            [ 1] 1637 	and	a, (0x01, sp)
      00090A 20 07            [ 2] 1638 	jra	00106$
      00090C                       1639 00105$:
                                   1640 ;	C:\Users\Admin\.platformio\packages\framework-ststm8spl\Libraries\STM8S_StdPeriph_Driver\src\stm8s_adc1.c: 639: itstatus = (ITStatus)(ADC1->CSR & (uint8_t)ITPendingBit);
      00090C C6 54 00         [ 1] 1641 	ld	a, 0x5400
      00090F 89               [ 2] 1642 	pushw	x
      000910 14 02            [ 1] 1643 	and	a, (2, sp)
      000912 85               [ 2] 1644 	popw	x
      000913                       1645 00106$:
                                   1646 ;	C:\Users\Admin\.platformio\packages\framework-ststm8spl\Libraries\STM8S_StdPeriph_Driver\src\stm8s_adc1.c: 641: return ((ITStatus)itstatus);
                                   1647 ;	C:\Users\Admin\.platformio\packages\framework-ststm8spl\Libraries\STM8S_StdPeriph_Driver\src\stm8s_adc1.c: 642: }
      000913 5B 01            [ 2] 1648 	addw	sp, #1
      000915 81               [ 4] 1649 	ret
                                   1650 ;	C:\Users\Admin\.platformio\packages\framework-ststm8spl\Libraries\STM8S_StdPeriph_Driver\src\stm8s_adc1.c: 662: void ADC1_ClearITPendingBit(ADC1_IT_TypeDef ITPendingBit)
                                   1651 ;	-----------------------------------------
                                   1652 ;	 function ADC1_ClearITPendingBit
                                   1653 ;	-----------------------------------------
      000916                       1654 _ADC1_ClearITPendingBit:
      000916 88               [ 1] 1655 	push	a
                                   1656 ;	C:\Users\Admin\.platformio\packages\framework-ststm8spl\Libraries\STM8S_StdPeriph_Driver\src\stm8s_adc1.c: 667: assert_param(IS_ADC1_ITPENDINGBIT_OK(ITPendingBit));
      000917 1E 04            [ 2] 1657 	ldw	x, (0x04, sp)
      000919 A3 00 80         [ 2] 1658 	cpw	x, #0x0080
      00091C 27 4B            [ 1] 1659 	jreq	00110$
      00091E A3 01 40         [ 2] 1660 	cpw	x, #0x0140
      000921 27 46            [ 1] 1661 	jreq	00110$
      000923 A3 01 10         [ 2] 1662 	cpw	x, #0x0110
      000926 27 41            [ 1] 1663 	jreq	00110$
      000928 A3 01 11         [ 2] 1664 	cpw	x, #0x0111
      00092B 27 3C            [ 1] 1665 	jreq	00110$
      00092D A3 01 12         [ 2] 1666 	cpw	x, #0x0112
      000930 27 37            [ 1] 1667 	jreq	00110$
      000932 A3 01 13         [ 2] 1668 	cpw	x, #0x0113
      000935 27 32            [ 1] 1669 	jreq	00110$
      000937 A3 01 14         [ 2] 1670 	cpw	x, #0x0114
      00093A 27 2D            [ 1] 1671 	jreq	00110$
      00093C A3 01 15         [ 2] 1672 	cpw	x, #0x0115
      00093F 27 28            [ 1] 1673 	jreq	00110$
      000941 A3 01 16         [ 2] 1674 	cpw	x, #0x0116
      000944 27 23            [ 1] 1675 	jreq	00110$
      000946 A3 01 17         [ 2] 1676 	cpw	x, #0x0117
      000949 27 1E            [ 1] 1677 	jreq	00110$
      00094B A3 01 18         [ 2] 1678 	cpw	x, #0x0118
      00094E 27 19            [ 1] 1679 	jreq	00110$
      000950 A3 01 1C         [ 2] 1680 	cpw	x, #0x011c
      000953 27 14            [ 1] 1681 	jreq	00110$
      000955 A3 01 19         [ 2] 1682 	cpw	x, #0x0119
      000958 27 0F            [ 1] 1683 	jreq	00110$
      00095A 4B 9B            [ 1] 1684 	push	#0x9b
      00095C 4B 02            [ 1] 1685 	push	#0x02
      00095E 5F               [ 1] 1686 	clrw	x
      00095F 89               [ 2] 1687 	pushw	x
      000960 4Br00            [ 1] 1688 	push	#<(___str_0+0)
      000962 4Bs00            [ 1] 1689 	push	#((___str_0+0) >> 8)
      000964 CDr00r00         [ 4] 1690 	call	_assert_failed
      000967 5B 06            [ 2] 1691 	addw	sp, #6
      000969                       1692 00110$:
                                   1693 ;	C:\Users\Admin\.platformio\packages\framework-ststm8spl\Libraries\STM8S_StdPeriph_Driver\src\stm8s_adc1.c: 669: if (((uint16_t)ITPendingBit & 0xF0) == 0x10)
      000969 1E 04            [ 2] 1694 	ldw	x, (0x04, sp)
      00096B 90 5F            [ 1] 1695 	clrw	y
      00096D 9F               [ 1] 1696 	ld	a, xl
      00096E A4 F0            [ 1] 1697 	and	a, #0xf0
      000970 90 97            [ 1] 1698 	ld	yl, a
      000972 90 A3 00 10      [ 2] 1699 	cpw	y, #0x0010
      000976 26 3F            [ 1] 1700 	jrne	00105$
                                   1701 ;	C:\Users\Admin\.platformio\packages\framework-ststm8spl\Libraries\STM8S_StdPeriph_Driver\src\stm8s_adc1.c: 672: temp = (uint8_t)((uint16_t)ITPendingBit & 0x0F);
      000978 9F               [ 1] 1702 	ld	a, xl
      000979 A4 0F            [ 1] 1703 	and	a, #0x0f
                                   1704 ;	C:\Users\Admin\.platformio\packages\framework-ststm8spl\Libraries\STM8S_StdPeriph_Driver\src\stm8s_adc1.c: 673: if (temp < 8)
      00097B 97               [ 1] 1705 	ld	xl, a
      00097C A1 08            [ 1] 1706 	cp	a, #0x08
      00097E 24 1A            [ 1] 1707 	jrnc	00102$
                                   1708 ;	C:\Users\Admin\.platformio\packages\framework-ststm8spl\Libraries\STM8S_StdPeriph_Driver\src\stm8s_adc1.c: 675: ADC1->AWSRL &= (uint8_t)~(uint8_t)((uint8_t)1 << temp);
      000980 C6 54 0D         [ 1] 1709 	ld	a, 0x540d
      000983 6B 01            [ 1] 1710 	ld	(0x01, sp), a
      000985 A6 01            [ 1] 1711 	ld	a, #0x01
      000987 88               [ 1] 1712 	push	a
      000988 9F               [ 1] 1713 	ld	a, xl
      000989 4D               [ 1] 1714 	tnz	a
      00098A 27 05            [ 1] 1715 	jreq	00266$
      00098C                       1716 00265$:
      00098C 08 01            [ 1] 1717 	sll	(1, sp)
      00098E 4A               [ 1] 1718 	dec	a
      00098F 26 FB            [ 1] 1719 	jrne	00265$
      000991                       1720 00266$:
      000991 84               [ 1] 1721 	pop	a
      000992 43               [ 1] 1722 	cpl	a
      000993 14 01            [ 1] 1723 	and	a, (0x01, sp)
      000995 C7 54 0D         [ 1] 1724 	ld	0x540d, a
      000998 20 29            [ 2] 1725 	jra	00107$
      00099A                       1726 00102$:
                                   1727 ;	C:\Users\Admin\.platformio\packages\framework-ststm8spl\Libraries\STM8S_StdPeriph_Driver\src\stm8s_adc1.c: 679: ADC1->AWSRH &= (uint8_t)~(uint8_t)((uint8_t)1 << (temp - 8));
      00099A C6 54 0C         [ 1] 1728 	ld	a, 0x540c
      00099D 6B 01            [ 1] 1729 	ld	(0x01, sp), a
      00099F 1D 00 08         [ 2] 1730 	subw	x, #8
      0009A2 A6 01            [ 1] 1731 	ld	a, #0x01
      0009A4 88               [ 1] 1732 	push	a
      0009A5 9F               [ 1] 1733 	ld	a, xl
      0009A6 4D               [ 1] 1734 	tnz	a
      0009A7 27 05            [ 1] 1735 	jreq	00268$
      0009A9                       1736 00267$:
      0009A9 08 01            [ 1] 1737 	sll	(1, sp)
      0009AB 4A               [ 1] 1738 	dec	a
      0009AC 26 FB            [ 1] 1739 	jrne	00267$
      0009AE                       1740 00268$:
      0009AE 84               [ 1] 1741 	pop	a
      0009AF 43               [ 1] 1742 	cpl	a
      0009B0 14 01            [ 1] 1743 	and	a, (0x01, sp)
      0009B2 C7 54 0C         [ 1] 1744 	ld	0x540c, a
      0009B5 20 0C            [ 2] 1745 	jra	00107$
      0009B7                       1746 00105$:
                                   1747 ;	C:\Users\Admin\.platformio\packages\framework-ststm8spl\Libraries\STM8S_StdPeriph_Driver\src\stm8s_adc1.c: 684: ADC1->CSR &= (uint8_t)((uint16_t)~(uint16_t)ITPendingBit);
      0009B7 C6 54 00         [ 1] 1748 	ld	a, 0x5400
      0009BA 6B 01            [ 1] 1749 	ld	(0x01, sp), a
      0009BC 53               [ 2] 1750 	cplw	x
      0009BD 9F               [ 1] 1751 	ld	a, xl
      0009BE 14 01            [ 1] 1752 	and	a, (0x01, sp)
      0009C0 C7 54 00         [ 1] 1753 	ld	0x5400, a
      0009C3                       1754 00107$:
                                   1755 ;	C:\Users\Admin\.platformio\packages\framework-ststm8spl\Libraries\STM8S_StdPeriph_Driver\src\stm8s_adc1.c: 686: }
      0009C3 84               [ 1] 1756 	pop	a
      0009C4 81               [ 4] 1757 	ret
                                   1758 	.area CODE
                                   1759 	.area CONST
                                   1760 	.area CONST
      000000                       1761 ___str_0:
      000000 43 3A                 1762 	.ascii "C:"
      000002 5C                    1763 	.db 0x5c
      000003 55 73 65 72 73        1764 	.ascii "Users"
      000008 5C                    1765 	.db 0x5c
      000009 41 64 6D 69 6E        1766 	.ascii "Admin"
      00000E 5C                    1767 	.db 0x5c
      00000F 2E 70 6C 61 74 66 6F  1768 	.ascii ".platformio"
             72 6D 69 6F
      00001A 5C                    1769 	.db 0x5c
      00001B 70 61 63 6B 61 67 65  1770 	.ascii "packages"
             73
      000023 5C                    1771 	.db 0x5c
      000024 66 72 61 6D 65 77 6F  1772 	.ascii "framework-ststm8spl"
             72 6B 2D 73 74 73 74
             6D 38 73 70 6C
      000037 5C                    1773 	.db 0x5c
      000038 4C 69 62 72 61 72 69  1774 	.ascii "Libraries"
             65 73
      000041 5C                    1775 	.db 0x5c
      000042 53 54 4D 38 53 5F 53  1776 	.ascii "STM8S_StdPeriph_Driver"
             74 64 50 65 72 69 70
             68 5F 44 72 69 76 65
             72
      000058 5C                    1777 	.db 0x5c
      000059 73 72 63              1778 	.ascii "src"
      00005C 5C                    1779 	.db 0x5c
      00005D 73 74 6D 38 73 5F 61  1780 	.ascii "stm8s_adc1.c"
             64 63 31 2E 63
      000069 00                    1781 	.db 0x00
                                   1782 	.area CODE
                                   1783 	.area INITIALIZER
                                   1784 	.area CABS (ABS)
